 com_FT60_2020a_slrt

 Timestamp is 67b7b6b2 (Thu Feb 20 18:11:46 2025)

 Preferred load address is 10000000

 Start         Length     Name                   Class
 0001:00000000 0000e950H .text$di                CODE
 0001:0000e950 000aa970H .text$mn                CODE
 0001:000b92c0 000053afH .text$x                 CODE
 0001:000be66f 0000103eH .text$yd                CODE
 0002:00000000 00000104H .CRT$XCA                DATA
 0002:00000104 00000110H .CRT$XCC                DATA
 0002:00000214 0000010cH .CRT$XCL                DATA
 0002:00000320 00000104H .CRT$XCZ                DATA
 0002:00000424 00000104H .CRT$XIA                DATA
 0002:00000528 00000118H .CRT$XIC                DATA
 0002:00000640 00000104H .CRT$XIZ                DATA
 0002:00000744 00000104H .CRT$XPA                DATA
 0002:00000848 0000010cH .CRT$XPX                DATA
 0002:00000954 00000104H .CRT$XPXA               DATA
 0002:00000a58 00000104H .CRT$XPZ                DATA
 0002:00000b5c 00000104H .CRT$XTA                DATA
 0002:00000c60 00000110H .CRT$XTZ                DATA
 0002:00000d70 00038610H .rdata                  DATA
 0002:00039380 00000104H .rdata$CastGuardVftablesA DATA
 0002:00039484 00000104H .rdata$CastGuardVftablesC DATA
 0002:00039588 00001f4cH .rdata$r                DATA
 0002:0003b4d4 000005ccH .rdata$sxdata           DATA
 0002:0003baa0 000001a0H .rdata$zzzdbg           DATA
 0002:0003bc40 00000104H .rtc$IAA                DATA
 0002:0003bd44 00000104H .rtc$IZZ                DATA
 0002:0003be48 00000104H .rtc$TAA                DATA
 0002:0003bf4c 00000104H .rtc$TZZ                DATA
 0002:0003c050 00005570H .xdata$x                DATA
 0002:000415c0 00000208H .edata                  DATA
 0003:00000000 00001518H .data                   DATA
 0003:00001518 00000388H .data$r                 DATA
 0003:000018a0 00000ee0H .data$rs                DATA
 0003:00002780 00015b4cH .bss                    DATA
 0004:00000000 00000210H .idata$5                DATA
 0004:00000210 00000014H .idata$2                DATA
 0004:00000224 00000014H .idata$3                DATA
 0004:00000238 00000210H .idata$4                DATA
 0004:00000448 00000930H .idata$6                DATA
 0005:00000000 00000109H .00cfg                  DATA

  Address         Publics by Value              Rva+Base       Lib:Object

 0000:00000000       ___arm64x_extra_rfe_table_size 00000000     <absolute>
 0000:00000000       __except_list              00000000     <absolute>
 0000:00000000       ___hybrid_auxiliary_iat_copy 00000000     <absolute>
 0000:00000000       ___volatile_metadata       00000000     <absolute>
 0000:00000000       ___arm64x_extra_rfe_table  00000000     <absolute>
 0000:00000000       ___arm64x_redirection_metadata 00000000     <absolute>
 0000:00000000       ___x64_code_ranges_to_entry_points_count 00000000     <absolute>
 0000:00000000       ___guard_longjmp_count     00000000     <absolute>
 0000:00000000       ___guard_iat_count         00000000     <absolute>
 0000:00000000       ___dynamic_value_reloc_table 00000000     <absolute>
 0000:00000000       ___x64_code_ranges_to_entry_points 00000000     <absolute>
 0000:00000000       ___guard_check_icall_a64n_fptr 00000000     <absolute>
 0000:00000000       ___arm64x_redirection_metadata_count 00000000     <absolute>
 0000:00000000       ___hybrid_auxiliary_iat    00000000     <absolute>
 0000:00000000       ___guard_eh_cont_table     00000000     <absolute>
 0000:00000000       ___AbsoluteZero            00000000     <absolute>
 0000:00000000       ___hybrid_code_map_count   00000000     <absolute>
 0000:00000000       ___guard_longjmp_table     00000000     <absolute>
 0000:00000000       ___guard_fids_table        00000000     <absolute>
 0000:00000000       ___hybrid_code_map         00000000     <absolute>
 0000:00000000       ___guard_fids_count        00000000     <absolute>
 0000:00000000       ___guard_iat_table         00000000     <absolute>
 0000:00000000       ___guard_eh_cont_count     00000000     <absolute>
 0000:00000000       ___arm64x_native_entrypoint 00000000     <absolute>
 0000:00000000       ___enclave_config          00000000     <absolute>
 0000:00000100       ___safe_se_handler_count   00000100     <absolute>
 0000:00000100       ___guard_flags             00000100     <absolute>
 0000:00000000       ___ImageBase               10000000     <linker-defined>
 0001:0000e950       _DllMain@12                1000f950 f   xpctarget.obj
 0001:0000e960       _SLRTSetErrorStatus        1000f960 f   xpctarget.obj
 0001:0000e980       _changeStepSize            1000f980 f   xpctarget.obj
 0001:0000e9e0       _com_FT60_2020a_ChangeStepSize 1000f9e0 f   xpctarget.obj
 0001:0000ea40       _getDLMVersion             1000fa40 f   xpctarget.obj
 0001:0000ea50       _getFullPathToRefMdl       1000fa50 f   xpctarget.obj
 0001:0000eb00       _getRefMdlPath             1000fb00 f   xpctarget.obj
 0001:0000eb80       _getRefMdlSignalNumber     1000fb80 f   xpctarget.obj
 0001:0000ec30       _getrlmdlinfo              1000fc30 f   xpctarget.obj
 0001:0000ed90       _slrtRegisterSignalToLoggingService 1000fd90 f   xpctarget.obj
 0001:0000eef0       _updateDiscreteEvents      1000fef0 f   xpctarget.obj
 0001:0000ef00       _getNumRef                 1000ff00 f   appmappingData.obj
 0001:0000ef10       ___local_stdio_printf_options 1000ff10 f i legacy_stdio.obj
 0001:0000ef20       __vfprintf_l               1000ff20 f i legacy_stdio.obj
 0001:0000ef50       _vprintf                   1000ff50 f i legacy_stdio.obj
 0001:0000ef90       _rt_mxCreateCharMatrixFromStrings 1000ff90 f   rt_matrx.obj
 0001:0000f0f0       _rt_mxCreateDoubleMatrix   100100f0 f   rt_matrx.obj
 0001:0000f150       _rt_mxCreateNumericArray   10010150 f   rt_matrx.obj
 0001:0000f1c0       _rt_mxCreateString         100101c0 f   rt_matrx.obj
 0001:0000f250       _rt_mxDuplicateArray       10010250 f   rt_matrx.obj
 0001:0000f2b0       _rt_mxGetDimensions        100102b0 f   rt_matrx.obj
 0001:0000f2f0       _rt_mxGetEps               100102f0 f   rt_matrx.obj
 0001:0000f300       _rt_mxGetString            10010300 f   rt_matrx.obj
 0001:0000f380       _rtPrintfNoOp              10010380 f   rt_printf.obj
 0001:0000f390       __vsnprintf_l              10010390 f i rt_logging.obj
 0001:0000f3d0       __vsprintf_l               100103d0 f i rt_logging.obj
 0001:0000f410       _fprintf                   10010410 f i rt_logging.obj
 0001:0000f910       _printf                    10010910 f i rt_logging.obj
 0001:0000f950       _rt_CreateLogVar           10010950 f   rt_logging.obj
 0001:0000f9e0       _rt_CreateLogVarWithConvert 100109e0 f   rt_logging.obj
 0001:00010310       _rt_CreateStructLogVar     10011310 f   rt_logging.obj
 0001:00011110       _rt_GetMxIdFromDTypeId     10012110 f   rt_logging.obj
 0001:00011140       _rt_GetMxIdFromDTypeIdForRSim 10012140 f   rt_logging.obj
 0001:00013cd0       _rt_StartDataLogging       10014cd0 f   rt_logging.obj
 0001:000141a0       _rt_StartDataLoggingWithStartTime 100151a0 f   rt_logging.obj
 0001:00014620       _rt_StopDataLogging        10015620 f   rt_logging.obj
 0001:00014640       _rt_StopDataLoggingImpl    10015640 f   rt_logging.obj
 0001:00014d50       _rt_UpdateLogVar           10015d50 f   rt_logging.obj
 0001:00015d30       _rt_UpdateLogVarWithDiscontiguousData 10016d30 f   rt_logging.obj
 0001:00015ff0       _rt_UpdateStructLogVar     10016ff0 f   rt_logging.obj
 0001:00016080       _rt_UpdateTXXFYLogVars     10017080 f   rt_logging.obj
 0001:000164f0       _rt_UpdateTXYLogVars       100174f0 f   rt_logging.obj
 0001:00016730       _rt_getTempMemory          10017730 f   rt_logging.obj
 0001:00016780       _rt_preProcessAndLogData   10017780 f   rt_logging.obj
 0001:00016820       _rt_preProcessAndLogDataWithIndex 10017820 f   rt_logging.obj
 0001:000168d0       _sprintf                   100178d0 f i rt_logging.obj
 0001:00016910       _MdlInitialize             10017910 f   com_FT60_2020a.obj
 0001:00016920       _MdlInitializeSampleTimes  10017920 f   com_FT60_2020a.obj
 0001:00016930       _MdlInitializeSizes        10017930 f   com_FT60_2020a.obj
 0001:00016940       _MdlOutputs                10017940 f   com_FT60_2020a.obj
 0001:00016a40       _MdlStart                  10017a40 f   com_FT60_2020a.obj
 0001:00016ac0       _MdlTerminate              10017ac0 f   com_FT60_2020a.obj
 0001:00016b30       _MdlUpdate                 10017b30 f   com_FT60_2020a.obj
 0001:00016c40       _com_FT60_2020a            10017c40 f   com_FT60_2020a.obj
 0001:00018480       _com_FT60_2020a_GetCAPIStaticMap 10019480 f   com_FT60_2020a_capi.obj
 0001:00018490       _com_FT60_2020a_InitializeDataMapInfo 10019490 f   com_FT60_2020a_capi.obj
 0001:00018560       _mdlXcp_GetMdlXcpInfo      10019560 f   com_FT60_2020a_xcp.obj
 0001:00018570       _SLRT_update_TET           10019570 f   com_FT60_2020a_xcp_TET.obj
 0001:00018640       _rtGetInf                  10019640 f   rtGetInf.obj
 0001:00018670       _rtGetInfF                 10019670 f   rtGetInf.obj
 0001:00018680       _rtGetMinusInf             10019680 f   rtGetInf.obj
 0001:000186b0       _rtGetMinusInfF            100196b0 f   rtGetInf.obj
 0001:000186c0       _rtGetNaN                  100196c0 f   rtGetNaN.obj
 0001:000186f0       _rtGetNaNF                 100196f0 f   rtGetNaN.obj
 0001:00018700       _rtIsInf                   10019700 f   rt_nonfinite.obj
 0001:00018740       _rtIsInfF                  10019740 f   rt_nonfinite.obj
 0001:00018780       _rtIsNaN                   10019780 f   rt_nonfinite.obj
 0001:000187d0       _rtIsNaNF                  100197d0 f   rt_nonfinite.obj
 0001:00018810       _rt_InitInfAndNaN          10019810 f   rt_nonfinite.obj
 0001:00018870       _rt_CleanUpForStateLogWithMMI 10019870 f   rt_logging_mmi.obj
 0001:00018980       _rt_FillStateSigInfoFromMMI 10019980 f   rt_logging_mmi.obj
 0001:00018dd0       _rtwCAPI_CountSysRan       10019dd0 f   rtw_modelmap_utils.obj
 0001:00018e70       _rtwCAPI_EncodePath        10019e70 f   rtw_modelmap_utils.obj
 0001:00018f10       _rtwCAPI_FillSysRan        10019f10 f   rtw_modelmap_utils.obj
 0001:00019000       _rtwCAPI_FreeFullPaths     1001a000 f   rtw_modelmap_utils.obj
 0001:00019060       _rtwCAPI_GetFullStateBlockPath 1001a060 f   rtw_modelmap_utils.obj
 0001:000191e0       _rtwCAPI_GetNumContStateRecords 1001a1e0 f   rtw_modelmap_utils.obj
 0001:00019260       _rtwCAPI_GetNumSigLogRecords 1001a260 f   rtw_modelmap_utils.obj
 0001:000192b0       _rtwCAPI_GetNumSigLogRecordsForRTWLogging 1001a2b0 f   rtw_modelmap_utils.obj
 0001:00019350       _rtwCAPI_GetNumStateRecords 1001a350 f   rtw_modelmap_utils.obj
 0001:000193a0       _rtwCAPI_GetNumStateRecordsForRTWLogging 1001a3a0 f   rtw_modelmap_utils.obj
 0001:00019440       _rtwCAPI_GetSigAddrFromMap 1001a440 f   rtw_modelmap_utils.obj
 0001:00019480       _rtwCAPI_GetSigLogRecordInfo 1001a480 f   rtw_modelmap_utils.obj
 0001:00019970       _rtwCAPI_GetStateRecordInfo 1001a970 f   rtw_modelmap_utils.obj
 0001:00019f50       _rtwCAPI_GetStateWidth     1001af50 f   rtw_modelmap_utils.obj
 0001:00019fa0       _rtwCAPI_HasStates         1001afa0 f   rtw_modelmap_utils.obj
 0001:0001a000       _rtwCAPI_UpdateFullPaths   1001b000 f   rtw_modelmap_utils.obj
 0001:0001a140       _timestamp_x86             1001b140 f   host_timer_x86.obj
 0001:0001a150       _taskTimeEnd               1001b150 f   xpc_code_profiling_utility_functions.obj
 0001:0001a160       _taskTimeEnd_              1001b160 f   xpc_code_profiling_utility_functions.obj
 0001:0001a170       _taskTimeStart             1001b170 f   xpc_code_profiling_utility_functions.obj
 0001:0001a180       _taskTimeStart_            1001b180 f   xpc_code_profiling_utility_functions.obj
 0001:0001a190       _xilProfilingTimerFreeze   1001b190 f   xpc_code_profiling_utility_functions.obj
 0001:0001a1a0       _xilProfilingTimerFreezeInternal 1001b1a0 f   xpc_code_profiling_utility_functions.obj
 0001:0001a1b0       _xilProfilingTimerUnFreeze 1001b1b0 f   xpc_code_profiling_utility_functions.obj
 0001:0001a1c0       _xilProfilingTimerUnFreezeInternal 1001b1c0 f   xpc_code_profiling_utility_functions.obj
 0001:0001a1d0       _xilUploadProfilingData    1001b1d0 f   xpc_code_profiling_utility_functions.obj
 0001:0001a510       _sg_IO901_IO902_read_s     1001b510 f   sg_IO901_IO902_read_s.obj
 0001:0001ac60       _sg_IO901_IO902_setup_s    1001bc60 f   sg_IO901_IO902_setup_s.obj
 0001:0001b050       _sg_IO901_IO902_write_s    1001c050 f   sg_IO901_IO902_write_s.obj
 0001:0001b450       _xpcany2dword              1001c450 f   xpcany2dword.obj
 0001:0001b790       _xpcdword2any              1001c790 f   xpcdword2any.obj
 0001:0001b7d0       _GetPCIDeviceFull          1001c7d0 f   xpcruntime:xpcimports.obj
 0001:0001b940       _GetPCIDeviceFunction      1001c940 f   xpcruntime:xpcimports.obj
 0001:0001bab0       _ShowPCIDevice             1001cab0 f   xpcruntime:xpcimports.obj
 0001:0001c0d0       _slrtGetPciConfigAtFunction 1001d0d0 f   xpcruntime:xpcimports.obj
 0001:0001c450       _xpcGetPciConfigAtSlot     1001d450 f   xpcruntime:xpcimports.obj
 0001:0001c470       _xpcInitProcs              1001d470 f   xpcruntime:xpcimports.obj
 0001:0001dea0       _xpceuploadevent           1001eea0 f   xpcruntime:xpcimports.obj
 0001:0001deb0       ??$?6DU?$char_traits@D@std@@V?$allocator@D@1@@std@@YAAAV?$basic_ostream@DU?$char_traits@D@std@@@0@AAV10@ABV?$basic_string@DU?$char_traits@D@std@@V?$allocator@D@2@@0@@Z 1001eeb0 f i libsg_MSVC160_vc:sg_common.obj
 0001:0001dee0       ??$?6U?$char_traits@D@std@@@std@@YAAAV?$basic_ostream@DU?$char_traits@D@std@@@0@AAV10@PBD@Z 1001eee0 f i libsg_MSVC160_vc:sg_common.obj
 0001:0001e220       ??$_Allocate_manually_vector_aligned@U_Default_allocate_traits@std@@@std@@YAPAXI@Z 1001f220 f i libsg_MSVC160_vc:sg_common.obj
 0001:0001e260       ??$_Destroy_range@V?$allocator@V?$basic_string@DU?$char_traits@D@std@@V?$allocator@D@2@@std@@@std@@@std@@YAXPAV?$basic_string@DU?$char_traits@D@std@@V?$allocator@D@2@@0@QAV10@AAV?$allocator@V?$basic_string@DU?$char_traits@D@std@@V?$allocator@D@2@@std@@@0@@Z 1001f260 f i libsg_MSVC160_vc:sg_common.obj
 0001:0001e2e0       ??$_Emplace_reallocate@V?$basic_string@DU?$char_traits@D@std@@V?$allocator@D@2@@std@@@?$vector@V?$basic_string@DU?$char_traits@D@std@@V?$allocator@D@2@@std@@V?$allocator@V?$basic_string@DU?$char_traits@D@std@@V?$allocator@D@2@@std@@@2@@std@@QAEPAV?$basic_string@DU?$char_traits@D@std@@V?$allocator@D@2@@1@QAV21@$$QAV21@@Z 1001f2e0 f i libsg_MSVC160_vc:sg_common.obj
 0001:0001e530       ??$_Float_put_desired_precision@N@std@@YAH_JH@Z 1001f530 f i libsg_MSVC160_vc:sg_common.obj
 0001:0001e580       ??$_Float_put_desired_precision@O@std@@YAH_JH@Z 1001f580 f i libsg_MSVC160_vc:sg_common.obj
 0001:0001e5d0       ??$_Immortalize_memcpy_image@V_Iostream_error_category2@std@@@std@@YAABV_Iostream_error_category2@0@XZ 1001f5d0 f i libsg_MSVC160_vc:sg_common.obj
 0001:0001e5e0       ??$_Insert_string@DU?$char_traits@D@std@@I@std@@YAAAV?$basic_ostream@DU?$char_traits@D@std@@@0@AAV10@QBDI@Z 1001f5e0 f i libsg_MSVC160_vc:sg_common.obj
 0001:0001e8d0       ??$_Integral_to_string@D_J@std@@YA?AV?$basic_string@DU?$char_traits@D@std@@V?$allocator@D@2@@0@_J@Z 1001f8d0 f i libsg_MSVC160_vc:sg_common.obj
 0001:0001e980       ??$_Maklocchr@D@std@@YADDPADABU_Cvtvec@@@Z 1001f980 f i libsg_MSVC160_vc:sg_common.obj
 0001:0001e990       ??$_Maklocstr@D@std@@YAPADPBDPADABU_Cvtvec@@@Z 1001f990 f i libsg_MSVC160_vc:sg_common.obj
 0001:0001e9f0       ??$_UIntegral_to_buff@D_K@std@@YAPADPAD_K@Z 1001f9f0 f i libsg_MSVC160_vc:sg_common.obj
 0001:0001eb70       ??$_Uninitialized_move@PAV?$basic_string@DU?$char_traits@D@std@@V?$allocator@D@2@@std@@V?$allocator@V?$basic_string@DU?$char_traits@D@std@@V?$allocator@D@2@@std@@@2@@std@@YAPAV?$basic_string@DU?$char_traits@D@std@@V?$allocator@D@2@@0@QAV10@0PAV10@AAV?$allocator@V?$basic_string@DU?$char_traits@D@std@@V?$allocator@D@2@@std@@@0@@Z 1001fb70 f i libsg_MSVC160_vc:sg_common.obj
 0001:0001ec00       ??$endl@DU?$char_traits@D@std@@@std@@YAAAV?$basic_ostream@DU?$char_traits@D@std@@@0@AAV10@@Z 1001fc00 f i libsg_MSVC160_vc:sg_common.obj
 0001:0001ecd0       ??$use_facet@V?$ctype@D@std@@@std@@YAABV?$ctype@D@0@ABVlocale@0@@Z 1001fcd0 f i libsg_MSVC160_vc:sg_common.obj
 0001:0001eeb0       ??$use_facet@V?$num_put@DV?$ostreambuf_iterator@DU?$char_traits@D@std@@@std@@@std@@@std@@YAABV?$num_put@DV?$ostreambuf_iterator@DU?$char_traits@D@std@@@std@@@0@ABVlocale@0@@Z 1001feb0 f i libsg_MSVC160_vc:sg_common.obj
 0001:0001f060       ??$use_facet@V?$numpunct@D@std@@@std@@YAABV?$numpunct@D@0@ABVlocale@0@@Z 10020060 f i libsg_MSVC160_vc:sg_common.obj
 0001:0001f310       ??0?$basic_string@DU?$char_traits@D@std@@V?$allocator@D@2@@std@@QAE@ID@Z 10020310 f i libsg_MSVC160_vc:sg_common.obj
 0001:0001f3e0       ??0_Locinfo@std@@QAE@PBD@Z 100203e0 f i libsg_MSVC160_vc:sg_common.obj
 0001:0001f4b0       ??0_System_error@std@@IAE@Verror_code@1@ABV?$basic_string@DU?$char_traits@D@std@@V?$allocator@D@2@@1@@Z 100204b0 f i libsg_MSVC160_vc:sg_common.obj
 0001:0001f700       ??0_System_error@std@@QAE@ABV01@@Z 10020700 f i libsg_MSVC160_vc:sg_common.obj
 0001:0001f760       ??0bad_alloc@std@@QAE@ABV01@@Z 10020760 f i libsg_MSVC160_vc:sg_common.obj
 0001:0001f7a0       ??0bad_array_new_length@std@@QAE@ABV01@@Z 100207a0 f i libsg_MSVC160_vc:sg_common.obj
 0001:0001f7e0       ??0bad_array_new_length@std@@QAE@XZ 100207e0 f i libsg_MSVC160_vc:sg_common.obj
 0001:0001f800       ??0bad_cast@std@@QAE@ABV01@@Z 10020800 f i libsg_MSVC160_vc:sg_common.obj
 0001:0001f840       ??0exception@std@@QAE@ABV01@@Z 10020840 f i libsg_MSVC160_vc:sg_common.obj
 0001:0001f880       ??0failure@ios_base@std@@QAE@ABV012@@Z 10020880 f i libsg_MSVC160_vc:sg_common.obj
 0001:0001f8e0       ??0failure@ios_base@std@@QAE@PBDABVerror_code@2@@Z 100208e0 f i libsg_MSVC160_vc:sg_common.obj
 0001:0001fa00       ??0runtime_error@std@@QAE@ABV01@@Z 10020a00 f i libsg_MSVC160_vc:sg_common.obj
 0001:0001fa40       ??0sentry@?$basic_ostream@DU?$char_traits@D@std@@@std@@QAE@AAV12@@Z 10020a40 f i libsg_MSVC160_vc:sg_common.obj
 0001:0001fb00       ??0system_error@std@@QAE@ABV01@@Z 10020b00 f i libsg_MSVC160_vc:sg_common.obj
 0001:0001fb60       ??1?$_Tidy_guard@V?$numpunct@D@std@@@std@@QAE@XZ 10020b60 f i libsg_MSVC160_vc:sg_common.obj
 0001:0001fb90       ??1?$_Yarn@D@std@@QAE@XZ   10020b90 f i libsg_MSVC160_vc:sg_common.obj
 0001:0001fbb0       ??1?$_Yarn@_W@std@@QAE@XZ  10020bb0 f i libsg_MSVC160_vc:sg_common.obj
 0001:0001fbd0       ??1?$basic_string@DU?$char_traits@D@std@@V?$allocator@D@2@@std@@QAE@XZ 10020bd0 f i libsg_MSVC160_vc:sg_common.obj
 0001:0001fc30       ??1?$ctype@D@std@@MAE@XZ   10020c30 f i libsg_MSVC160_vc:sg_common.obj
 0001:0001fc80       ??1?$num_put@DV?$ostreambuf_iterator@DU?$char_traits@D@std@@@std@@@std@@MAE@XZ 10020c80 f i libsg_MSVC160_vc:sg_common.obj
 0001:0001fc90       ??1?$numpunct@D@std@@MAE@XZ 10020c90 f i libsg_MSVC160_vc:sg_common.obj
 0001:0001fcd0       ??1?$unique_ptr@V_Facet_base@std@@U?$default_delete@V_Facet_base@std@@@2@@std@@QAE@XZ 10020cd0 f i libsg_MSVC160_vc:sg_common.obj
 0001:0001fce0       ??1?$vector@V?$basic_string@DU?$char_traits@D@std@@V?$allocator@D@2@@std@@V?$allocator@V?$basic_string@DU?$char_traits@D@std@@V?$allocator@D@2@@std@@@2@@std@@QAE@XZ 10020ce0 f i libsg_MSVC160_vc:sg_common.obj
 0001:0001fd80       ??1_Facet_base@std@@UAE@XZ 10020d80 f i libsg_MSVC160_vc:sg_common.obj
 0001:0001fd90       ??1_Locinfo@std@@QAE@XZ    10020d90 f i libsg_MSVC160_vc:sg_common.obj
 0001:0001fea0       ??1_Sentry_base@?$basic_ostream@DU?$char_traits@D@std@@@std@@QAE@XZ 10020ea0 f i libsg_MSVC160_vc:sg_common.obj
 0001:0001ff00       ??1bad_array_new_length@std@@UAE@XZ 10020f00 f i libsg_MSVC160_vc:sg_common.obj
 0001:0001ff20       ??1bad_cast@std@@UAE@XZ    10020f20 f i libsg_MSVC160_vc:sg_common.obj
 0001:0001ff40       ??1error_category@std@@UAE@XZ 10020f40 f i libsg_MSVC160_vc:sg_common.obj
 0001:0001ff50       ??1exception@std@@UAE@XZ   10020f50 f i libsg_MSVC160_vc:sg_common.obj
 0001:0001ff70       ??1facet@locale@std@@MAE@XZ 10020f70 f i libsg_MSVC160_vc:sg_common.obj
 0001:0001ff80       ??1failure@ios_base@std@@UAE@XZ 10020f80 f i libsg_MSVC160_vc:sg_common.obj
 0001:0001ffa0       ??1locale@std@@QAE@XZ      10020fa0 f i libsg_MSVC160_vc:sg_common.obj
 0001:0001ffc0       ??1sentry@?$basic_ostream@DU?$char_traits@D@std@@@std@@QAE@XZ 10020fc0 f i libsg_MSVC160_vc:sg_common.obj
 0001:00020040       ??1system_error@std@@UAE@XZ 10021040 f i libsg_MSVC160_vc:sg_common.obj
 0001:00020060       ??_E?$ctype@D@std@@MAEPAXI@Z 10021060 f i libsg_MSVC160_vc:sg_common.obj
 0001:00020060       ??_G?$ctype@D@std@@MAEPAXI@Z 10021060 f i libsg_MSVC160_vc:sg_common.obj
 0001:000200d0       ??_E?$num_put@DV?$ostreambuf_iterator@DU?$char_traits@D@std@@@std@@@std@@MAEPAXI@Z 100210d0 f i libsg_MSVC160_vc:sg_common.obj
 0001:000200d0       ??_G?$num_put@DV?$ostreambuf_iterator@DU?$char_traits@D@std@@@std@@@std@@MAEPAXI@Z 100210d0 f i libsg_MSVC160_vc:sg_common.obj
 0001:00020100       ??_G?$numpunct@D@std@@MAEPAXI@Z 10021100 f i libsg_MSVC160_vc:sg_common.obj
 0001:00020100       ??_E?$numpunct@D@std@@MAEPAXI@Z 10021100 f i libsg_MSVC160_vc:sg_common.obj
 0001:00020160       ??_G_Facet_base@std@@UAEPAXI@Z 10021160 f i libsg_MSVC160_vc:sg_common.obj
 0001:00020160       ??_E_Facet_base@std@@UAEPAXI@Z 10021160 f i libsg_MSVC160_vc:sg_common.obj
 0001:00020190       ??_E_Iostream_error_category2@std@@UAEPAXI@Z 10021190 f i libsg_MSVC160_vc:sg_common.obj
 0001:00020190       ??_G_Iostream_error_category2@std@@UAEPAXI@Z 10021190 f i libsg_MSVC160_vc:sg_common.obj
 0001:000201c0       ??_G_System_error@std@@UAEPAXI@Z 100211c0 f i libsg_MSVC160_vc:sg_common.obj
 0001:000201c0       ??_E_System_error@std@@UAEPAXI@Z 100211c0 f i libsg_MSVC160_vc:sg_common.obj
 0001:00020200       ??_Ebad_alloc@std@@UAEPAXI@Z 10021200 f i libsg_MSVC160_vc:sg_common.obj
 0001:00020200       ??_Gbad_alloc@std@@UAEPAXI@Z 10021200 f i libsg_MSVC160_vc:sg_common.obj
 0001:00020240       ??_Ebad_array_new_length@std@@UAEPAXI@Z 10021240 f i libsg_MSVC160_vc:sg_common.obj
 0001:00020240       ??_Gbad_array_new_length@std@@UAEPAXI@Z 10021240 f i libsg_MSVC160_vc:sg_common.obj
 0001:00020280       ??_Ebad_cast@std@@UAEPAXI@Z 10021280 f i libsg_MSVC160_vc:sg_common.obj
 0001:00020280       ??_Gbad_cast@std@@UAEPAXI@Z 10021280 f i libsg_MSVC160_vc:sg_common.obj
 0001:000202c0       ??_Ectype_base@std@@UAEPAXI@Z 100212c0 f i libsg_MSVC160_vc:sg_common.obj
 0001:000202c0       ??_Gctype_base@std@@UAEPAXI@Z 100212c0 f i libsg_MSVC160_vc:sg_common.obj
 0001:000202f0       ??_Gexception@std@@UAEPAXI@Z 100212f0 f i libsg_MSVC160_vc:sg_common.obj
 0001:000202f0       ??_Eexception@std@@UAEPAXI@Z 100212f0 f i libsg_MSVC160_vc:sg_common.obj
 0001:00020330       ??_Gfacet@locale@std@@MAEPAXI@Z 10021330 f i libsg_MSVC160_vc:sg_common.obj
 0001:00020330       ??_Efacet@locale@std@@MAEPAXI@Z 10021330 f i libsg_MSVC160_vc:sg_common.obj
 0001:00020360       ??_Gfailure@ios_base@std@@UAEPAXI@Z 10021360 f i libsg_MSVC160_vc:sg_common.obj
 0001:00020360       ??_Efailure@ios_base@std@@UAEPAXI@Z 10021360 f i libsg_MSVC160_vc:sg_common.obj
 0001:000203a0       ??_Gruntime_error@std@@UAEPAXI@Z 100213a0 f i libsg_MSVC160_vc:sg_common.obj
 0001:000203a0       ??_Eruntime_error@std@@UAEPAXI@Z 100213a0 f i libsg_MSVC160_vc:sg_common.obj
 0001:000203e0       ??_Esystem_error@std@@UAEPAXI@Z 100213e0 f i libsg_MSVC160_vc:sg_common.obj
 0001:000203e0       ??_Gsystem_error@std@@UAEPAXI@Z 100213e0 f i libsg_MSVC160_vc:sg_common.obj
 0001:00020420       ?_Decref@facet@locale@std@@UAEPAV_Facet_base@3@XZ 10021420 f i libsg_MSVC160_vc:sg_common.obj
 0001:00020440       ?_Ffmt@?$num_put@DV?$ostreambuf_iterator@DU?$char_traits@D@std@@@std@@@std@@ABAPADPADDH@Z 10021440 f i libsg_MSVC160_vc:sg_common.obj
 0001:00020530       ?_Fput@?$num_put@DV?$ostreambuf_iterator@DU?$char_traits@D@std@@@std@@@std@@ABA?AV?$ostreambuf_iterator@DU?$char_traits@D@std@@@2@V32@AAVios_base@2@DPBDI@Z 10021530 f i libsg_MSVC160_vc:sg_common.obj
 0001:00020c10       ?_Incref@facet@locale@std@@UAEXXZ 10021c10 f i libsg_MSVC160_vc:sg_common.obj
 0001:00020c20       ?_Iput@?$num_put@DV?$ostreambuf_iterator@DU?$char_traits@D@std@@@std@@@std@@ABA?AV?$ostreambuf_iterator@DU?$char_traits@D@std@@@2@V32@AAVios_base@2@DPADI@Z 10021c20 f i libsg_MSVC160_vc:sg_common.obj
 0001:00021260       ?_Osfx@?$basic_ostream@DU?$char_traits@D@std@@@std@@QAEXXZ 10022260 f i libsg_MSVC160_vc:sg_common.obj
 0001:00021370       ?_Put@?$num_put@DV?$ostreambuf_iterator@DU?$char_traits@D@std@@@std@@@std@@ABA?AV?$ostreambuf_iterator@DU?$char_traits@D@std@@@2@V32@PBDI@Z 10022370 f i libsg_MSVC160_vc:sg_common.obj
 0001:00021400       ?_Rep@?$num_put@DV?$ostreambuf_iterator@DU?$char_traits@D@std@@@std@@@std@@ABA?AV?$ostreambuf_iterator@DU?$char_traits@D@std@@@2@V32@DI@Z 10022400 f i libsg_MSVC160_vc:sg_common.obj
 0001:00021490       ?_Throw_bad_array_new_length@std@@YAXXZ 10022490 f i libsg_MSVC160_vc:sg_common.obj
 0001:000214c0       ?_Xlen_string@std@@YAXXZ   100224c0 f i libsg_MSVC160_vc:sg_common.obj
 0001:000214d0       ?_Xlength@?$vector@V?$basic_string@DU?$char_traits@D@std@@V?$allocator@D@2@@std@@V?$allocator@V?$basic_string@DU?$char_traits@D@std@@V?$allocator@D@2@@std@@@2@@std@@CAXXZ 100224d0 f i libsg_MSVC160_vc:sg_common.obj
 0001:000214e0       ?_Xran@?$_String_val@U?$_Simple_types@D@std@@@std@@SAXXZ 100224e0 f i libsg_MSVC160_vc:sg_common.obj
 0001:000214f0       ?allocate@?$allocator@D@std@@QAEPADI@Z 100224f0 f i libsg_MSVC160_vc:sg_common.obj
 0001:00021560       ?append@?$basic_string@DU?$char_traits@D@std@@V?$allocator@D@2@@std@@QAEAAV12@QBDI@Z 10022560 f i libsg_MSVC160_vc:sg_common.obj
 0001:00021710       ?assign@?$basic_string@DU?$char_traits@D@std@@V?$allocator@D@2@@std@@QAEAAV12@QBDI@Z 10022710 f i libsg_MSVC160_vc:sg_common.obj
 0001:00021840       ?clear@ios_base@std@@QAEXH_N@Z 10022840 f i libsg_MSVC160_vc:sg_common.obj
 0001:000218d0       ?dec@std@@YAAAVios_base@1@AAV21@@Z 100228d0 f i libsg_MSVC160_vc:sg_common.obj
 0001:000218f0       ?default_error_condition@error_category@std@@UBE?AVerror_condition@2@H@Z 100228f0 f i libsg_MSVC160_vc:sg_common.obj
 0001:00021910       ?do_decimal_point@?$numpunct@D@std@@MBEDXZ 10022910 f i libsg_MSVC160_vc:sg_common.obj
 0001:00021920       ?do_falsename@?$numpunct@D@std@@MBE?AV?$basic_string@DU?$char_traits@D@std@@V?$allocator@D@2@@2@XZ 10022920 f i libsg_MSVC160_vc:sg_common.obj
 0001:00021980       ?do_grouping@?$numpunct@D@std@@MBE?AV?$basic_string@DU?$char_traits@D@std@@V?$allocator@D@2@@2@XZ 10022980 f i libsg_MSVC160_vc:sg_common.obj
 0001:000219e0       ?do_narrow@?$ctype@D@std@@MBEDDD@Z 100229e0 f i libsg_MSVC160_vc:sg_common.obj
 0001:000219f0       ?do_narrow@?$ctype@D@std@@MBEPBDPBD0DPAD@Z 100229f0 f i libsg_MSVC160_vc:sg_common.obj
 0001:00021a20       ?do_put@?$num_put@DV?$ostreambuf_iterator@DU?$char_traits@D@std@@@std@@@std@@MBE?AV?$ostreambuf_iterator@DU?$char_traits@D@std@@@2@V32@AAVios_base@2@DJ@Z 10022a20 f i libsg_MSVC160_vc:sg_common.obj
 0001:00021b20       ?do_put@?$num_put@DV?$ostreambuf_iterator@DU?$char_traits@D@std@@@std@@@std@@MBE?AV?$ostreambuf_iterator@DU?$char_traits@D@std@@@2@V32@AAVios_base@2@DK@Z 10022b20 f i libsg_MSVC160_vc:sg_common.obj
 0001:00021c20       ?do_put@?$num_put@DV?$ostreambuf_iterator@DU?$char_traits@D@std@@@std@@@std@@MBE?AV?$ostreambuf_iterator@DU?$char_traits@D@std@@@2@V32@AAVios_base@2@DN@Z 10022c20 f i libsg_MSVC160_vc:sg_common.obj
 0001:00021e50       ?do_put@?$num_put@DV?$ostreambuf_iterator@DU?$char_traits@D@std@@@std@@@std@@MBE?AV?$ostreambuf_iterator@DU?$char_traits@D@std@@@2@V32@AAVios_base@2@DO@Z 10022e50 f i libsg_MSVC160_vc:sg_common.obj
 0001:00022080       ?do_put@?$num_put@DV?$ostreambuf_iterator@DU?$char_traits@D@std@@@std@@@std@@MBE?AV?$ostreambuf_iterator@DU?$char_traits@D@std@@@2@V32@AAVios_base@2@DPBX@Z 10023080 f i libsg_MSVC160_vc:sg_common.obj
 0001:00022100       ?do_put@?$num_put@DV?$ostreambuf_iterator@DU?$char_traits@D@std@@@std@@@std@@MBE?AV?$ostreambuf_iterator@DU?$char_traits@D@std@@@2@V32@AAVios_base@2@D_J@Z 10023100 f i libsg_MSVC160_vc:sg_common.obj
 0001:00022210       ?do_put@?$num_put@DV?$ostreambuf_iterator@DU?$char_traits@D@std@@@std@@@std@@MBE?AV?$ostreambuf_iterator@DU?$char_traits@D@std@@@2@V32@AAVios_base@2@D_K@Z 10023210 f i libsg_MSVC160_vc:sg_common.obj
 0001:00022320       ?do_put@?$num_put@DV?$ostreambuf_iterator@DU?$char_traits@D@std@@@std@@@std@@MBE?AV?$ostreambuf_iterator@DU?$char_traits@D@std@@@2@V32@AAVios_base@2@D_N@Z 10023320 f i libsg_MSVC160_vc:sg_common.obj
 0001:000225a0       ?do_thousands_sep@?$numpunct@D@std@@MBEDXZ 100235a0 f i libsg_MSVC160_vc:sg_common.obj
 0001:000225b0       ?do_tolower@?$ctype@D@std@@MBEDD@Z 100235b0 f i libsg_MSVC160_vc:sg_common.obj
 0001:000225d0       ?do_tolower@?$ctype@D@std@@MBEPBDPADPBD@Z 100235d0 f i libsg_MSVC160_vc:sg_common.obj
 0001:00022610       ?do_toupper@?$ctype@D@std@@MBEDD@Z 10023610 f i libsg_MSVC160_vc:sg_common.obj
 0001:00022630       ?do_toupper@?$ctype@D@std@@MBEPBDPADPBD@Z 10023630 f i libsg_MSVC160_vc:sg_common.obj
 0001:00022670       ?do_truename@?$numpunct@D@std@@MBE?AV?$basic_string@DU?$char_traits@D@std@@V?$allocator@D@2@@2@XZ 10023670 f i libsg_MSVC160_vc:sg_common.obj
 0001:000226d0       ?do_widen@?$ctype@D@std@@MBEDD@Z 100236d0 f i libsg_MSVC160_vc:sg_common.obj
 0001:000226e0       ?do_widen@?$ctype@D@std@@MBEPBDPBD0PAD@Z 100236e0 f i libsg_MSVC160_vc:sg_common.obj
 0001:00022710       ?equivalent@error_category@std@@UBE_NABVerror_code@2@H@Z 10023710 f i libsg_MSVC160_vc:sg_common.obj
 0001:00022740       ?equivalent@error_category@std@@UBE_NHABVerror_condition@2@@Z 10023740 f i libsg_MSVC160_vc:sg_common.obj
 0001:00022790       ?flush@?$basic_ostream@DU?$char_traits@D@std@@@std@@QAEAAV12@XZ 10023790 f i libsg_MSVC160_vc:sg_common.obj
 0001:000228d0       ?hex@std@@YAAAVios_base@1@AAV21@@Z 100238d0 f i libsg_MSVC160_vc:sg_common.obj
 0001:000228f0       ?make_error_code@std@@YA?AVerror_code@1@W4io_errc@1@@Z 100238f0 f i libsg_MSVC160_vc:sg_common.obj
 0001:00022910       ?message@_Iostream_error_category2@std@@UBE?AV?$basic_string@DU?$char_traits@D@std@@V?$allocator@D@2@@2@H@Z 10023910 f i libsg_MSVC160_vc:sg_common.obj
 0001:000229f0       ?name@_Iostream_error_category2@std@@UBEPBDXZ 100239f0 f i libsg_MSVC160_vc:sg_common.obj
 0001:00022a00       ?put@?$basic_ostream@DU?$char_traits@D@std@@@std@@QAEAAV12@D@Z 10023a00 f i libsg_MSVC160_vc:sg_common.obj
 0001:00022be0       ?resize@?$basic_string@DU?$char_traits@D@std@@V?$allocator@D@2@@std@@QAEXID@Z 10023be0 f i libsg_MSVC160_vc:sg_common.obj
 0001:00022da0       ?setstate@?$basic_ios@DU?$char_traits@D@std@@@std@@QAEXH_N@Z 10023da0 f i libsg_MSVC160_vc:sg_common.obj
 0001:00022e00       ?to_string@std@@YA?AV?$basic_string@DU?$char_traits@D@std@@V?$allocator@D@2@@1@_J@Z 10023e00 f i libsg_MSVC160_vc:sg_common.obj
 0001:00022eb0       ?what@exception@std@@UBEPBDXZ 10023eb0 f i libsg_MSVC160_vc:sg_common.obj
 0001:00022ed0       _createEncryptedMacFile    10023ed0 f   libsg_MSVC160_vc:sg_common.obj
 0001:00022f60       _createHashValue           10023f60 f   libsg_MSVC160_vc:sg_common.obj
 0001:00022f90       _getLowestBit              10023f90 f   libsg_MSVC160_vc:sg_common.obj
 0001:00022fc0       _getPCIConfigData          10023fc0 f   libsg_MSVC160_vc:sg_common.obj
 0001:00022fe0       _getTargetAuthentication   10023fe0 f   libsg_MSVC160_vc:sg_common.obj
 0001:00024180       _printWarningMessage       10025180 f   libsg_MSVC160_vc:sg_common.obj
 0001:000241c0       _readPciBar                100251c0 f   libsg_MSVC160_vc:sg_common.obj
 0001:00024300       _setPCIConfigAddress       10025300 f   libsg_MSVC160_vc:sg_common.obj
 0001:00024350       _setPCIConfigData          10025350 f   libsg_MSVC160_vc:sg_common.obj
 0001:00024370       _sg_allocPhysicalMemory_v2 10025370 f   libsg_MSVC160_vc:sg_common.obj
 0001:00024390       _sg_checkTargetAuthentication 10025390 f   libsg_MSVC160_vc:sg_common.obj
 0001:000243c0       _sg_createMutex            100253c0 f   libsg_MSVC160_vc:sg_common.obj
 0001:000243e0       _sg_createSemaphore        100253e0 f   libsg_MSVC160_vc:sg_common.obj
 0001:00024400       _sg_createThread           10025400 f   libsg_MSVC160_vc:sg_common.obj
 0001:00024440       _sg_destroyMutex           10025440 f   libsg_MSVC160_vc:sg_common.obj
 0001:00024460       _sg_destroySemaphore       10025460 f   libsg_MSVC160_vc:sg_common.obj
 0001:00024480       _sg_destroyThread          10025480 f   libsg_MSVC160_vc:sg_common.obj
 0001:000244b0       _sg_detectPciDevice        100254b0 f   libsg_MSVC160_vc:sg_common.obj
 0001:000244e0       _sg_doesFsNodeExist        100254e0 f   libsg_MSVC160_vc:sg_common.obj
 0001:00024500       _sg_findPciDevice          10025500 f   libsg_MSVC160_vc:sg_common.obj
 0001:00024830       _sg_fullFile               10025830 f   libsg_MSVC160_vc:sg_common.obj
 0001:00024900       _sg_getConfigBaseDir       10025900 f   libsg_MSVC160_vc:sg_common.obj
 0001:00024940       _sg_getElapsedTime         10025940 f   libsg_MSVC160_vc:sg_common.obj
 0001:00024960       _sg_getModelBaseDir        10025960 f   libsg_MSVC160_vc:sg_common.obj
 0001:000249a0       _sg_initModelRun           100259a0 f   libsg_MSVC160_vc:sg_common.obj
 0001:000249b0       _sg_isFirstModelLoad       100259b0 f   libsg_MSVC160_vc:sg_common.obj
 0001:000249c0       _sg_lockMutex              100259c0 f   libsg_MSVC160_vc:sg_common.obj
 0001:000249e0       _sg_mapIo                  100259e0 f   libsg_MSVC160_vc:sg_common.obj
 0001:00024a00       _sg_mapMemory              10025a00 f   libsg_MSVC160_vc:sg_common.obj
 0001:00024a30       _sg_releaseSemaphore       10025a30 f   libsg_MSVC160_vc:sg_common.obj
 0001:00024a50       _sg_setAbilities           10025a50 f   libsg_MSVC160_vc:sg_common.obj
 0001:00024a60       _sg_setDriveLetter         10025a60 f   libsg_MSVC160_vc:sg_common.obj
 0001:00024a70       _sg_showPciDevice          10025a70 f   libsg_MSVC160_vc:sg_common.obj
 0001:00024b50       _sg_tryLockMutex           10025b50 f   libsg_MSVC160_vc:sg_common.obj
 0001:00024b70       _sg_unlockMutex            10025b70 f   libsg_MSVC160_vc:sg_common.obj
 0001:00024b90       _sg_waitForSemaphore       10025b90 f   libsg_MSVC160_vc:sg_common.obj
 0001:00024bb0       _sg_wait_ns                10025bb0 f   libsg_MSVC160_vc:sg_common.obj
 0001:00024c10       _sg_wait_s                 10025c10 f   libsg_MSVC160_vc:sg_common.obj
 0001:00024c40       _sprintf_s                 10025c40 f i libsg_MSVC160_vc:sg_common.obj
 0001:00024c80       _sg_getCpuTemperature      10025c80 f   libsg_MSVC160_vc:sg_target.obj
 0001:00024cb0       _sg_getTargetMatlabVersion 10025cb0 f   libsg_MSVC160_vc:sg_target.obj
 0001:00024f40       _sg_target_getHostLinkMac  10025f40 f   libsg_MSVC160_vc:sg_target.obj
 0001:00024f80       _sg_target_getTccActivationTemp 10025f80 f   libsg_MSVC160_vc:sg_target.obj
 0001:00024f90       ?MurmurHash3_x64_128@@YAXPBXHIPAX@Z 10025f90 f   libsg_MSVC160_vc:MurmurHash3.obj
 0001:000254f0       ?MurmurHash3_x86_128@@YAXPBXHIPAX@Z 100264f0 f   libsg_MSVC160_vc:MurmurHash3.obj
 0001:000258d0       ?MurmurHash3_x86_32@@YAXPBXHIPAX@Z 100268d0 f   libsg_MSVC160_vc:MurmurHash3.obj
 0001:000259c0       __ftoui3                   100269c0 f   LIBCMT:ftol3.obj
 0001:00025a20       __ftoul3                   10026a20 f   LIBCMT:ftol3.obj
 0001:00025ab0       __ftol3                    10026ab0 f   LIBCMT:ftol3.obj
 0001:00025b40       __dtoui3                   10026b40 f   LIBCMT:ftol3.obj
 0001:00025be0       __dtoul3                   10026be0 f   LIBCMT:ftol3.obj
 0001:00025cb0       __dtol3                    10026cb0 f   LIBCMT:ftol3.obj
 0001:00025d90       __ultod3                   10026d90 f   LIBCMT:ftol3.obj
 0001:00025e00       __ltod3                    10026e00 f   LIBCMT:ftol3.obj
 0001:00025e51       ___raise_securityfailure   10026e51 f   LIBCMT:gs_report.obj
 0001:00025e83       ___report_gsfailure        10026e83 f   LIBCMT:gs_report.obj
 0001:00025fbb       ___report_rangecheckfailure 10026fbb f   LIBCMT:gs_report.obj
 0001:00025fca       ___report_securityfailure  10026fca f   LIBCMT:gs_report.obj
 0001:000260cc       ___report_securityfailureEx 100270cc f   LIBCMT:gs_report.obj
 0001:00026226       @__security_check_cookie@4 10027226 f   LIBCMT:secchk.obj
 0001:00026237       ___isa_available_init      10027237 f   LIBCMT:cpu_disp.obj
 0001:00026889       __CRT_INIT@12              10027889 f   LIBCMT:dll_dllmain.obj
 0001:00026894       __DllMainCRTStartup@12     10027894 f   LIBCMT:dll_dllmain.obj
 0001:000268bf       ??2@YAPAXI@Z               100278bf f   LIBCMT:new_scalar.obj
 0001:000268fb       ??3@YAXPAXI@Z              100278fb f   LIBCMT:delete_scalar_size.obj
 0001:0002690c       ??_U@YAPAXI@Z              1002790c f   LIBCMT:new_array.obj
 0001:00026917       ??_V@YAXPAX@Z              10027917 f   LIBCMT:delete_array.obj
 0001:0002691c       ??1type_info@@UAE@XZ       1002791c f   LIBCMT:std_type_info_static.obj
 0001:00026923       ??_Etype_info@@UAEPAXI@Z   10027923 f i LIBCMT:std_type_info_static.obj
 0001:00026923       ??_Gtype_info@@UAEPAXI@Z   10027923 f i LIBCMT:std_type_info_static.obj
 0001:00026950       __allmul                   10027950 f   LIBCMT:llmul.obj
 0001:000269f1       ___security_init_cookie    100279f1 f   LIBCMT:gs_support.obj
 0001:00026a4e       ?__scrt_initialize_type_info@@YAXXZ 10027a4e f   LIBCMT:tncleanup.obj
 0001:00026a5d       ?__scrt_uninitialize_type_info@@YAXXZ 10027a5d f   LIBCMT:tncleanup.obj
 0001:00026a6c       ___local_stdio_scanf_options 10027a6c f i LIBCMT:default_local_stdio_options.obj
 0001:00026a72       ___scrt_initialize_default_local_stdio_options 10027a72 f   LIBCMT:default_local_stdio_options.obj
 0001:00026a96       ?configure_argv@__scrt_narrow_argv_policy@@SAHXZ 10027a96 f i LIBCMT:utility.obj
 0001:00026afb       ?initialize_environment@__scrt_narrow_environment_policy@@SAHXZ 10027afb f i LIBCMT:utility.obj
 0001:00026b41       _NtCurrentTeb              10027b41 f i LIBCMT:utility.obj
 0001:00026b48       ___scrt_acquire_startup_lock 10027b48 f   LIBCMT:utility.obj
 0001:00026b86       ___scrt_dllmain_after_initialize_c 10027b86 f   LIBCMT:utility.obj
 0001:00026bbb       ___scrt_dllmain_before_initialize_c 10027bbb f   LIBCMT:utility.obj
 0001:00026bcc       ___scrt_dllmain_crt_thread_attach 10027bcc f   LIBCMT:utility.obj
 0001:00026bf2       ___scrt_dllmain_crt_thread_detach 10027bf2 f   LIBCMT:utility.obj
 0001:00026c02       ___scrt_dllmain_exception_filter 10027c02 f   LIBCMT:utility.obj
 0001:00026c43       ___scrt_dllmain_uninitialize_c 10027c43 f   LIBCMT:utility.obj
 0001:00026c6e       ___scrt_dllmain_uninitialize_critical 10027c6e f   LIBCMT:utility.obj
 0001:00026c7e       ___scrt_initialize_crt     10027c7e f   LIBCMT:utility.obj
 0001:00026cc5       ___scrt_initialize_onexit_tables 10027cc5 f   LIBCMT:utility.obj
 0001:00026d6d       ___scrt_is_nonwritable_in_current_image 10027d6d f   LIBCMT:utility.obj
 0001:00026e26       ___scrt_release_startup_lock 10027e26 f   LIBCMT:utility.obj
 0001:00026e4a       ___scrt_uninitialize_crt   10027e4a f   LIBCMT:utility.obj
 0001:00026e7c       __onexit                   10027e7c f   LIBCMT:utility.obj
 0001:00026eb4       _at_quick_exit             10027eb4 f   LIBCMT:utility.obj
 0001:00026edf       _atexit                    10027edf f   LIBCMT:utility.obj
 0001:00026ef9       ___scrt_get_dyn_tls_init_callback 10027ef9 f   LIBCMT:dyn_tls_init.obj
 0001:00026eff       ___scrt_fastfail           10027eff f   LIBCMT:utility_desktop.obj
 0001:00027060       ___scrt_get_show_window_mode 10028060 f   LIBCMT:utility_desktop.obj
 0001:0002709d       ___scrt_initialize_mta     1002809d f   LIBCMT:utility_desktop.obj
 0001:000270a2       ___scrt_initialize_winrt   100280a2 f   LIBCMT:utility_desktop.obj
 0001:000270a5       ___scrt_is_managed_app     100280a5 f   LIBCMT:utility_desktop.obj
 0001:000270f8       ___scrt_set_unhandled_exception_filter 100280f8 f   LIBCMT:utility_desktop.obj
 0001:00027107       ___scrt_stub_for_initialize_mta 10028107 f   LIBCMT:utility_desktop.obj
 0001:00027107       ___scrt_exe_initialize_mta 10028107 f   LIBCMT:utility_desktop.obj
 0001:0002710a       ___scrt_unhandled_exception_filter@4 1002810a f   LIBCMT:utility_desktop.obj
 0001:00027175       __crt_debugger_hook        10028175 f   LIBCMT:utility_desktop.obj
 0001:0002717f       __RTC_Initialize           1002817f f   LIBCMT:initsect.obj
 0001:000271b6       __RTC_Terminate            100281b6 f   LIBCMT:initsect.obj
 0001:000271f0       __SEH_prolog4              100281f0 f   LIBCMT:sehprolg4.obj
 0001:00027250       __SEH_epilog4              10028250 f   LIBCMT:sehprolg4.obj
 0001:00027269       @_guard_check_icall_nop@4  10028269 f i LIBCMT:guard_support.obj
 0001:0002726c       _ReadNoFence               1002826c f i LIBCMT:guard_support.obj
 0001:00027278       _ReadPointerNoFence        10028278 f i LIBCMT:guard_support.obj
 0001:00027284       ___castguard_check_failure_debugbreak 10028284 f i LIBCMT:guard_support.obj
 0001:000272a5       ___castguard_check_failure_fastfail 100282a5 f i LIBCMT:guard_support.obj
 0001:000272cb       ___castguard_check_failure_nop 100282cb f i LIBCMT:guard_support.obj
 0001:000272ce       ___castguard_check_failure_os_handled 100282ce f i LIBCMT:guard_support.obj
 0001:00027336       ___castguard_slow_path_check_debugbreak 10028336 f i LIBCMT:guard_support.obj
 0001:0002736e       ___castguard_slow_path_check_fastfail 1002836e f i LIBCMT:guard_support.obj
 0001:000273ab       ___castguard_slow_path_check_nop 100283ab f i LIBCMT:guard_support.obj
 0001:000273ae       ___castguard_slow_path_check_os_handled 100283ae f i LIBCMT:guard_support.obj
 0001:0002742d       __guard_icall_checks_enforced 1002842d f i LIBCMT:guard_support.obj
 0001:00027443       ??0bad_alloc@std@@AAE@QBD@Z 10028443 f i LIBCMT:throw_bad_alloc.obj
 0001:00027467       ??0bad_alloc@std@@QAE@XZ   10028467 f i LIBCMT:throw_bad_alloc.obj
 0001:00027485       ??0exception@std@@QAE@QBDH@Z 10028485 f i LIBCMT:throw_bad_alloc.obj
 0001:000274a9       ??1bad_alloc@std@@UAE@XZ   100284a9 f i LIBCMT:throw_bad_alloc.obj
 0001:000274be       ?__scrt_throw_std_bad_alloc@@YAXXZ 100284be f   LIBCMT:throw_bad_alloc.obj
 0001:000274e2       ?__scrt_throw_std_bad_array_new_length@@YAXXZ 100284e2 f   LIBCMT:throw_bad_alloc.obj
 0001:00027506       ??3@YAXPAX@Z               10028506 f   LIBCMT:delete_scalar.obj
 0001:0002750b       __get_startup_argv_mode    1002850b f   LIBCMT:argv_mode.obj
 0001:0002750f       ___scrt_is_ucrt_dll_in_use 1002850f f   LIBCMT:ucrt_detection.obj
 0001:0002751e       ??0_Init_locks@std@@QAE@XZ 1002851e f   libcpmt:xlock.obj
 0001:00027556       ??0_Lockit@std@@QAE@H@Z    10028556 f   libcpmt:xlock.obj
 0001:00027593       ??0_Lockit@std@@QAE@XZ     10028593 f   libcpmt:xlock.obj
 0001:000275a5       ??1_Init_locks@std@@QAE@XZ 100285a5 f   libcpmt:xlock.obj
 0001:000275d5       ??1_Lockit@std@@QAE@XZ     100285d5 f   libcpmt:xlock.obj
 0001:000275fb       ?_Init_locks_ctor@_Init_locks@std@@CAXPAV12@@Z 100285fb f   libcpmt:xlock.obj
 0001:0002762b       ?_Init_locks_dtor@_Init_locks@std@@CAXPAV12@@Z 1002862b f   libcpmt:xlock.obj
 0001:0002765b       ?_Lockit_ctor@_Lockit@std@@CAXPAV12@@Z 1002865b f   libcpmt:xlock.obj
 0001:0002766a       ?_Lockit_ctor@_Lockit@std@@CAXPAV12@H@Z 1002866a f   libcpmt:xlock.obj
 0001:0002769d       ?_Lockit_ctor@_Lockit@std@@SAXH@Z 1002869d f   libcpmt:xlock.obj
 0001:000276ca       ?_Lockit_dtor@_Lockit@std@@CAXPAV12@@Z 100286ca f   libcpmt:xlock.obj
 0001:000276e6       ?_Lockit_dtor@_Lockit@std@@SAXH@Z 100286e6 f   libcpmt:xlock.obj
 0001:00027713       __Lock_at_thread_exit_mutex 10028713 f   libcpmt:xlock.obj
 0001:00027722       __Unlock_at_thread_exit_mutex 10028722 f   libcpmt:xlock.obj
 0001:00027731       ??0bad_function_call@std@@QAE@ABV01@@Z 10028731 f i libcpmt:xthrow.obj
 0001:00027752       ??0bad_function_call@std@@QAE@XZ 10028752 f i libcpmt:xthrow.obj
 0001:00027767       ??0exception@std@@QAE@QBD@Z 10028767 f i libcpmt:xthrow.obj
 0001:000277a9       ??0exception@std@@QAE@XZ   100287a9 f i libcpmt:xthrow.obj
 0001:000277be       ??0invalid_argument@std@@QAE@ABV01@@Z 100287be f i libcpmt:xthrow.obj
 0001:000277df       ??0invalid_argument@std@@QAE@PBD@Z 100287df f i libcpmt:xthrow.obj
 0001:00027805       ??0length_error@std@@QAE@ABV01@@Z 10028805 f i libcpmt:xthrow.obj
 0001:00027826       ??0length_error@std@@QAE@PBD@Z 10028826 f i libcpmt:xthrow.obj
 0001:0002784c       ??0logic_error@std@@QAE@ABV01@@Z 1002884c f i libcpmt:xthrow.obj
 0001:0002786d       ??0logic_error@std@@QAE@PBD@Z 1002886d f i libcpmt:xthrow.obj
 0001:00027893       ??0out_of_range@std@@QAE@ABV01@@Z 10028893 f i libcpmt:xthrow.obj
 0001:000278b4       ??0out_of_range@std@@QAE@PBD@Z 100288b4 f i libcpmt:xthrow.obj
 0001:000278da       ??0overflow_error@std@@QAE@ABV01@@Z 100288da f i libcpmt:xthrow.obj
 0001:000278fb       ??0overflow_error@std@@QAE@PBD@Z 100288fb f i libcpmt:xthrow.obj
 0001:00027921       ??0regex_error@std@@QAE@ABV01@@Z 10028921 f i libcpmt:xthrow.obj
 0001:0002794e       ??0regex_error@std@@QAE@W4error_type@regex_constants@1@@Z 1002894e f i libcpmt:xthrow.obj
 0001:00027987       ??0runtime_error@std@@QAE@PBD@Z 10028987 f i libcpmt:xthrow.obj
 0001:000279ad       ??1bad_function_call@std@@UAE@XZ 100289ad f i libcpmt:xthrow.obj
 0001:000279c2       ??1invalid_argument@std@@UAE@XZ 100289c2 f i libcpmt:xthrow.obj
 0001:000279d7       ??1length_error@std@@UAE@XZ 100289d7 f i libcpmt:xthrow.obj
 0001:000279ec       ??1logic_error@std@@UAE@XZ 100289ec f i libcpmt:xthrow.obj
 0001:00027a01       ??1out_of_range@std@@UAE@XZ 10028a01 f i libcpmt:xthrow.obj
 0001:00027a16       ??1overflow_error@std@@UAE@XZ 10028a16 f i libcpmt:xthrow.obj
 0001:00027a2b       ??1regex_error@std@@UAE@XZ 10028a2b f i libcpmt:xthrow.obj
 0001:00027a40       ??1runtime_error@std@@UAE@XZ 10028a40 f i libcpmt:xthrow.obj
 0001:00027a55       ??_Gbad_function_call@std@@UAEPAXI@Z 10028a55 f i libcpmt:xthrow.obj
 0001:00027a55       ??_Ebad_function_call@std@@UAEPAXI@Z 10028a55 f i libcpmt:xthrow.obj
 0001:00027a8d       ??_Ginvalid_argument@std@@UAEPAXI@Z 10028a8d f i libcpmt:xthrow.obj
 0001:00027a8d       ??_Einvalid_argument@std@@UAEPAXI@Z 10028a8d f i libcpmt:xthrow.obj
 0001:00027ac5       ??_Elength_error@std@@UAEPAXI@Z 10028ac5 f i libcpmt:xthrow.obj
 0001:00027ac5       ??_Glength_error@std@@UAEPAXI@Z 10028ac5 f i libcpmt:xthrow.obj
 0001:00027afd       ??_Elogic_error@std@@UAEPAXI@Z 10028afd f i libcpmt:xthrow.obj
 0001:00027afd       ??_Glogic_error@std@@UAEPAXI@Z 10028afd f i libcpmt:xthrow.obj
 0001:00027b35       ??_Eout_of_range@std@@UAEPAXI@Z 10028b35 f i libcpmt:xthrow.obj
 0001:00027b35       ??_Gout_of_range@std@@UAEPAXI@Z 10028b35 f i libcpmt:xthrow.obj
 0001:00027b6d       ??_Eoverflow_error@std@@UAEPAXI@Z 10028b6d f i libcpmt:xthrow.obj
 0001:00027b6d       ??_Goverflow_error@std@@UAEPAXI@Z 10028b6d f i libcpmt:xthrow.obj
 0001:00027ba5       ??_Gregex_error@std@@UAEPAXI@Z 10028ba5 f i libcpmt:xthrow.obj
 0001:00027ba5       ??_Eregex_error@std@@UAEPAXI@Z 10028ba5 f i libcpmt:xthrow.obj
 0001:00027bdd       ?_Stringify@regex_error@std@@CAPBDW4error_type@regex_constants@2@@Z 10028bdd f i libcpmt:xthrow.obj
 0001:00027ccd       ?_Xbad_alloc@std@@YAXXZ    10028ccd f   libcpmt:xthrow.obj
 0001:00027cf1       ?_Xbad_function_call@std@@YAXXZ 10028cf1 f   libcpmt:xthrow.obj
 0001:00027d15       ?_Xinvalid_argument@std@@YAXPBD@Z 10028d15 f   libcpmt:xthrow.obj
 0001:00027d3d       ?_Xlength_error@std@@YAXPBD@Z 10028d3d f   libcpmt:xthrow.obj
 0001:00027d65       ?_Xout_of_range@std@@YAXPBD@Z 10028d65 f   libcpmt:xthrow.obj
 0001:00027d8d       ?_Xoverflow_error@std@@YAXPBD@Z 10028d8d f   libcpmt:xthrow.obj
 0001:00027db5       ?_Xregex_error@std@@YAXW4error_type@regex_constants@1@@Z 10028db5 f   libcpmt:xthrow.obj
 0001:00027ddd       ?_Xruntime_error@std@@YAXPBD@Z 10028ddd f   libcpmt:xthrow.obj
 0001:00027e05       ?what@bad_function_call@std@@UBEPBDXZ 10028e05 f i libcpmt:xthrow.obj
 0001:00027e0b       ?uncaught_exception@std@@YA_NXZ 10028e0b f   libcpmt:uncaught_exception.obj
 0001:00027e10       ?_Syserror_map@std@@YAPBDH@Z 10028e10 f   libcpmt:syserror.obj
 0001:00027e3e       ?_Winerror_map@std@@YAHH@Z 10028e3e f   libcpmt:syserror.obj
 0001:00027e68       ?_Winerror_message@std@@YAKKPADK@Z 10028e68 f   libcpmt:syserror.obj
 0001:00027e98       ??0?$_Yarn@D@std@@QAE@PBD@Z 10028e98 f i libcpmt:locale0.obj
 0001:00027ebb       ??0_Fac_node@std@@QAE@PAU01@PAV_Facet_base@1@@Z 10028ebb f i libcpmt:locale0.obj
 0001:00027ed4       ??0_Facet_base@std@@QAE@XZ 10028ed4 f i libcpmt:locale0.obj
 0001:00027edf       ??0_Locimp@locale@std@@AAE@ABV012@@Z 10028edf f i libcpmt:locale0.obj
 0001:00027f63       ??0_Locimp@locale@std@@AAE@_N@Z 10028f63 f i libcpmt:locale0.obj
 0001:00027fb4       ??0facet@locale@std@@IAE@I@Z 10028fb4 f i libcpmt:locale0.obj
 0001:00027fd3       ??0id@locale@std@@QAE@I@Z  10028fd3 f i libcpmt:locale0.obj
 0001:00027fe4       ??0locale@std@@AAE@PAV_Locimp@01@@Z 10028fe4 f i libcpmt:locale0.obj
 0001:00027ff6       ??0locale@std@@QAE@W4_Uninitialized@1@@Z 10028ff6 f i libcpmt:locale0.obj
 0001:00027ffb       ??1_Fac_node@std@@QAE@XZ   10028ffb f i libcpmt:locale0.obj
 0001:00028038       ??1_Fac_tidy_reg_t@std@@QAE@XZ 10029038 f i libcpmt:locale0.obj
 0001:00028068       ??1_Locimp@locale@std@@MAE@XZ 10029068 f i libcpmt:locale0.obj
 0001:0002809d       ??2@YAPAXIPAX@Z            1002909d f i libcpmt:locale0.obj
 0001:000280a7       ??4?$_Yarn@D@std@@QAEAAV01@PBD@Z 100290a7 f i libcpmt:locale0.obj
 0001:00028110       ??_G_Fac_node@std@@QAEPAXI@Z 10029110 f i libcpmt:locale0.obj
 0001:0002813a       ??_G_Locimp@locale@std@@MAEPAXI@Z 1002913a f i libcpmt:locale0.obj
 0001:0002813a       ??_E_Locimp@locale@std@@MAEPAXI@Z 1002913a f i libcpmt:locale0.obj
 0001:00028164       ?_C_str@?$_Yarn@D@std@@QBEPBDXZ 10029164 f i libcpmt:locale0.obj
 0001:00028170       ?_Empty@?$_Yarn@D@std@@QBE_NXZ 10029170 f i libcpmt:locale0.obj
 0001:00028177       ?_Facet_Register@std@@YAXPAV_Facet_base@1@@Z 10029177 f   libcpmt:locale0.obj
 0001:000281ae       ?_Getgloballocale@locale@std@@CAPAV_Locimp@12@XZ 100291ae f   libcpmt:locale0.obj
 0001:000281b4       ?_Init@locale@std@@CAPAV_Locimp@12@_N@Z 100291b4 f   libcpmt:locale0.obj
 0001:00028268       ?_Locimp_dtor@_Locimp@locale@std@@CAXPAV123@@Z 10029268 f   libcpmt:locale0.obj
 0001:000282f4       ?_Locinfo_ctor@_Locinfo@std@@SAXPAV12@PBD@Z 100292f4 f   libcpmt:locale0.obj
 0001:00028351       ?_Locinfo_dtor@_Locinfo@std@@SAXPAV12@@Z 10029351 f   libcpmt:locale0.obj
 0001:00028371       ?_New_Locimp@_Locimp@locale@std@@CAPAV123@ABV123@@Z 10029371 f   libcpmt:locale0.obj
 0001:000283ad       ?_New_Locimp@_Locimp@locale@std@@CAPAV123@_N@Z 100293ad f   libcpmt:locale0.obj
 0001:000283d8       ?_Setgloballocale@locale@std@@CAXPAX@Z 100293d8 f   libcpmt:locale0.obj
 0001:0002840a       ?_Tidy@?$_Yarn@D@std@@AAEXXZ 1002940a f i libcpmt:locale0.obj
 0001:00028424       ?c_str@?$_Yarn@D@std@@QBEPBDXZ 10029424 f i libcpmt:locale0.obj
 0001:00028430       ?classic@locale@std@@SAABV12@XZ 10029430 f   libcpmt:locale0.obj
 0001:00028441       ?empty@locale@std@@SA?AV12@XZ 10029441 f   libcpmt:locale0.obj
 0001:00028465       __Deletegloballocale       10029465 f   libcpmt:locale0.obj
 0001:000284e2       __Getctype                 100294e2 f   libcpmt:_tolower.obj
 0001:00028567       __Tolower                  10029567 f   libcpmt:_tolower.obj
 0001:000286a4       __Getcvt                   100296a4 f   libcpmt:xwctomb.obj
 0001:00028733       __Wcrtomb                  10029733 f   libcpmt:xwctomb.obj
 0001:000287a6       ___Wcrtomb_lk              100297a6 f   libcpmt:xwctomb.obj
 0001:000287b1       __Toupper                  100297b1 f   libcpmt:_toupper.obj
 0001:000288ee       __Mtxdst                   100298ee f   libcpmt:xmtx.obj
 0001:000288ff       __Mtxinit                  100298ff f   libcpmt:xmtx.obj
 0001:00028919       __Mtxlock                  10029919 f   libcpmt:xmtx.obj
 0001:0002892a       __Mtxunlock                1002992a f   libcpmt:xmtx.obj
 0001:0002894c       ___std_get_string_size_without_trailing_whitespace@8 1002994c f   libcpmt:syserror_import_lib.obj
 0001:00028979       ___std_system_error_allocate_message@8 10029979 f   libcpmt:syserror_import_lib.obj
 0001:000289ac       ___std_system_error_deallocate_message@4 100299ac f   libcpmt:syserror_import_lib.obj
 0001:000289b2       ??$?0$$V@?$_Compressed_pair@V?$allocator@D@std@@V?$_String_val@U?$_Simple_types@D@std@@@2@$00@std@@QAE@U_Zero_then_variadic_args_t@1@@Z 100299b2 f i libcpmt:locale.obj
 0001:000289c4       ??$?0AAPAV_Facet_base@std@@@?$_Compressed_pair@U?$default_delete@V_Facet_base@std@@@std@@PAV_Facet_base@2@$00@std@@QAE@U_Zero_then_variadic_args_t@1@AAPAV_Facet_base@1@@Z 100299c4 f i libcpmt:locale.obj
 0001:000289d8       ??$?0U?$default_delete@V_Facet_base@std@@@std@@$0A@@?$unique_ptr@V_Facet_base@std@@U?$default_delete@V_Facet_base@std@@@2@@std@@QAE@PAV_Facet_base@1@@Z 100299d8 f i libcpmt:locale.obj
 0001:000289e9       ??$?0U?$integral_constant@_N$00@std@@@_Unused_parameter@std@@QAE@$$QAU?$integral_constant@_N$00@1@@Z 100299e9 f i libcpmt:locale.obj
 0001:000289ee       ??$?8DU?$char_traits@D@std@@@std@@YA_NABV?$istreambuf_iterator@DU?$char_traits@D@std@@@0@0@Z 100299ee f i libcpmt:locale.obj
 0001:00028a02       ??$_Adl_verify_range@PADPBD@std@@YAXABQADABQBD@Z 10029a02 f i libcpmt:locale.obj
 0001:00028a05       ??$_Adl_verify_range@PBDPBD@std@@YAXABQBD0@Z 10029a05 f i libcpmt:locale.obj
 0001:00028a08       ??$_Adl_verify_range@V?$istreambuf_iterator@DU?$char_traits@D@std@@@std@@V12@@std@@YAXABV?$istreambuf_iterator@DU?$char_traits@D@std@@@0@0@Z 10029a08 f i libcpmt:locale.obj
 0001:00028a0b       ??$_Allocate@$07U_Default_allocate_traits@std@@$0A@@std@@YAPAXI@Z 10029a0b f i libcpmt:locale.obj
 0001:00028a3a       ??$_Construct_in_place@PADAAPAD@std@@YAXAAPAD0@Z 10029a3a f i libcpmt:locale.obj
 0001:00028a4c       ??$_Construct_in_place@PADABQAD@std@@YAXAAPADABQAD@Z 10029a4c f i libcpmt:locale.obj
 0001:00028a5e       ??$_Convert_size@I@std@@YAII@Z 10029a5e f i libcpmt:locale.obj
 0001:00028a68       ??$_Deallocate@$07$0A@@std@@YAXPAXI@Z 10029a68 f i libcpmt:locale.obj
 0001:00028a9f       ??$_Destroy_in_place@PAD@std@@YAXAAPAD@Z 10029a9f f i libcpmt:locale.obj
 0001:00028aa2       ??$_Find_elem@D$0BL@@std@@YAIAAY0BL@$$CBDD@Z 10029aa2 f i libcpmt:locale.obj
 0001:00028ad0       ??$_Find_elem@D$0BN@@std@@YAIAAY0BN@$$CBDD@Z 10029ad0 f i libcpmt:locale.obj
 0001:00028afe       ??$_Find_elem@D$0P@@std@@YAIAAY0P@$$CBDD@Z 10029afe f i libcpmt:locale.obj
 0001:00028b2c       ??$_Find_unchecked1@PBDD@std@@YAPBDPBDQBDABDU?$integral_constant@_N$00@0@@Z 10029b2c f i libcpmt:locale.obj
 0001:00028b5a       ??$_Find_unchecked1@PBDD@std@@YAPBDPBDQBDABDU?$integral_constant@_N$0A@@0@@Z 10029b5a f i libcpmt:locale.obj
 0001:00028b7f       ??$_Find_unchecked@PBDD@std@@YAPBDQBD0ABD@Z 10029b7f f i libcpmt:locale.obj
 0001:00028ba4       ??$_Get_size_of_n@$00@std@@YAII@Z 10029ba4 f i libcpmt:locale.obj
 0001:00028bae       ??$_Getloctxt@V?$istreambuf_iterator@DU?$char_traits@D@std@@@std@@D@std@@YAHAAV?$istreambuf_iterator@DU?$char_traits@D@std@@@0@0IPBDW4_Case_sensitive@0@@Z 10029bae f i libcpmt:locale.obj
 0001:00028e40       ??$_Getvals@D@?$numpunct@D@std@@IAEXDPBUlconv@@U_Cvtvec@@@Z 10029e40 f i libcpmt:locale.obj
 0001:00028e5f       ??$_Pocma@V?$allocator@D@std@@@std@@YAXAAV?$allocator@D@0@0@Z 10029e5f f i libcpmt:locale.obj
 0001:00028e62       ??$_Reallocate_for@V<lambda_1>@?1??assign@?$basic_string@DU?$char_traits@D@std@@V?$allocator@D@2@@std@@QAEAAV34@ID@Z@D@?$basic_string@DU?$char_traits@D@std@@V?$allocator@D@2@@std@@AAEAAV01@IV<lambda_1>@?1??assign@01@QAEAAV01@ID@Z@D@Z 10029e62 f i libcpmt:locale.obj
 0001:00028ef0       ??$_Reallocate_for@V<lambda_1>@?1??assign@?$basic_string@DU?$char_traits@D@std@@V?$allocator@D@2@@std@@QAEAAV34@QBDI@Z@PBD@?$basic_string@DU?$char_traits@D@std@@V?$allocator@D@2@@std@@AAEAAV01@IV<lambda_1>@?1??assign@01@QAEAAV01@QBDI@Z@PBD@Z 10029ef0 f i libcpmt:locale.obj
 0001:00028f7c       ??$_Reallocate_grow_by@V<lambda_1>@?1??append@?$basic_string@DU?$char_traits@D@std@@V?$allocator@D@2@@std@@QAEAAV34@ID@Z@ID@?$basic_string@DU?$char_traits@D@std@@V?$allocator@D@2@@std@@AAEAAV01@IV<lambda_1>@?1??append@01@QAEAAV01@ID@Z@ID@Z 10029f7c f i libcpmt:locale.obj
 0001:0002906e       ??$_Reallocate_grow_by@V<lambda_1>@?1??append@?$basic_string@DU?$char_traits@D@std@@V?$allocator@D@2@@std@@QAEAAV34@QBDI@Z@PBDI@?$basic_string@DU?$char_traits@D@std@@V?$allocator@D@2@@std@@AAEAAV01@IV<lambda_1>@?1??append@01@QAEAAV01@QBDI@Z@PBDI@Z 1002a06e f i libcpmt:locale.obj
 0001:00029157       ??$_Reallocate_grow_by@V<lambda_1>@?1??insert@?$basic_string@DU?$char_traits@D@std@@V?$allocator@D@2@@std@@QAEAAV34@IID@Z@IID@?$basic_string@DU?$char_traits@D@std@@V?$allocator@D@2@@std@@AAEAAV01@IV<lambda_1>@?1??insert@01@QAEAAV01@IID@Z@IID@Z 1002a157 f i libcpmt:locale.obj
 0001:0002920d       ??$_Reallocate_grow_by@V<lambda_1>@?1??push_back@?$basic_string@DU?$char_traits@D@std@@V?$allocator@D@2@@std@@QAEXD@Z@D@?$basic_string@DU?$char_traits@D@std@@V?$allocator@D@2@@std@@AAEAAV01@IV<lambda_1>@?1??push_back@01@QAEXD@Z@D@Z 1002a20d f i libcpmt:locale.obj
 0001:000292d6       ??$_To_address@PBD@std@@YA?A_PABQBD@Z 1002a2d6 f i libcpmt:locale.obj
 0001:000292e2       ??$_Unfancy@D@std@@YAPADPAD@Z 1002a2e2 f i libcpmt:locale.obj
 0001:000292ec       ??$_Voidify_iter@PAD@std@@YAPAXPAD@Z 1002a2ec f i libcpmt:locale.obj
 0001:000292f6       ??$_Voidify_iter@PAPAD@std@@YAPAXPAPAD@Z 1002a2f6 f i libcpmt:locale.obj
 0001:00029300       ??$_Within_limits@D@std@@YA_NABDU?$integral_constant@_N$00@0@1U_Unused_parameter@0@U?$integral_constant@_N$0A@@0@@Z 1002a300 f i libcpmt:locale.obj
 0001:00029303       ??$_Within_limits@PBDD@std@@YA_NABQBDABD@Z 1002a303 f i libcpmt:locale.obj
 0001:00029306       ??$addressof@$$CBV?$_String_val@U?$_Simple_types@D@std@@@std@@@std@@YAPBV?$_String_val@U?$_Simple_types@D@std@@@0@ABV10@@Z 1002a306 f i libcpmt:locale.obj
 0001:00029310       ??$addressof@PAD@std@@YAPAPADAAPAD@Z 1002a310 f i libcpmt:locale.obj
 0001:0002931a       ??$addressof@V?$_String_val@U?$_Simple_types@D@std@@@std@@@std@@YAPAV?$_String_val@U?$_Simple_types@D@std@@@0@AAV10@@Z 1002a31a f i libcpmt:locale.obj
 0001:00029324       ??$addressof@V?$basic_string@DU?$char_traits@D@std@@V?$allocator@D@2@@std@@@std@@YAPAV?$basic_string@DU?$char_traits@D@std@@V?$allocator@D@2@@0@AAV10@@Z 1002a324 f i libcpmt:locale.obj
 0001:0002932e       ??$begin@$$CBD$0BL@@std@@YAPBDAAY0BL@$$CBD@Z 1002a32e f i libcpmt:locale.obj
 0001:00029338       ??$begin@$$CBD$0BN@@std@@YAPBDAAY0BN@$$CBD@Z 1002a338 f i libcpmt:locale.obj
 0001:00029342       ??$begin@$$CBD$0P@@std@@YAPBDAAY0P@$$CBD@Z 1002a342 f i libcpmt:locale.obj
 0001:0002934c       ??$construct_at@DABDX@std@@YAPADQADABD@Z 1002a34c f i libcpmt:locale.obj
 0001:0002935e       ??$construct_at@PADAAPADX@std@@YAPAPADQAPADAAPAD@Z 1002a35e f i libcpmt:locale.obj
 0001:00029370       ??$construct_at@PADABQADX@std@@YAPAPADQAPADABQAD@Z 1002a370 f i libcpmt:locale.obj
 0001:00029382       ??$end@$$CBD$0BL@@std@@YAPBDAAY0BL@$$CBD@Z 1002a382 f i libcpmt:locale.obj
 0001:0002938f       ??$end@$$CBD$0BN@@std@@YAPBDAAY0BN@$$CBD@Z 1002a38f f i libcpmt:locale.obj
 0001:0002939c       ??$end@$$CBD$0P@@std@@YAPBDAAY0P@$$CBD@Z 1002a39c f i libcpmt:locale.obj
 0001:000293a9       ??$exchange@PAV_Facet_base@std@@$$T@std@@YAPAV_Facet_base@0@AAPAV10@$$QA$$T@Z 1002a3a9 f i libcpmt:locale.obj
 0001:000293be       ??$forward@AAPAD@std@@YAAAPADAAPAD@Z 1002a3be f i libcpmt:locale.obj
 0001:000293c8       ??$forward@AAPAV_Facet_base@std@@@std@@YAAAPAV_Facet_base@0@AAPAV10@@Z 1002a3c8 f i libcpmt:locale.obj
 0001:000293d2       ??$forward@ABD@std@@YAABDABD@Z 1002a3d2 f i libcpmt:locale.obj
 0001:000293dc       ??$forward@ABQAD@std@@YAABQADABQAD@Z 1002a3dc f i libcpmt:locale.obj
 0001:000293e6       ??$max@I@std@@YAABIABI0@Z  1002a3e6 f i libcpmt:locale.obj
 0001:00029400       ??$min@H@std@@YAABHABH0@Z  1002a400 f i libcpmt:locale.obj
 0001:0002941a       ??$min@I@std@@YAABIABI0@Z  1002a41a f i libcpmt:locale.obj
 0001:00029434       ??$move@AAV?$allocator@D@std@@@std@@YA$$QAV?$allocator@D@0@AAV10@@Z 1002a434 f i libcpmt:locale.obj
 0001:0002943e       ??$move@AAV?$basic_string@DU?$char_traits@D@std@@V?$allocator@D@2@@std@@@std@@YA$$QAV?$basic_string@DU?$char_traits@D@std@@V?$allocator@D@2@@0@AAV10@@Z 1002a43e f i libcpmt:locale.obj
 0001:00029448       ??$to_address@$$CBD@std@@YAPBDQBD@Z 1002a448 f i libcpmt:locale.obj
 0001:00029452       ??$use_facet@V?$codecvt@DDU_Mbstatet@@@std@@@std@@YAABV?$codecvt@DDU_Mbstatet@@@0@ABVlocale@0@@Z 1002a452 f i libcpmt:locale.obj
 0001:0002950c       ??$use_facet@V?$num_get@DV?$istreambuf_iterator@DU?$char_traits@D@std@@@std@@@std@@@std@@YAABV?$num_get@DV?$istreambuf_iterator@DU?$char_traits@D@std@@@std@@@0@ABVlocale@0@@Z 1002a50c f i libcpmt:locale.obj
 0001:000295c6       ??0?$_String_val@U?$_Simple_types@D@std@@@std@@QAE@XZ 1002a5c6 f i libcpmt:locale.obj
 0001:000295d6       ??0?$_Yarn@D@std@@QAE@XZ   1002a5d6 f i libcpmt:locale.obj
 0001:000295e2       ??0?$_Yarn@_W@std@@QAE@XZ  1002a5e2 f i libcpmt:locale.obj
 0001:000295f1       ??0?$allocator@D@std@@QAE@XZ 1002a5f1 f i libcpmt:locale.obj
 0001:000295f4       ??0?$basic_string@DU?$char_traits@D@std@@V?$allocator@D@2@@std@@QAE@QBD@Z 1002a5f4 f i libcpmt:locale.obj
 0001:00029638       ??0?$basic_string@DU?$char_traits@D@std@@V?$allocator@D@2@@std@@QAE@XZ 1002a638 f i libcpmt:locale.obj
 0001:0002968d       ??0?$codecvt@DDU_Mbstatet@@@std@@QAE@ABV_Locinfo@1@I@Z 1002a68d f i libcpmt:locale.obj
 0001:000296ac       ??0?$ctype@D@std@@QAE@ABV_Locinfo@1@I@Z 1002a6ac f i libcpmt:locale.obj
 0001:000296ef       ??0?$num_get@DV?$istreambuf_iterator@DU?$char_traits@D@std@@@std@@@std@@QAE@ABV_Locinfo@1@I@Z 1002a6ef f i libcpmt:locale.obj
 0001:0002970e       ??0?$num_put@DV?$ostreambuf_iterator@DU?$char_traits@D@std@@@std@@@std@@QAE@ABV_Locinfo@1@I@Z 1002a70e f i libcpmt:locale.obj
 0001:0002972d       ??0?$numpunct@D@std@@QAE@ABV_Locinfo@1@I_N@Z 1002a72d f i libcpmt:locale.obj
 0001:00029770       ??0_Bxty@?$_String_val@U?$_Simple_types@D@std@@@std@@QAE@XZ 1002a770 f i libcpmt:locale.obj
 0001:00029776       ??0_Fake_proxy_ptr_impl@std@@QAE@ABU_Fake_allocator@1@ABU_Container_base0@1@@Z 1002a776 f i libcpmt:locale.obj
 0001:0002977b       ??0bad_cast@std@@QAE@XZ    1002a77b f i libcpmt:locale.obj
 0001:00029799       ??0codecvt_base@std@@QAE@I@Z 1002a799 f i libcpmt:locale.obj
 0001:000297b8       ??0ctype_base@std@@QAE@I@Z 1002a7b8 f i libcpmt:locale.obj
 0001:000297d7       ??0locale@std@@QAE@ABV01@@Z 1002a7d7 f i libcpmt:locale.obj
 0001:0002980c       ??0locale@std@@QAE@XZ      1002a80c f i libcpmt:locale.obj
 0001:00029862       ??1?$_Compressed_pair@V?$allocator@D@std@@V?$_String_val@U?$_Simple_types@D@std@@@2@$00@std@@QAE@XZ 1002a862 f i libcpmt:locale.obj
 0001:00029865       ??1?$_String_val@U?$_Simple_types@D@std@@@std@@QAE@XZ 1002a865 f i libcpmt:locale.obj
 0001:00029868       ??1?$codecvt@DDU_Mbstatet@@@std@@MAE@XZ 1002a868 f i libcpmt:locale.obj
 0001:0002986f       ??1?$num_get@DV?$istreambuf_iterator@DU?$char_traits@D@std@@@std@@@std@@MAE@XZ 1002a86f f i libcpmt:locale.obj
 0001:00029876       ??1_Bxty@?$_String_val@U?$_Simple_types@D@std@@@std@@QAE@XZ 1002a876 f i libcpmt:locale.obj
 0001:00029879       ??1codecvt_base@std@@UAE@XZ 1002a879 f i libcpmt:locale.obj
 0001:00029880       ??1ctype_base@std@@UAE@XZ  1002a880 f i libcpmt:locale.obj
 0001:00029887       ??4?$basic_string@DU?$char_traits@D@std@@V?$allocator@D@2@@std@@QAEAAV01@$$QAV01@@Z 1002a887 f i libcpmt:locale.obj
 0001:000298b1       ??4?$ostreambuf_iterator@DU?$char_traits@D@std@@@std@@QAEAAV01@D@Z 1002a8b1 f i libcpmt:locale.obj
 0001:000298de       ??A?$basic_string@DU?$char_traits@D@std@@V?$allocator@D@2@@std@@QAEAADI@Z 1002a8de f i libcpmt:locale.obj
 0001:000298f7       ??A?$basic_string@DU?$char_traits@D@std@@V?$allocator@D@2@@std@@QBEABDI@Z 1002a8f7 f i libcpmt:locale.obj
 0001:00029910       ??Bid@locale@std@@QAEIXZ   1002a910 f i libcpmt:locale.obj
 0001:00029952       ??D?$istreambuf_iterator@DU?$char_traits@D@std@@@std@@QBEDXZ 1002a952 f i libcpmt:locale.obj
 0001:00029969       ??D?$ostreambuf_iterator@DU?$char_traits@D@std@@@std@@QAEAAV01@XZ 1002a969 f i libcpmt:locale.obj
 0001:0002996c       ??E?$istreambuf_iterator@DU?$char_traits@D@std@@@std@@QAEAAV01@XZ 1002a96c f i libcpmt:locale.obj
 0001:0002997b       ??E?$ostreambuf_iterator@DU?$char_traits@D@std@@@std@@QAEAAV01@XZ 1002a97b f i libcpmt:locale.obj
 0001:0002997e       ??R<lambda_1>@?1??append@?$basic_string@DU?$char_traits@D@std@@V?$allocator@D@2@@std@@QAEAAV23@ID@Z@QBE@QADQBDIID@Z 1002a97e f i libcpmt:locale.obj
 0001:000299bd       ??R<lambda_1>@?1??append@?$basic_string@DU?$char_traits@D@std@@V?$allocator@D@2@@std@@QAEAAV23@QBDI@Z@QBE@QAD0I0I@Z 1002a9bd f i libcpmt:locale.obj
 0001:000299fa       ??R<lambda_1>@?1??assign@?$basic_string@DU?$char_traits@D@std@@V?$allocator@D@2@@std@@QAEAAV23@ID@Z@QBE@QADID@Z 1002a9fa f i libcpmt:locale.obj
 0001:00029a27       ??R<lambda_1>@?1??assign@?$basic_string@DU?$char_traits@D@std@@V?$allocator@D@2@@std@@QAEAAV23@QBDI@Z@QBE@QADI0@Z 1002aa27 f i libcpmt:locale.obj
 0001:00029a51       ??R<lambda_1>@?1??insert@?$basic_string@DU?$char_traits@D@std@@V?$allocator@D@2@@std@@QAEAAV23@IID@Z@QBE@QADQBDIIID@Z 1002aa51 f i libcpmt:locale.obj
 0001:00029aac       ??R<lambda_1>@?1??push_back@?$basic_string@DU?$char_traits@D@std@@V?$allocator@D@2@@std@@QAEXD@Z@QBE@QADQBDID@Z 1002aaac f i libcpmt:locale.obj
 0001:00029adf       ??R?$default_delete@V_Facet_base@std@@@std@@QBEXPAV_Facet_base@1@@Z 1002aadf f i libcpmt:locale.obj
 0001:00029b0c       ??Y?$basic_string@DU?$char_traits@D@std@@V?$allocator@D@2@@std@@QAEAAV01@ABV01@@Z 1002ab0c f i libcpmt:locale.obj
 0001:00029b17       ??_G?$codecvt@DDU_Mbstatet@@@std@@MAEPAXI@Z 1002ab17 f i libcpmt:locale.obj
 0001:00029b17       ??_E?$codecvt@DDU_Mbstatet@@@std@@MAEPAXI@Z 1002ab17 f i libcpmt:locale.obj
 0001:00029b42       ??_G?$num_get@DV?$istreambuf_iterator@DU?$char_traits@D@std@@@std@@@std@@MAEPAXI@Z 1002ab42 f i libcpmt:locale.obj
 0001:00029b42       ??_E?$num_get@DV?$istreambuf_iterator@DU?$char_traits@D@std@@@std@@@std@@MAEPAXI@Z 1002ab42 f i libcpmt:locale.obj
 0001:00029b6d       ??_Gcodecvt_base@std@@UAEPAXI@Z 1002ab6d f i libcpmt:locale.obj
 0001:00029b6d       ??_Ecodecvt_base@std@@UAEPAXI@Z 1002ab6d f i libcpmt:locale.obj
 0001:00029b98       ?_Addfac@_Locimp@locale@std@@AAEXPAVfacet@23@I@Z 1002ab98 f i libcpmt:locale.obj
 0001:00029bb3       ?_Adjust_manually_vector_aligned@std@@YAXAAPAXAAI@Z 1002abb3 f i libcpmt:locale.obj
 0001:00029be0       ?_Alloc_proxy@_Container_base0@std@@QAEXABU_Fake_allocator@2@@Z 1002abe0 f i libcpmt:locale.obj
 0001:00029be3       ?_Allocate@_Default_allocate_traits@std@@SAPAXI@Z 1002abe3 f i libcpmt:locale.obj
 0001:00029bee       ?_Calculate_growth@?$basic_string@DU?$char_traits@D@std@@V?$allocator@D@2@@std@@ABEII@Z 1002abee f i libcpmt:locale.obj
 0001:00029c0e       ?_Calculate_growth@?$basic_string@DU?$char_traits@D@std@@V?$allocator@D@2@@std@@CAIIII@Z 1002ac0e f i libcpmt:locale.obj
 0001:00029c4a       ?_Check_offset@?$_String_val@U?$_Simple_types@D@std@@@std@@QBEXI@Z 1002ac4a f i libcpmt:locale.obj
 0001:00029c64       ?_Eos@?$basic_string@DU?$char_traits@D@std@@V?$allocator@D@2@@std@@AAEXI@Z 1002ac64 f i libcpmt:locale.obj
 0001:00029c85       ?_Get_first@?$_Compressed_pair@U?$default_delete@V_Facet_base@std@@@std@@PAV_Facet_base@2@$00@std@@QAEAAU?$default_delete@V_Facet_base@std@@@2@XZ 1002ac85 f i libcpmt:locale.obj
 0001:00029c88       ?_Get_first@?$_Compressed_pair@V?$allocator@D@std@@V?$_String_val@U?$_Simple_types@D@std@@@2@$00@std@@QAEAAV?$allocator@D@2@XZ 1002ac88 f i libcpmt:locale.obj
 0001:00029c8b       ?_Get_first@?$_Compressed_pair@V?$allocator@D@std@@V?$_String_val@U?$_Simple_types@D@std@@@2@$00@std@@QBEABV?$allocator@D@2@XZ 1002ac8b f i libcpmt:locale.obj
 0001:00029c8e       ?_Getal@?$basic_string@DU?$char_traits@D@std@@V?$allocator@D@2@@std@@AAEAAV?$allocator@D@2@XZ 1002ac8e f i libcpmt:locale.obj
 0001:00029c91       ?_Getal@?$basic_string@DU?$char_traits@D@std@@V?$allocator@D@2@@std@@ABEABV?$allocator@D@2@XZ 1002ac91 f i libcpmt:locale.obj
 0001:00029c94       ?_Getcat@?$codecvt@DDU_Mbstatet@@@std@@SAIPAPBVfacet@locale@2@PBV42@@Z 1002ac94 f i libcpmt:locale.obj
 0001:00029d16       ?_Getcat@?$ctype@D@std@@SAIPAPBVfacet@locale@2@PBV42@@Z 1002ad16 f i libcpmt:locale.obj
 0001:00029d95       ?_Getcat@?$num_get@DV?$istreambuf_iterator@DU?$char_traits@D@std@@@std@@@std@@SAIPAPBVfacet@locale@2@PBV42@@Z 1002ad95 f i libcpmt:locale.obj
 0001:00029e17       ?_Getcat@?$num_put@DV?$ostreambuf_iterator@DU?$char_traits@D@std@@@std@@@std@@SAIPAPBVfacet@locale@2@PBV42@@Z 1002ae17 f i libcpmt:locale.obj
 0001:00029e99       ?_Getcat@?$numpunct@D@std@@SAIPAPBVfacet@locale@2@PBV42@@Z 1002ae99 f i libcpmt:locale.obj
 0001:00029f32       ?_Getctype@_Locinfo@std@@QBE?AU_Ctypevec@@XZ 1002af32 f i libcpmt:locale.obj
 0001:00029f5d       ?_Getcvt@_Locinfo@std@@QBE?AU_Cvtvec@@XZ 1002af5d f i libcpmt:locale.obj
 0001:00029f8a       ?_Getfacet@locale@std@@QBEPBVfacet@12@I@Z 1002af8a f i libcpmt:locale.obj
 0001:00029fd5       ?_Getfalse@_Locinfo@std@@QBEPBDXZ 1002afd5 f i libcpmt:locale.obj
 0001:00029fdb       ?_Getffld@?$num_get@DV?$istreambuf_iterator@DU?$char_traits@D@std@@@std@@@std@@ABAHPADAAV?$istreambuf_iterator@DU?$char_traits@D@std@@@2@1AAVios_base@2@PAH@Z 1002afdb f i libcpmt:locale.obj
 0001:0002a82d       ?_Getffldx@?$num_get@DV?$istreambuf_iterator@DU?$char_traits@D@std@@@std@@@std@@ABAHPADAAV?$istreambuf_iterator@DU?$char_traits@D@std@@@2@1AAVios_base@2@PAH@Z 1002b82d f i libcpmt:locale.obj
 0001:0002b09e       ?_Getifld@?$num_get@DV?$istreambuf_iterator@DU?$char_traits@D@std@@@std@@@std@@ABAHPADAAV?$istreambuf_iterator@DU?$char_traits@D@std@@@2@1HABVlocale@2@@Z 1002c09e f i libcpmt:locale.obj
 0001:0002b4f7       ?_Getlconv@_Locinfo@std@@QBEPBUlconv@@XZ 1002c4f7 f i libcpmt:locale.obj
 0001:0002b4fc       ?_Getname@_Locinfo@std@@QBEPBDXZ 1002c4fc f i libcpmt:locale.obj
 0001:0002b509       ?_Gettrue@_Locinfo@std@@QBEPBDXZ 1002c509 f i libcpmt:locale.obj
 0001:0002b50f       ?_Gnavail@?$basic_streambuf@DU?$char_traits@D@std@@@std@@IBE_JXZ 1002c50f f i libcpmt:locale.obj
 0001:0002b525       ?_Gninc@?$basic_streambuf@DU?$char_traits@D@std@@@std@@IAEPADXZ 1002c525 f i libcpmt:locale.obj
 0001:0002b539       ?_Ifmt@?$num_put@DV?$ostreambuf_iterator@DU?$char_traits@D@std@@@std@@@std@@ABAPADPADPBDH@Z 1002c539 f i libcpmt:locale.obj
 0001:0002b5cb       ?_Inc@?$istreambuf_iterator@DU?$char_traits@D@std@@@std@@AAEXXZ 1002c5cb f i libcpmt:locale.obj
 0001:0002b5f4       ?_Init@?$codecvt@DDU_Mbstatet@@@std@@IAEXABV_Locinfo@2@@Z 1002c5f4 f i libcpmt:locale.obj
 0001:0002b5f7       ?_Init@?$ctype@D@std@@IAEXABV_Locinfo@2@@Z 1002c5f7 f i libcpmt:locale.obj
 0001:0002b622       ?_Init@?$num_get@DV?$istreambuf_iterator@DU?$char_traits@D@std@@@std@@@std@@IAEXABV_Locinfo@2@@Z 1002c622 f i libcpmt:locale.obj
 0001:0002b625       ?_Init@?$num_put@DV?$ostreambuf_iterator@DU?$char_traits@D@std@@@std@@@std@@IAEXABV_Locinfo@2@@Z 1002c625 f i libcpmt:locale.obj
 0001:0002b628       ?_Init@?$numpunct@D@std@@IAEXABV_Locinfo@2@_N@Z 1002c628 f i libcpmt:locale.obj
 0001:0002b6f5       ?_Large_string_engaged@?$_String_val@U?$_Simple_types@D@std@@@std@@QBE_NXZ 1002c6f5 f i libcpmt:locale.obj
 0001:0002b700       ?_Locimp_Addfac@_Locimp@locale@std@@CAXPAV123@PAVfacet@23@I@Z 1002c700 f   libcpmt:locale.obj
 0001:0002b7f7       ?_Locimp_ctor@_Locimp@locale@std@@CAXPAV123@ABV123@@Z 1002c7f7 f   libcpmt:locale.obj
 0001:0002b8db       ?_Locinfo_Addcats@_Locinfo@std@@SAAAV12@PAV12@HPBD@Z 1002c8db f   libcpmt:locale.obj
 0001:0002b9a9       ?_Locinfo_ctor@_Locinfo@std@@SAXPAV12@HPBD@Z 1002c9a9 f   libcpmt:locale.obj
 0001:0002b9ec       ?_Makeloc@_Locimp@locale@std@@CAPAV123@ABV_Locinfo@3@HPAV123@PBV23@@Z 1002c9ec f   libcpmt:locale.obj
 0001:0002bc8b       ?_Memcpy_val_from@?$basic_string@DU?$char_traits@D@std@@V?$allocator@D@2@@std@@AAEXABV12@@Z 1002cc8b f i libcpmt:locale.obj
 0001:0002bca5       ?_Move_assign@?$basic_string@DU?$char_traits@D@std@@V?$allocator@D@2@@std@@AAEXAAV12@U_Equal_allocators@2@@Z 1002cca5 f i libcpmt:locale.obj
 0001:0002bd14       ?_Myptr@?$_String_val@U?$_Simple_types@D@std@@@std@@QAEPADXZ 1002cd14 f i libcpmt:locale.obj
 0001:0002bd21       ?_Myptr@?$_String_val@U?$_Simple_types@D@std@@@std@@QBEPBDXZ 1002cd21 f i libcpmt:locale.obj
 0001:0002bd2e       ?_Orphan_all@_Container_base0@std@@QAEXXZ 1002cd2e f i libcpmt:locale.obj
 0001:0002bd31       ?_Peek@?$istreambuf_iterator@DU?$char_traits@D@std@@@std@@ABEDXZ 1002cd31 f i libcpmt:locale.obj
 0001:0002bd5e       ?_Pnavail@?$basic_streambuf@DU?$char_traits@D@std@@@std@@IBE_JXZ 1002cd5e f i libcpmt:locale.obj
 0001:0002bd74       ?_Pninc@?$basic_streambuf@DU?$char_traits@D@std@@@std@@IAEPADXZ 1002cd74 f i libcpmt:locale.obj
 0001:0002bd88       ?_Release@_Fake_proxy_ptr_impl@std@@QAEXXZ 1002cd88 f i libcpmt:locale.obj
 0001:0002bd8b       ?_Stodx_v2@std@@YANPBDPAPADHPAH@Z 1002cd8b f i libcpmt:locale.obj
 0001:0002bdf0       ?_Stofx_v2@std@@YAMPBDPAPADHPAH@Z 1002cdf0 f i libcpmt:locale.obj
 0001:0002be5f       ?_Swap_proxy_and_iterators@?$basic_string@DU?$char_traits@D@std@@V?$allocator@D@2@@std@@AAEXAAV12@@Z 1002ce5f f i libcpmt:locale.obj
 0001:0002be62       ?_Swap_proxy_and_iterators@_Container_base0@std@@QAEXAAU12@@Z 1002ce62 f i libcpmt:locale.obj
 0001:0002be65       ?_Take_contents@?$basic_string@DU?$char_traits@D@std@@V?$allocator@D@2@@std@@AAEXAAV12@@Z 1002ce65 f i libcpmt:locale.obj
 0001:0002bece       ?_Throw_bad_cast@std@@YAXXZ 1002cece f i libcpmt:locale.obj
 0001:0002bef2       ?_Tidy@?$_Yarn@_W@std@@AAEXXZ 1002cef2 f i libcpmt:locale.obj
 0001:0002bf0c       ?_Tidy@?$ctype@D@std@@IAEXXZ 1002cf0c f i libcpmt:locale.obj
 0001:0002bf40       ?_Tidy@?$numpunct@D@std@@AAEXXZ 1002cf40 f i libcpmt:locale.obj
 0001:0002bf68       ?_Tidy_deallocate@?$basic_string@DU?$char_traits@D@std@@V?$allocator@D@2@@std@@AAEXXZ 1002cf68 f i libcpmt:locale.obj
 0001:0002bf97       ?_Tidy_init@?$basic_string@DU?$char_traits@D@std@@V?$allocator@D@2@@std@@AAEXXZ 1002cf97 f i libcpmt:locale.obj
 0001:0002bfe9       ?append@?$basic_string@DU?$char_traits@D@std@@V?$allocator@D@2@@std@@QAEAAV12@ABV12@@Z 1002cfe9 f i libcpmt:locale.obj
 0001:0002c00c       ?append@?$basic_string@DU?$char_traits@D@std@@V?$allocator@D@2@@std@@QAEAAV12@ID@Z 1002d00c f i libcpmt:locale.obj
 0001:0002c07a       ?assign@?$_Char_traits@DH@std@@SAPADQADID@Z 1002d07a f i libcpmt:locale.obj
 0001:0002c0a0       ?assign@?$_Narrow_char_traits@DH@std@@SAPADQADID@Z 1002d0a0 f i libcpmt:locale.obj
 0001:0002c0be       ?assign@?$_Narrow_char_traits@DH@std@@SAXAADABD@Z 1002d0be f i libcpmt:locale.obj
 0001:0002c0d0       ?assign@?$basic_string@DU?$char_traits@D@std@@V?$allocator@D@2@@std@@QAEAAV12@$$QAV12@@Z 1002d0d0 f i libcpmt:locale.obj
 0001:0002c0ea       ?assign@?$basic_string@DU?$char_traits@D@std@@V?$allocator@D@2@@std@@QAEAAV12@ID@Z 1002d0ea f i libcpmt:locale.obj
 0001:0002c144       ?assign@?$basic_string@DU?$char_traits@D@std@@V?$allocator@D@2@@std@@QAEAAV12@QBD@Z 1002d144 f i libcpmt:locale.obj
 0001:0002c16d       ?c_str@?$basic_string@DU?$char_traits@D@std@@V?$allocator@D@2@@std@@QBEPBDXZ 1002d16d f i libcpmt:locale.obj
 0001:0002c17a       ?c_str@locale@std@@QBEPBDXZ 1002d17a f i libcpmt:locale.obj
 0001:0002c198       ?copy@?$_Char_traits@DH@std@@SAPADQADQBDI@Z 1002d198 f i libcpmt:locale.obj
 0001:0002c1b7       ?deallocate@?$allocator@D@std@@QAEXQADI@Z 1002d1b7 f i libcpmt:locale.obj
 0001:0002c1d0       ?decimal_point@?$numpunct@D@std@@QBEDXZ 1002d1d0 f i libcpmt:locale.obj
 0001:0002c1ee       ?do_always_noconv@?$codecvt@DDU_Mbstatet@@@std@@MBE_NXZ 1002d1ee f i libcpmt:locale.obj
 0001:0002c1f1       ?do_always_noconv@codecvt_base@std@@MBE_NXZ 1002d1f1 f i libcpmt:locale.obj
 0001:0002c1f4       ?do_encoding@codecvt_base@std@@MBEHXZ 1002d1f4 f i libcpmt:locale.obj
 0001:0002c1f8       ?do_get@?$num_get@DV?$istreambuf_iterator@DU?$char_traits@D@std@@@std@@@std@@MBE?AV?$istreambuf_iterator@DU?$char_traits@D@std@@@2@V32@0AAVios_base@2@AAHAAG@Z 1002d1f8 f i libcpmt:locale.obj
 0001:0002c321       ?do_get@?$num_get@DV?$istreambuf_iterator@DU?$char_traits@D@std@@@std@@@std@@MBE?AV?$istreambuf_iterator@DU?$char_traits@D@std@@@2@V32@0AAVios_base@2@AAHAAI@Z 1002d321 f i libcpmt:locale.obj
 0001:0002c371       ?do_get@?$num_get@DV?$istreambuf_iterator@DU?$char_traits@D@std@@@std@@@std@@MBE?AV?$istreambuf_iterator@DU?$char_traits@D@std@@@2@V32@0AAVios_base@2@AAHAAJ@Z 1002d371 f i libcpmt:locale.obj
 0001:0002c466       ?do_get@?$num_get@DV?$istreambuf_iterator@DU?$char_traits@D@std@@@std@@@std@@MBE?AV?$istreambuf_iterator@DU?$char_traits@D@std@@@2@V32@0AAVios_base@2@AAHAAK@Z 1002d466 f i libcpmt:locale.obj
 0001:0002c55b       ?do_get@?$num_get@DV?$istreambuf_iterator@DU?$char_traits@D@std@@@std@@@std@@MBE?AV?$istreambuf_iterator@DU?$char_traits@D@std@@@2@V32@0AAVios_base@2@AAHAAM@Z 1002d55b f i libcpmt:locale.obj
 0001:0002c694       ?do_get@?$num_get@DV?$istreambuf_iterator@DU?$char_traits@D@std@@@std@@@std@@MBE?AV?$istreambuf_iterator@DU?$char_traits@D@std@@@2@V32@0AAVios_base@2@AAHAAN@Z 1002d694 f i libcpmt:locale.obj
 0001:0002c7c1       ?do_get@?$num_get@DV?$istreambuf_iterator@DU?$char_traits@D@std@@@std@@@std@@MBE?AV?$istreambuf_iterator@DU?$char_traits@D@std@@@2@V32@0AAVios_base@2@AAHAAO@Z 1002d7c1 f i libcpmt:locale.obj
 0001:0002c80e       ?do_get@?$num_get@DV?$istreambuf_iterator@DU?$char_traits@D@std@@@std@@@std@@MBE?AV?$istreambuf_iterator@DU?$char_traits@D@std@@@2@V32@0AAVios_base@2@AAHAAPAX@Z 1002d80e f i libcpmt:locale.obj
 0001:0002c8f9       ?do_get@?$num_get@DV?$istreambuf_iterator@DU?$char_traits@D@std@@@std@@@std@@MBE?AV?$istreambuf_iterator@DU?$char_traits@D@std@@@2@V32@0AAVios_base@2@AAHAA_J@Z 1002d8f9 f i libcpmt:locale.obj
 0001:0002c9f6       ?do_get@?$num_get@DV?$istreambuf_iterator@DU?$char_traits@D@std@@@std@@@std@@MBE?AV?$istreambuf_iterator@DU?$char_traits@D@std@@@2@V32@0AAVios_base@2@AAHAA_K@Z 1002d9f6 f i libcpmt:locale.obj
 0001:0002caf3       ?do_get@?$num_get@DV?$istreambuf_iterator@DU?$char_traits@D@std@@@std@@@std@@MBE?AV?$istreambuf_iterator@DU?$char_traits@D@std@@@2@V32@0AAVios_base@2@AAHAA_N@Z 1002daf3 f i libcpmt:locale.obj
 0001:0002cdbe       ?do_in@?$codecvt@DDU_Mbstatet@@@std@@MBEHAAU_Mbstatet@@PBD1AAPBDPAD3AAPAD@Z 1002ddbe f i libcpmt:locale.obj
 0001:0002cdde       ?do_length@?$codecvt@DDU_Mbstatet@@@std@@MBEHAAU_Mbstatet@@PBD1I@Z 1002ddde f i libcpmt:locale.obj
 0001:0002cdf8       ?do_max_length@codecvt_base@std@@MBEHXZ 1002ddf8 f i libcpmt:locale.obj
 0001:0002cdfc       ?do_out@?$codecvt@DDU_Mbstatet@@@std@@MBEHAAU_Mbstatet@@PBD1AAPBDPAD3AAPAD@Z 1002ddfc f i libcpmt:locale.obj
 0001:0002ce1c       ?do_unshift@?$codecvt@DDU_Mbstatet@@@std@@MBEHAAU_Mbstatet@@PAD1AAPAD@Z 1002de1c f i libcpmt:locale.obj
 0001:0002ce32       ?eof@?$_Narrow_char_traits@DH@std@@SAHXZ 1002de32 f i libcpmt:locale.obj
 0001:0002ce36       ?eq_int_type@?$_Narrow_char_traits@DH@std@@SA_NABH0@Z 1002de36 f i libcpmt:locale.obj
 0001:0002ce4c       ?equal@?$istreambuf_iterator@DU?$char_traits@D@std@@@std@@QBE_NABV12@@Z 1002de4c f i libcpmt:locale.obj
 0001:0002ce94       ?falsename@?$numpunct@D@std@@QBE?AV?$basic_string@DU?$char_traits@D@std@@V?$allocator@D@2@@2@XZ 1002de94 f i libcpmt:locale.obj
 0001:0002cec1       ?flags@ios_base@std@@QBEHXZ 1002dec1 f i libcpmt:locale.obj
 0001:0002cec5       ?getloc@ios_base@std@@QBE?AVlocale@2@XZ 1002dec5 f i libcpmt:locale.obj
 0001:0002cedf       ?global@locale@std@@SA?AV12@ABV12@@Z 1002dedf f   libcpmt:locale.obj
 0001:0002d001       ?gptr@?$basic_streambuf@DU?$char_traits@D@std@@@std@@IBEPADXZ 1002e001 f i libcpmt:locale.obj
 0001:0002d007       ?grouping@?$numpunct@D@std@@QBE?AV?$basic_string@DU?$char_traits@D@std@@V?$allocator@D@2@@2@XZ 1002e007 f i libcpmt:locale.obj
 0001:0002d034       ?insert@?$basic_string@DU?$char_traits@D@std@@V?$allocator@D@2@@std@@QAEAAV12@IID@Z 1002e034 f i libcpmt:locale.obj
 0001:0002d0c1       ?is_constant_evaluated@std@@YA_NXZ 1002e0c1 f i libcpmt:locale.obj
 0001:0002d0c4       ?length@?$_Narrow_char_traits@DH@std@@SAIQBD@Z 1002e0c4 f i libcpmt:locale.obj
 0001:0002d0dd       ?max@?$numeric_limits@H@std@@SAHXZ 1002e0dd f i libcpmt:locale.obj
 0001:0002d0e3       ?max_size@?$_Default_allocator_traits@V?$allocator@D@std@@@std@@SAIABV?$allocator@D@2@@Z 1002e0e3 f i libcpmt:locale.obj
 0001:0002d0e7       ?max_size@?$basic_string@DU?$char_traits@D@std@@V?$allocator@D@2@@std@@QBEIXZ 1002e0e7 f i libcpmt:locale.obj
 0001:0002d0ed       ?move@?$_Char_traits@DH@std@@SAPADQADQBDI@Z 1002e0ed f i libcpmt:locale.obj
 0001:0002d10c       ?precision@ios_base@std@@QBE_JXZ 1002e10c f i libcpmt:locale.obj
 0001:0002d113       ?push_back@?$basic_string@DU?$char_traits@D@std@@V?$allocator@D@2@@std@@QAEXD@Z 1002e113 f i libcpmt:locale.obj
 0001:0002d159       ?release@?$unique_ptr@V_Facet_base@std@@U?$default_delete@V_Facet_base@std@@@2@@std@@QAEPAV_Facet_base@2@XZ 1002e159 f i libcpmt:locale.obj
 0001:0002d15f       ?sbumpc@?$basic_streambuf@DU?$char_traits@D@std@@@std@@QAEHXZ 1002e15f f i libcpmt:locale.obj
 0001:0002d1a6       ?sgetc@?$basic_streambuf@DU?$char_traits@D@std@@@std@@QAEHXZ 1002e1a6 f i libcpmt:locale.obj
 0001:0002d1df       ?size@?$basic_string@DU?$char_traits@D@std@@V?$allocator@D@2@@std@@QBEIXZ 1002e1df f i libcpmt:locale.obj
 0001:0002d1e3       ?sputc@?$basic_streambuf@DU?$char_traits@D@std@@@std@@QAEHD@Z 1002e1e3 f i libcpmt:locale.obj
 0001:0002d242       ?thousands_sep@?$numpunct@D@std@@QBEDXZ 1002e242 f i libcpmt:locale.obj
 0001:0002d260       ?to_char_type@?$_Narrow_char_traits@DH@std@@SADABH@Z 1002e260 f i libcpmt:locale.obj
 0001:0002d26c       ?to_int_type@?$_Narrow_char_traits@DH@std@@SAHABD@Z 1002e26c f i libcpmt:locale.obj
 0001:0002d279       ?tolower@?$ctype@D@std@@QBEDD@Z 1002e279 f i libcpmt:locale.obj
 0001:0002d2a2       ?truename@?$numpunct@D@std@@QBE?AV?$basic_string@DU?$char_traits@D@std@@V?$allocator@D@2@@2@XZ 1002e2a2 f i libcpmt:locale.obj
 0001:0002d2cf       ?widen@?$ctype@D@std@@QBEPBDPBD0PAD@Z 1002e2cf f i libcpmt:locale.obj
 0001:0002d2ff       ?width@ios_base@std@@QAE_J_J@Z 1002e2ff f i libcpmt:locale.obj
 0001:0002d323       ?width@ios_base@std@@QBE_JXZ 1002e323 f i libcpmt:locale.obj
 0001:0002d32a       __vsprintf_s_l             1002e32a f i libcpmt:locale.obj
 0001:0002d362       _fabsl                     1002e362 f i libcpmt:locale.obj
 0001:0002d36e       _frexpl                    1002e36e f i libcpmt:locale.obj
 0001:0002d38c       _ldexpf                    1002e38c f i libcpmt:locale.obj
 0001:0002d3b2       _powf                      1002e3b2 f i libcpmt:locale.obj
 0001:0002d3ce       ??1_Init_atexit@@QAE@XZ    1002e3ce f i libcpmt:iosptrs.obj
 0001:0002d450       ?_Atexit@@YAXP6AXXZ@Z      1002e450 f   libcpmt:iosptrs.obj
 0001:0002d48a       ??0?$__crt_scoped_stack_ptr@_W@@QAE@U?$__crt_scoped_stack_ptr_tag@_W@@@Z 1002e48a f i libcpmt:StlLCMapStringA.obj
 0001:0002d49b       ??0?$__crt_scoped_stack_ptr_tag@_W@@QAE@QA_W@Z 1002e49b f i libcpmt:StlLCMapStringA.obj
 0001:0002d4ac       ??1?$__crt_scoped_stack_ptr@_W@@QAE@XZ 1002e4ac f i libcpmt:StlLCMapStringA.obj
 0001:0002d4cb       ??B?$__crt_scoped_stack_ptr@_W@@QBE_NXZ 1002e4cb f i libcpmt:StlLCMapStringA.obj
 0001:0002d4d2       ?get@?$__crt_scoped_stack_ptr@_W@@QBEPA_WXZ 1002e4d2 f i libcpmt:StlLCMapStringA.obj
 0001:0002d4d5       __MallocaComputeSize       1002e4d5 f i libcpmt:StlLCMapStringA.obj
 0001:0002d4ea       __MarkAllocaS              1002e4ea f i libcpmt:StlLCMapStringA.obj
 0001:0002d503       ___crtLCMapStringA         1002e503 f   libcpmt:StlLCMapStringA.obj
 0001:0002d742       __freea_crt                1002e742 f i libcpmt:StlLCMapStringA.obj
 0001:0002d767       ??$?0$$V@?$_Compressed_pair@V?$allocator@G@std@@V?$_String_val@U?$_Simple_types@G@std@@@2@$00@std@@QAE@U_Zero_then_variadic_args_t@1@@Z 1002e767 f i libcpmt:wlocale.obj
 0001:0002d779       ??$?0$$V@?$_Compressed_pair@V?$allocator@_W@std@@V?$_String_val@U?$_Simple_types@_W@std@@@2@$00@std@@QAE@U_Zero_then_variadic_args_t@1@@Z 1002e779 f i libcpmt:wlocale.obj
 0001:0002d78b       ??$?0V?$allocator@D@std@@$$V@?$_Compressed_pair@V?$allocator@D@std@@V?$_String_val@U?$_Simple_types@D@std@@@2@$00@std@@QAE@U_One_then_variadic_args_t@1@$$QAV?$allocator@D@1@@Z 1002e78b f i libcpmt:wlocale.obj
 0001:0002d79d       ??$?0V?$allocator@G@std@@$$V@?$_Compressed_pair@V?$allocator@G@std@@V?$_String_val@U?$_Simple_types@G@std@@@2@$00@std@@QAE@U_One_then_variadic_args_t@1@$$QAV?$allocator@G@1@@Z 1002e79d f i libcpmt:wlocale.obj
 0001:0002d7af       ??$?0V?$allocator@_W@std@@$$V@?$_Compressed_pair@V?$allocator@_W@std@@V?$_String_val@U?$_Simple_types@_W@std@@@2@$00@std@@QAE@U_One_then_variadic_args_t@1@$$QAV?$allocator@_W@1@@Z 1002e7af f i libcpmt:wlocale.obj
 0001:0002d7c1       ??$?8GU?$char_traits@G@std@@@std@@YA_NABV?$istreambuf_iterator@GU?$char_traits@G@std@@@0@0@Z 1002e7c1 f i libcpmt:wlocale.obj
 0001:0002d7d5       ??$?8_WU?$char_traits@_W@std@@@std@@YA_NABV?$istreambuf_iterator@_WU?$char_traits@_W@std@@@0@0@Z 1002e7d5 f i libcpmt:wlocale.obj
 0001:0002d7e9       ??$_Adl_verify_range@PADPAD@std@@YAXABQAD0@Z 1002e7e9 f i libcpmt:wlocale.obj
 0001:0002d7ec       ??$_Adl_verify_range@PAGPAG@std@@YAXABQAG0@Z 1002e7ec f i libcpmt:wlocale.obj
 0001:0002d7ef       ??$_Adl_verify_range@PAGPBG@std@@YAXABQAGABQBG@Z 1002e7ef f i libcpmt:wlocale.obj
 0001:0002d7f2       ??$_Adl_verify_range@PA_WPA_W@std@@YAXABQA_W0@Z 1002e7f2 f i libcpmt:wlocale.obj
 0001:0002d7f5       ??$_Adl_verify_range@PA_WPB_W@std@@YAXABQA_WABQB_W@Z 1002e7f5 f i libcpmt:wlocale.obj
 0001:0002d7f8       ??$_Adl_verify_range@PBGPBG@std@@YAXABQBG0@Z 1002e7f8 f i libcpmt:wlocale.obj
 0001:0002d7fb       ??$_Adl_verify_range@PB_WPB_W@std@@YAXABQB_W0@Z 1002e7fb f i libcpmt:wlocale.obj
 0001:0002d7fe       ??$_Adl_verify_range@V?$istreambuf_iterator@GU?$char_traits@G@std@@@std@@V12@@std@@YAXABV?$istreambuf_iterator@GU?$char_traits@G@std@@@0@0@Z 1002e7fe f i libcpmt:wlocale.obj
 0001:0002d801       ??$_Adl_verify_range@V?$istreambuf_iterator@_WU?$char_traits@_W@std@@@std@@V12@@std@@YAXABV?$istreambuf_iterator@_WU?$char_traits@_W@std@@@0@0@Z 1002e801 f i libcpmt:wlocale.obj
 0001:0002d804       ??$_Construct_in_place@PAGAAPAG@std@@YAXAAPAG0@Z 1002e804 f i libcpmt:wlocale.obj
 0001:0002d816       ??$_Construct_in_place@PAGABQAG@std@@YAXAAPAGABQAG@Z 1002e816 f i libcpmt:wlocale.obj
 0001:0002d828       ??$_Construct_in_place@PA_WAAPA_W@std@@YAXAAPA_W0@Z 1002e828 f i libcpmt:wlocale.obj
 0001:0002d83a       ??$_Construct_in_place@PA_WABQA_W@std@@YAXAAPA_WABQA_W@Z 1002e83a f i libcpmt:wlocale.obj
 0001:0002d84c       ??$_Copy_unchecked@PA_WV?$ostreambuf_iterator@GU?$char_traits@G@std@@@std@@@std@@YA?AV?$ostreambuf_iterator@GU?$char_traits@G@std@@@0@PA_W0V10@@Z 1002e84c f i libcpmt:wlocale.obj
 0001:0002d885       ??$_Copy_unchecked@PA_WV?$ostreambuf_iterator@_WU?$char_traits@_W@std@@@std@@@std@@YA?AV?$ostreambuf_iterator@_WU?$char_traits@_W@std@@@0@PA_W0V10@@Z 1002e885 f i libcpmt:wlocale.obj
 0001:0002d8be       ??$_Destroy_in_place@PAG@std@@YAXAAPAG@Z 1002e8be f i libcpmt:wlocale.obj
 0001:0002d8c1       ??$_Destroy_in_place@PA_W@std@@YAXAAPA_W@Z 1002e8c1 f i libcpmt:wlocale.obj
 0001:0002d8c4       ??$_Find_elem@G$0BL@@std@@YAIAAY0BL@$$CBGG@Z 1002e8c4 f i libcpmt:wlocale.obj
 0001:0002d8f4       ??$_Find_elem@G$0BN@@std@@YAIAAY0BN@$$CBGG@Z 1002e8f4 f i libcpmt:wlocale.obj
 0001:0002d924       ??$_Find_elem@G$0M@@std@@YAIAAY0M@$$CBGG@Z 1002e924 f i libcpmt:wlocale.obj
 0001:0002d954       ??$_Find_elem@G$0P@@std@@YAIAAY0P@$$CBGG@Z 1002e954 f i libcpmt:wlocale.obj
 0001:0002d984       ??$_Find_elem@_W$0BL@@std@@YAIAAY0BL@$$CB_W_W@Z 1002e984 f i libcpmt:wlocale.obj
 0001:0002d9b4       ??$_Find_elem@_W$0BN@@std@@YAIAAY0BN@$$CB_W_W@Z 1002e9b4 f i libcpmt:wlocale.obj
 0001:0002d9e4       ??$_Find_elem@_W$0M@@std@@YAIAAY0M@$$CB_W_W@Z 1002e9e4 f i libcpmt:wlocale.obj
 0001:0002da14       ??$_Find_elem@_W$0P@@std@@YAIAAY0P@$$CB_W_W@Z 1002ea14 f i libcpmt:wlocale.obj
 0001:0002da44       ??$_Find_unchecked1@PBGG@std@@YAPBGPBGQBGABGU?$integral_constant@_N$0A@@0@@Z 1002ea44 f i libcpmt:wlocale.obj
 0001:0002da6e       ??$_Find_unchecked1@PB_W_W@std@@YAPB_WPB_WQB_WAB_WU?$integral_constant@_N$0A@@0@@Z 1002ea6e f i libcpmt:wlocale.obj
 0001:0002da98       ??$_Find_unchecked@PBGG@std@@YAPBGQBG0ABG@Z 1002ea98 f i libcpmt:wlocale.obj
 0001:0002dabd       ??$_Find_unchecked@PB_W_W@std@@YAPB_WQB_W0AB_W@Z 1002eabd f i libcpmt:wlocale.obj
 0001:0002dae2       ??$_Get_size_of_n@$01@std@@YAII@Z 1002eae2 f i libcpmt:wlocale.obj
 0001:0002dafc       ??$_Get_unwrapped@AAPA_W@std@@YA?A_TAAPA_W@Z 1002eafc f i libcpmt:wlocale.obj
 0001:0002db08       ??$_Get_unwrapped_n@AAV?$ostreambuf_iterator@GU?$char_traits@G@std@@@std@@H@std@@YA?A_TAAV?$ostreambuf_iterator@GU?$char_traits@G@std@@@0@H@Z 1002eb08 f i libcpmt:wlocale.obj
 0001:0002db12       ??$_Get_unwrapped_n@AAV?$ostreambuf_iterator@_WU?$char_traits@_W@std@@@std@@H@std@@YA?A_TAAV?$ostreambuf_iterator@_WU?$char_traits@_W@std@@@0@H@Z 1002eb12 f i libcpmt:wlocale.obj
 0001:0002db1c       ??$_Getloctxt@V?$istreambuf_iterator@GU?$char_traits@G@std@@@std@@D@std@@YAHAAV?$istreambuf_iterator@GU?$char_traits@G@std@@@0@0IPBDW4_Case_sensitive@0@@Z 1002eb1c f i libcpmt:wlocale.obj
 0001:0002ddae       ??$_Getloctxt@V?$istreambuf_iterator@GU?$char_traits@G@std@@@std@@G@std@@YAHAAV?$istreambuf_iterator@GU?$char_traits@G@std@@@0@0IPBGW4_Case_sensitive@0@@Z 1002edae f i libcpmt:wlocale.obj
 0001:0002e051       ??$_Getloctxt@V?$istreambuf_iterator@_WU?$char_traits@_W@std@@@std@@D@std@@YAHAAV?$istreambuf_iterator@_WU?$char_traits@_W@std@@@0@0IPBDW4_Case_sensitive@0@@Z 1002f051 f i libcpmt:wlocale.obj
 0001:0002e2e3       ??$_Getloctxt@V?$istreambuf_iterator@_WU?$char_traits@_W@std@@@std@@_W@std@@YAHAAV?$istreambuf_iterator@_WU?$char_traits@_W@std@@@0@0IPB_WW4_Case_sensitive@0@@Z 1002f2e3 f i libcpmt:wlocale.obj
 0001:0002e586       ??$_Getvals@G@?$_Mpunct@G@std@@IAEXGPBUlconv@@@Z 1002f586 f i libcpmt:wlocale.obj
 0001:0002e63c       ??$_Getvals@G@?$numpunct@G@std@@IAEXGPBUlconv@@U_Cvtvec@@@Z 1002f63c f i libcpmt:wlocale.obj
 0001:0002e6b6       ??$_Getvals@G@?$time_get@GV?$istreambuf_iterator@GU?$char_traits@G@std@@@std@@@std@@IAEXGABV_Locinfo@1@@Z 1002f6b6 f i libcpmt:wlocale.obj
 0001:0002e73b       ??$_Getvals@_W@?$time_get@_WV?$istreambuf_iterator@_WU?$char_traits@_W@std@@@std@@@std@@IAEX_WABV_Locinfo@1@@Z 1002f73b f i libcpmt:wlocale.obj
 0001:0002e7aa       ??$_Hash_array_representation@G@std@@YAIQBGI@Z 1002f7aa f i libcpmt:wlocale.obj
 0001:0002e7cb       ??$_Hash_array_representation@_W@std@@YAIQB_WI@Z 1002f7cb f i libcpmt:wlocale.obj
 0001:0002e7ec       ??$_Idl_distance@PA_WPA_W@std@@YA?A_PABQA_W0@Z 1002f7ec f i libcpmt:wlocale.obj
 0001:0002e801       ??$_LStrcoll@G@std@@YAHPBG000PBU_Collvec@@@Z 1002f801 f i libcpmt:wlocale.obj
 0001:0002e85d       ??$_LStrcoll@_W@std@@YAHPB_W000PBU_Collvec@@@Z 1002f85d f i libcpmt:wlocale.obj
 0001:0002e868       ??$_LStrxfrm@G@std@@YAIPAG0PBG1PBU_Collvec@@@Z 1002f868 f i libcpmt:wlocale.obj
 0001:0002e8a2       ??$_LStrxfrm@_W@std@@YAIPA_W0PB_W1PBU_Collvec@@@Z 1002f8a2 f i libcpmt:wlocale.obj
 0001:0002e8ad       ??$_Maklocchr@G@std@@YAGDPAGABU_Cvtvec@@@Z 1002f8ad f i libcpmt:wlocale.obj
 0001:0002e8ea       ??$_Maklocchr@_W@std@@YA_WDPA_WABU_Cvtvec@@@Z 1002f8ea f i libcpmt:wlocale.obj
 0001:0002e927       ??$_Maklocstr@G@std@@YAPAGPBDPAGABU_Cvtvec@@@Z 1002f927 f i libcpmt:wlocale.obj
 0001:0002e9f9       ??$_Maklocstr@_W@std@@YAPA_WPBDPA_WABU_Cvtvec@@@Z 1002f9f9 f i libcpmt:wlocale.obj
 0001:0002eacb       ??$_Pocma@V?$allocator@G@std@@@std@@YAXAAV?$allocator@G@0@0@Z 1002facb f i libcpmt:wlocale.obj
 0001:0002eace       ??$_Pocma@V?$allocator@_W@std@@@std@@YAXAAV?$allocator@_W@0@0@Z 1002face f i libcpmt:wlocale.obj
 0001:0002ead1       ??$_Reallocate_for@V<lambda_1>@?1??assign@?$basic_string@GU?$char_traits@G@std@@V?$allocator@G@2@@std@@QAEAAV34@IG@Z@G@?$basic_string@GU?$char_traits@G@std@@V?$allocator@G@2@@std@@AAEAAV01@IV<lambda_1>@?1??assign@01@QAEAAV01@IG@Z@G@Z 1002fad1 f i libcpmt:wlocale.obj
 0001:0002eb6d       ??$_Reallocate_for@V<lambda_1>@?1??assign@?$basic_string@GU?$char_traits@G@std@@V?$allocator@G@2@@std@@QAEAAV34@QBGI@Z@PBG@?$basic_string@GU?$char_traits@G@std@@V?$allocator@G@2@@std@@AAEAAV01@IV<lambda_1>@?1??assign@01@QAEAAV01@QBGI@Z@PBG@Z 1002fb6d f i libcpmt:wlocale.obj
 0001:0002ec0d       ??$_Reallocate_for@V<lambda_1>@?1??assign@?$basic_string@_WU?$char_traits@_W@std@@V?$allocator@_W@2@@std@@QAEAAV34@I_W@Z@_W@?$basic_string@_WU?$char_traits@_W@std@@V?$allocator@_W@2@@std@@AAEAAV01@IV<lambda_1>@?1??assign@01@QAEAAV01@I_W@Z@_W@Z 1002fc0d f i libcpmt:wlocale.obj
 0001:0002eca9       ??$_Reallocate_for@V<lambda_1>@?1??assign@?$basic_string@_WU?$char_traits@_W@std@@V?$allocator@_W@2@@std@@QAEAAV34@QB_WI@Z@PB_W@?$basic_string@_WU?$char_traits@_W@std@@V?$allocator@_W@2@@std@@AAEAAV01@IV<lambda_1>@?1??assign@01@QAEAAV01@QB_WI@Z@PB_W@Z 1002fca9 f i libcpmt:wlocale.obj
 0001:0002ed49       ??$_Reallocate_grow_by@V<lambda_1>@?1??append@?$basic_string@GU?$char_traits@G@std@@V?$allocator@G@2@@std@@QAEAAV34@IG@Z@IG@?$basic_string@GU?$char_traits@G@std@@V?$allocator@G@2@@std@@AAEAAV01@IV<lambda_1>@?1??append@01@QAEAAV01@IG@Z@IG@Z 1002fd49 f i libcpmt:wlocale.obj
 0001:0002ee03       ??$_Reallocate_grow_by@V<lambda_1>@?1??append@?$basic_string@GU?$char_traits@G@std@@V?$allocator@G@2@@std@@QAEAAV34@QBGI@Z@PBGI@?$basic_string@GU?$char_traits@G@std@@V?$allocator@G@2@@std@@AAEAAV01@IV<lambda_1>@?1??append@01@QAEAAV01@QBGI@Z@PBGI@Z 1002fe03 f i libcpmt:wlocale.obj
 0001:0002eebd       ??$_Reallocate_grow_by@V<lambda_1>@?1??append@?$basic_string@_WU?$char_traits@_W@std@@V?$allocator@_W@2@@std@@QAEAAV34@I_W@Z@I_W@?$basic_string@_WU?$char_traits@_W@std@@V?$allocator@_W@2@@std@@AAEAAV01@IV<lambda_1>@?1??append@01@QAEAAV01@I_W@Z@I_W@Z 1002febd f i libcpmt:wlocale.obj
 0001:0002ef77       ??$_Reallocate_grow_by@V<lambda_1>@?1??append@?$basic_string@_WU?$char_traits@_W@std@@V?$allocator@_W@2@@std@@QAEAAV34@QB_WI@Z@PB_WI@?$basic_string@_WU?$char_traits@_W@std@@V?$allocator@_W@2@@std@@AAEAAV01@IV<lambda_1>@?1??append@01@QAEAAV01@QB_WI@Z@PB_WI@Z 1002ff77 f i libcpmt:wlocale.obj
 0001:0002f031       ??$_Reallocate_grow_by@V<lambda_1>@?1??insert@?$basic_string@GU?$char_traits@G@std@@V?$allocator@G@2@@std@@QAEAAV34@IIG@Z@IIG@?$basic_string@GU?$char_traits@G@std@@V?$allocator@G@2@@std@@AAEAAV01@IV<lambda_1>@?1??insert@01@QAEAAV01@IIG@Z@IIG@Z 10030031 f i libcpmt:wlocale.obj
 0001:0002f0ef       ??$_Reallocate_grow_by@V<lambda_1>@?1??insert@?$basic_string@_WU?$char_traits@_W@std@@V?$allocator@_W@2@@std@@QAEAAV34@II_W@Z@II_W@?$basic_string@_WU?$char_traits@_W@std@@V?$allocator@_W@2@@std@@AAEAAV01@IV<lambda_1>@?1??insert@01@QAEAAV01@II_W@Z@II_W@Z 100300ef f i libcpmt:wlocale.obj
 0001:0002f1ad       ??$_Reallocate_grow_by@V<lambda_1>@?1??push_back@?$basic_string@GU?$char_traits@G@std@@V?$allocator@G@2@@std@@QAEXG@Z@G@?$basic_string@GU?$char_traits@G@std@@V?$allocator@G@2@@std@@AAEAAV01@IV<lambda_1>@?1??push_back@01@QAEXG@Z@G@Z 100301ad f i libcpmt:wlocale.obj
 0001:0002f2a0       ??$_Reallocate_grow_by@V<lambda_1>@?1??push_back@?$basic_string@_WU?$char_traits@_W@std@@V?$allocator@_W@2@@std@@QAEX_W@Z@_W@?$basic_string@_WU?$char_traits@_W@std@@V?$allocator@_W@2@@std@@AAEAAV01@IV<lambda_1>@?1??push_back@01@QAEX_W@Z@_W@Z 100302a0 f i libcpmt:wlocale.obj
 0001:0002f393       ??$_Refancy@PAG$0A@@std@@YAPAGPAG@Z 10030393 f i libcpmt:wlocale.obj
 0001:0002f39d       ??$_Refancy@PA_W$0A@@std@@YAPA_WPA_W@Z 1003039d f i libcpmt:wlocale.obj
 0001:0002f3a7       ??$_Seek_wrapped@V?$ostreambuf_iterator@GU?$char_traits@G@std@@@std@@V12@@std@@YAXAAV?$ostreambuf_iterator@GU?$char_traits@G@std@@@0@$$QAV10@@Z 100303a7 f i libcpmt:wlocale.obj
 0001:0002f3c1       ??$_Seek_wrapped@V?$ostreambuf_iterator@_WU?$char_traits@_W@std@@@std@@V12@@std@@YAXAAV?$ostreambuf_iterator@_WU?$char_traits@_W@std@@@0@$$QAV10@@Z 100303c1 f i libcpmt:wlocale.obj
 0001:0002f3db       ??$_Unfancy@G@std@@YAPAGPAG@Z 100303db f i libcpmt:wlocale.obj
 0001:0002f3e5       ??$_Unfancy@_W@std@@YAPA_WPA_W@Z 100303e5 f i libcpmt:wlocale.obj
 0001:0002f3ef       ??$_Voidify_iter@PAG@std@@YAPAXPAG@Z 100303ef f i libcpmt:wlocale.obj
 0001:0002f3f9       ??$_Voidify_iter@PAPAG@std@@YAPAXPAPAG@Z 100303f9 f i libcpmt:wlocale.obj
 0001:0002f403       ??$_Voidify_iter@PAPA_W@std@@YAPAXPAPA_W@Z 10030403 f i libcpmt:wlocale.obj
 0001:0002f40d       ??$_Voidify_iter@PA_W@std@@YAPAXPA_W@Z 1003040d f i libcpmt:wlocale.obj
 0001:0002f417       ??$addressof@$$CBV?$_String_val@U?$_Simple_types@G@std@@@std@@@std@@YAPBV?$_String_val@U?$_Simple_types@G@std@@@0@ABV10@@Z 10030417 f i libcpmt:wlocale.obj
 0001:0002f421       ??$addressof@$$CBV?$_String_val@U?$_Simple_types@_W@std@@@std@@@std@@YAPBV?$_String_val@U?$_Simple_types@_W@std@@@0@ABV10@@Z 10030421 f i libcpmt:wlocale.obj
 0001:0002f42b       ??$addressof@$$CBV?$moneypunct@G$00@std@@@std@@YAPBV?$moneypunct@G$00@0@ABV10@@Z 1003042b f i libcpmt:wlocale.obj
 0001:0002f435       ??$addressof@$$CBV?$moneypunct@G$0A@@std@@@std@@YAPBV?$moneypunct@G$0A@@0@ABV10@@Z 10030435 f i libcpmt:wlocale.obj
 0001:0002f43f       ??$addressof@$$CBV?$moneypunct@_W$00@std@@@std@@YAPBV?$moneypunct@_W$00@0@ABV10@@Z 1003043f f i libcpmt:wlocale.obj
 0001:0002f449       ??$addressof@$$CBV?$moneypunct@_W$0A@@std@@@std@@YAPBV?$moneypunct@_W$0A@@0@ABV10@@Z 10030449 f i libcpmt:wlocale.obj
 0001:0002f453       ??$addressof@PAG@std@@YAPAPAGAAPAG@Z 10030453 f i libcpmt:wlocale.obj
 0001:0002f45d       ??$addressof@PA_W@std@@YAPAPA_WAAPA_W@Z 1003045d f i libcpmt:wlocale.obj
 0001:0002f467       ??$addressof@V?$_String_val@U?$_Simple_types@G@std@@@std@@@std@@YAPAV?$_String_val@U?$_Simple_types@G@std@@@0@AAV10@@Z 10030467 f i libcpmt:wlocale.obj
 0001:0002f471       ??$addressof@V?$_String_val@U?$_Simple_types@_W@std@@@std@@@std@@YAPAV?$_String_val@U?$_Simple_types@_W@std@@@0@AAV10@@Z 10030471 f i libcpmt:wlocale.obj
 0001:0002f47b       ??$addressof@V?$basic_string@GU?$char_traits@G@std@@V?$allocator@G@2@@std@@@std@@YAPAV?$basic_string@GU?$char_traits@G@std@@V?$allocator@G@2@@0@AAV10@@Z 1003047b f i libcpmt:wlocale.obj
 0001:0002f485       ??$addressof@V?$basic_string@_WU?$char_traits@_W@std@@V?$allocator@_W@2@@std@@@std@@YAPAV?$basic_string@_WU?$char_traits@_W@std@@V?$allocator@_W@2@@0@AAV10@@Z 10030485 f i libcpmt:wlocale.obj
 0001:0002f48f       ??$begin@$$CBD$0M@@std@@YAPBDAAY0M@$$CBD@Z 1003048f f i libcpmt:wlocale.obj
 0001:0002f499       ??$construct_at@GABGX@std@@YAPAGQAGABG@Z 10030499 f i libcpmt:wlocale.obj
 0001:0002f4ae       ??$construct_at@PAGAAPAGX@std@@YAPAPAGQAPAGAAPAG@Z 100304ae f i libcpmt:wlocale.obj
 0001:0002f4c0       ??$construct_at@PAGABQAGX@std@@YAPAPAGQAPAGABQAG@Z 100304c0 f i libcpmt:wlocale.obj
 0001:0002f4d2       ??$construct_at@PA_WAAPA_WX@std@@YAPAPA_WQAPA_WAAPA_W@Z 100304d2 f i libcpmt:wlocale.obj
 0001:0002f4e4       ??$construct_at@PA_WABQA_WX@std@@YAPAPA_WQAPA_WABQA_W@Z 100304e4 f i libcpmt:wlocale.obj
 0001:0002f4f6       ??$construct_at@_WAB_WX@std@@YAPA_WQA_WAB_W@Z 100304f6 f i libcpmt:wlocale.obj
 0001:0002f50b       ??$copy@PA_WV?$ostreambuf_iterator@GU?$char_traits@G@std@@@std@@@std@@YA?AV?$ostreambuf_iterator@GU?$char_traits@G@std@@@0@PA_W0V10@@Z 1003050b f i libcpmt:wlocale.obj
 0001:0002f542       ??$copy@PA_WV?$ostreambuf_iterator@_WU?$char_traits@_W@std@@@std@@@std@@YA?AV?$ostreambuf_iterator@_WU?$char_traits@_W@std@@@0@PA_W0V10@@Z 10030542 f i libcpmt:wlocale.obj
 0001:0002f579       ??$end@$$CBD$0M@@std@@YAPBDAAY0M@$$CBD@Z 10030579 f i libcpmt:wlocale.obj
 0001:0002f586       ??$forward@AAPAG@std@@YAAAPAGAAPAG@Z 10030586 f i libcpmt:wlocale.obj
 0001:0002f590       ??$forward@AAPA_W@std@@YAAAPA_WAAPA_W@Z 10030590 f i libcpmt:wlocale.obj
 0001:0002f59a       ??$forward@ABG@std@@YAABGABG@Z 1003059a f i libcpmt:wlocale.obj
 0001:0002f5a4       ??$forward@ABQAG@std@@YAABQAGABQAG@Z 100305a4 f i libcpmt:wlocale.obj
 0001:0002f5ae       ??$forward@ABQA_W@std@@YAABQA_WABQA_W@Z 100305ae f i libcpmt:wlocale.obj
 0001:0002f5b8       ??$forward@AB_W@std@@YAAB_WAB_W@Z 100305b8 f i libcpmt:wlocale.obj
 0001:0002f5c2       ??$forward@V?$allocator@D@std@@@std@@YA$$QAV?$allocator@D@0@AAV10@@Z 100305c2 f i libcpmt:wlocale.obj
 0001:0002f5cc       ??$forward@V?$allocator@G@std@@@std@@YA$$QAV?$allocator@G@0@AAV10@@Z 100305cc f i libcpmt:wlocale.obj
 0001:0002f5d6       ??$forward@V?$allocator@_W@std@@@std@@YA$$QAV?$allocator@_W@0@AAV10@@Z 100305d6 f i libcpmt:wlocale.obj
 0001:0002f5e0       ??$forward@V?$ostreambuf_iterator@GU?$char_traits@G@std@@@std@@@std@@YA$$QAV?$ostreambuf_iterator@GU?$char_traits@G@std@@@0@AAV10@@Z 100305e0 f i libcpmt:wlocale.obj
 0001:0002f5ea       ??$forward@V?$ostreambuf_iterator@_WU?$char_traits@_W@std@@@std@@@std@@YA$$QAV?$ostreambuf_iterator@_WU?$char_traits@_W@std@@@0@AAV10@@Z 100305ea f i libcpmt:wlocale.obj
 0001:0002f5f4       ??$move@AAV?$allocator@G@std@@@std@@YA$$QAV?$allocator@G@0@AAV10@@Z 100305f4 f i libcpmt:wlocale.obj
 0001:0002f5fe       ??$move@AAV?$allocator@_W@std@@@std@@YA$$QAV?$allocator@_W@0@AAV10@@Z 100305fe f i libcpmt:wlocale.obj
 0001:0002f608       ??$move@AAV?$basic_string@GU?$char_traits@G@std@@V?$allocator@G@2@@std@@@std@@YA$$QAV?$basic_string@GU?$char_traits@G@std@@V?$allocator@G@2@@0@AAV10@@Z 10030608 f i libcpmt:wlocale.obj
 0001:0002f612       ??$move@AAV?$basic_string@_WU?$char_traits@_W@std@@V?$allocator@_W@2@@std@@@std@@YA$$QAV?$basic_string@_WU?$char_traits@_W@std@@V?$allocator@_W@2@@0@AAV10@@Z 10030612 f i libcpmt:wlocale.obj
 0001:0002f61c       ??$use_facet@V?$codecvt@GDU_Mbstatet@@@std@@@std@@YAABV?$codecvt@GDU_Mbstatet@@@0@ABVlocale@0@@Z 1003061c f i libcpmt:wlocale.obj
 0001:0002f6d6       ??$use_facet@V?$codecvt@_WDU_Mbstatet@@@std@@@std@@YAABV?$codecvt@_WDU_Mbstatet@@@0@ABVlocale@0@@Z 100306d6 f i libcpmt:wlocale.obj
 0001:0002f790       ??$use_facet@V?$collate@G@std@@@std@@YAABV?$collate@G@0@ABVlocale@0@@Z 10030790 f i libcpmt:wlocale.obj
 0001:0002f84a       ??$use_facet@V?$collate@_W@std@@@std@@YAABV?$collate@_W@0@ABVlocale@0@@Z 1003084a f i libcpmt:wlocale.obj
 0001:0002f904       ??$use_facet@V?$ctype@G@std@@@std@@YAABV?$ctype@G@0@ABVlocale@0@@Z 10030904 f i libcpmt:wlocale.obj
 0001:0002f9be       ??$use_facet@V?$ctype@_W@std@@@std@@YAABV?$ctype@_W@0@ABVlocale@0@@Z 100309be f i libcpmt:wlocale.obj
 0001:0002fa78       ??$use_facet@V?$messages@G@std@@@std@@YAABV?$messages@G@0@ABVlocale@0@@Z 10030a78 f i libcpmt:wlocale.obj
 0001:0002fb32       ??$use_facet@V?$messages@_W@std@@@std@@YAABV?$messages@_W@0@ABVlocale@0@@Z 10030b32 f i libcpmt:wlocale.obj
 0001:0002fbec       ??$use_facet@V?$money_get@GV?$istreambuf_iterator@GU?$char_traits@G@std@@@std@@@std@@@std@@YAABV?$money_get@GV?$istreambuf_iterator@GU?$char_traits@G@std@@@std@@@0@ABVlocale@0@@Z 10030bec f i libcpmt:wlocale.obj
 0001:0002fca6       ??$use_facet@V?$money_get@_WV?$istreambuf_iterator@_WU?$char_traits@_W@std@@@std@@@std@@@std@@YAABV?$money_get@_WV?$istreambuf_iterator@_WU?$char_traits@_W@std@@@std@@@0@ABVlocale@0@@Z 10030ca6 f i libcpmt:wlocale.obj
 0001:0002fd60       ??$use_facet@V?$money_put@GV?$ostreambuf_iterator@GU?$char_traits@G@std@@@std@@@std@@@std@@YAABV?$money_put@GV?$ostreambuf_iterator@GU?$char_traits@G@std@@@std@@@0@ABVlocale@0@@Z 10030d60 f i libcpmt:wlocale.obj
 0001:0002fe1a       ??$use_facet@V?$money_put@_WV?$ostreambuf_iterator@_WU?$char_traits@_W@std@@@std@@@std@@@std@@YAABV?$money_put@_WV?$ostreambuf_iterator@_WU?$char_traits@_W@std@@@std@@@0@ABVlocale@0@@Z 10030e1a f i libcpmt:wlocale.obj
 0001:0002fed4       ??$use_facet@V?$moneypunct@G$00@std@@@std@@YAABV?$moneypunct@G$00@0@ABVlocale@0@@Z 10030ed4 f i libcpmt:wlocale.obj
 0001:0002ff8e       ??$use_facet@V?$moneypunct@G$0A@@std@@@std@@YAABV?$moneypunct@G$0A@@0@ABVlocale@0@@Z 10030f8e f i libcpmt:wlocale.obj
 0001:00030048       ??$use_facet@V?$moneypunct@_W$00@std@@@std@@YAABV?$moneypunct@_W$00@0@ABVlocale@0@@Z 10031048 f i libcpmt:wlocale.obj
 0001:00030102       ??$use_facet@V?$moneypunct@_W$0A@@std@@@std@@YAABV?$moneypunct@_W$0A@@0@ABVlocale@0@@Z 10031102 f i libcpmt:wlocale.obj
 0001:000301bc       ??$use_facet@V?$num_get@GV?$istreambuf_iterator@GU?$char_traits@G@std@@@std@@@std@@@std@@YAABV?$num_get@GV?$istreambuf_iterator@GU?$char_traits@G@std@@@std@@@0@ABVlocale@0@@Z 100311bc f i libcpmt:wlocale.obj
 0001:00030276       ??$use_facet@V?$num_get@_WV?$istreambuf_iterator@_WU?$char_traits@_W@std@@@std@@@std@@@std@@YAABV?$num_get@_WV?$istreambuf_iterator@_WU?$char_traits@_W@std@@@std@@@0@ABVlocale@0@@Z 10031276 f i libcpmt:wlocale.obj
 0001:00030330       ??$use_facet@V?$num_put@GV?$ostreambuf_iterator@GU?$char_traits@G@std@@@std@@@std@@@std@@YAABV?$num_put@GV?$ostreambuf_iterator@GU?$char_traits@G@std@@@std@@@0@ABVlocale@0@@Z 10031330 f i libcpmt:wlocale.obj
 0001:000303ea       ??$use_facet@V?$num_put@_WV?$ostreambuf_iterator@_WU?$char_traits@_W@std@@@std@@@std@@@std@@YAABV?$num_put@_WV?$ostreambuf_iterator@_WU?$char_traits@_W@std@@@std@@@0@ABVlocale@0@@Z 100313ea f i libcpmt:wlocale.obj
 0001:000304a4       ??$use_facet@V?$numpunct@G@std@@@std@@YAABV?$numpunct@G@0@ABVlocale@0@@Z 100314a4 f i libcpmt:wlocale.obj
 0001:0003055e       ??$use_facet@V?$numpunct@_W@std@@@std@@YAABV?$numpunct@_W@0@ABVlocale@0@@Z 1003155e f i libcpmt:wlocale.obj
 0001:00030618       ??$use_facet@V?$time_get@GV?$istreambuf_iterator@GU?$char_traits@G@std@@@std@@@std@@@std@@YAABV?$time_get@GV?$istreambuf_iterator@GU?$char_traits@G@std@@@std@@@0@ABVlocale@0@@Z 10031618 f i libcpmt:wlocale.obj
 0001:000306d2       ??$use_facet@V?$time_get@_WV?$istreambuf_iterator@_WU?$char_traits@_W@std@@@std@@@std@@@std@@YAABV?$time_get@_WV?$istreambuf_iterator@_WU?$char_traits@_W@std@@@std@@@0@ABVlocale@0@@Z 100316d2 f i libcpmt:wlocale.obj
 0001:0003078c       ??$use_facet@V?$time_put@GV?$ostreambuf_iterator@GU?$char_traits@G@std@@@std@@@std@@@std@@YAABV?$time_put@GV?$ostreambuf_iterator@GU?$char_traits@G@std@@@std@@@0@ABVlocale@0@@Z 1003178c f i libcpmt:wlocale.obj
 0001:00030846       ??$use_facet@V?$time_put@_WV?$ostreambuf_iterator@_WU?$char_traits@_W@std@@@std@@@std@@@std@@YAABV?$time_put@_WV?$ostreambuf_iterator@_WU?$char_traits@_W@std@@@std@@@0@ABVlocale@0@@Z 10031846 f i libcpmt:wlocale.obj
 0001:00030900       ??0?$_Mpunct@G@std@@QAE@ABV_Locinfo@1@I_N1@Z 10031900 f i libcpmt:wlocale.obj
 0001:0003094b       ??0?$_Mpunct@_W@std@@QAE@ABV_Locinfo@1@I_N1@Z 1003194b f i libcpmt:wlocale.obj
 0001:00030996       ??0?$_String_const_iterator@V?$_String_val@U?$_Simple_types@G@std@@@std@@@std@@QAE@PBGPBU_Container_base0@1@@Z 10031996 f i libcpmt:wlocale.obj
 0001:000309a7       ??0?$_String_const_iterator@V?$_String_val@U?$_Simple_types@G@std@@@std@@@std@@QAE@XZ 100319a7 f i libcpmt:wlocale.obj
 0001:000309ad       ??0?$_String_const_iterator@V?$_String_val@U?$_Simple_types@_W@std@@@std@@@std@@QAE@PB_WPBU_Container_base0@1@@Z 100319ad f i libcpmt:wlocale.obj
 0001:000309be       ??0?$_String_const_iterator@V?$_String_val@U?$_Simple_types@_W@std@@@std@@@std@@QAE@XZ 100319be f i libcpmt:wlocale.obj
 0001:000309c4       ??0?$_String_iterator@V?$_String_val@U?$_Simple_types@G@std@@@std@@@std@@QAE@PBGPBU_Container_base0@1@@Z 100319c4 f i libcpmt:wlocale.obj
 0001:000309d5       ??0?$_String_iterator@V?$_String_val@U?$_Simple_types@_W@std@@@std@@@std@@QAE@PB_WPBU_Container_base0@1@@Z 100319d5 f i libcpmt:wlocale.obj
 0001:000309e6       ??0?$_String_val@U?$_Simple_types@G@std@@@std@@QAE@XZ 100319e6 f i libcpmt:wlocale.obj
 0001:000309f6       ??0?$_String_val@U?$_Simple_types@_W@std@@@std@@QAE@XZ 100319f6 f i libcpmt:wlocale.obj
 0001:00030a06       ??0?$allocator@G@std@@QAE@XZ 10031a06 f i libcpmt:wlocale.obj
 0001:00030a09       ??0?$allocator@_W@std@@QAE@XZ 10031a09 f i libcpmt:wlocale.obj
 0001:00030a0c       ??0?$basic_string@DU?$char_traits@D@std@@V?$allocator@D@2@@std@@QAE@$$QAV01@@Z 10031a0c f i libcpmt:wlocale.obj
 0001:00030a86       ??0?$basic_string@GU?$char_traits@G@std@@V?$allocator@G@2@@std@@QAE@$$QAV01@@Z 10031a86 f i libcpmt:wlocale.obj
 0001:00030b04       ??0?$basic_string@GU?$char_traits@G@std@@V?$allocator@G@2@@std@@QAE@ABV01@@Z 10031b04 f i libcpmt:wlocale.obj
 0001:00030b2a       ??0?$basic_string@GU?$char_traits@G@std@@V?$allocator@G@2@@std@@QAE@IG@Z 10031b2a f i libcpmt:wlocale.obj
 0001:00030b72       ??0?$basic_string@GU?$char_traits@G@std@@V?$allocator@G@2@@std@@QAE@QBG@Z 10031b72 f i libcpmt:wlocale.obj
 0001:00030bb6       ??0?$basic_string@GU?$char_traits@G@std@@V?$allocator@G@2@@std@@QAE@QBGI@Z 10031bb6 f i libcpmt:wlocale.obj
 0001:00030bfe       ??0?$basic_string@GU?$char_traits@G@std@@V?$allocator@G@2@@std@@QAE@XZ 10031bfe f i libcpmt:wlocale.obj
 0001:00030c53       ??0?$basic_string@_WU?$char_traits@_W@std@@V?$allocator@_W@2@@std@@QAE@$$QAV01@@Z 10031c53 f i libcpmt:wlocale.obj
 0001:00030cd1       ??0?$basic_string@_WU?$char_traits@_W@std@@V?$allocator@_W@2@@std@@QAE@ABV01@@Z 10031cd1 f i libcpmt:wlocale.obj
 0001:00030cf7       ??0?$basic_string@_WU?$char_traits@_W@std@@V?$allocator@_W@2@@std@@QAE@I_W@Z 10031cf7 f i libcpmt:wlocale.obj
 0001:00030d3f       ??0?$basic_string@_WU?$char_traits@_W@std@@V?$allocator@_W@2@@std@@QAE@QB_W@Z 10031d3f f i libcpmt:wlocale.obj
 0001:00030d83       ??0?$basic_string@_WU?$char_traits@_W@std@@V?$allocator@_W@2@@std@@QAE@QB_WI@Z 10031d83 f i libcpmt:wlocale.obj
 0001:00030dcb       ??0?$basic_string@_WU?$char_traits@_W@std@@V?$allocator@_W@2@@std@@QAE@XZ 10031dcb f i libcpmt:wlocale.obj
 0001:00030e20       ??0?$codecvt@GDU_Mbstatet@@@std@@QAE@ABV_Locinfo@1@I@Z 10031e20 f i libcpmt:wlocale.obj
 0001:00030e64       ??0?$codecvt@_WDU_Mbstatet@@@std@@QAE@ABV_Locinfo@1@I@Z 10031e64 f i libcpmt:wlocale.obj
 0001:00030ea8       ??0?$collate@G@std@@QAE@ABV_Locinfo@1@I@Z 10031ea8 f i libcpmt:wlocale.obj
 0001:00030eda       ??0?$collate@_W@std@@QAE@ABV_Locinfo@1@I@Z 10031eda f i libcpmt:wlocale.obj
 0001:00030f0c       ??0?$ctype@G@std@@QAE@ABV_Locinfo@1@I@Z 10031f0c f i libcpmt:wlocale.obj
 0001:00030f3a       ??0?$ctype@_W@std@@QAE@ABV_Locinfo@1@I@Z 10031f3a f i libcpmt:wlocale.obj
 0001:00030f68       ??0?$messages@G@std@@QAE@ABV_Locinfo@1@I@Z 10031f68 f i libcpmt:wlocale.obj
 0001:00030f87       ??0?$messages@_W@std@@QAE@ABV_Locinfo@1@I@Z 10031f87 f i libcpmt:wlocale.obj
 0001:00030fa6       ??0?$money_get@GV?$istreambuf_iterator@GU?$char_traits@G@std@@@std@@@std@@QAE@ABV_Locinfo@1@I@Z 10031fa6 f i libcpmt:wlocale.obj
 0001:00030fc5       ??0?$money_get@_WV?$istreambuf_iterator@_WU?$char_traits@_W@std@@@std@@@std@@QAE@ABV_Locinfo@1@I@Z 10031fc5 f i libcpmt:wlocale.obj
 0001:00030fe4       ??0?$money_put@GV?$ostreambuf_iterator@GU?$char_traits@G@std@@@std@@@std@@QAE@ABV_Locinfo@1@I@Z 10031fe4 f i libcpmt:wlocale.obj
 0001:00031003       ??0?$money_put@_WV?$ostreambuf_iterator@_WU?$char_traits@_W@std@@@std@@@std@@QAE@ABV_Locinfo@1@I@Z 10032003 f i libcpmt:wlocale.obj
 0001:00031022       ??0?$moneypunct@G$00@std@@QAE@ABV_Locinfo@1@I_N@Z 10032022 f i libcpmt:wlocale.obj
 0001:00031052       ??0?$moneypunct@G$0A@@std@@QAE@ABV_Locinfo@1@I_N@Z 10032052 f i libcpmt:wlocale.obj
 0001:00031082       ??0?$moneypunct@_W$00@std@@QAE@ABV_Locinfo@1@I_N@Z 10032082 f i libcpmt:wlocale.obj
 0001:000310b2       ??0?$moneypunct@_W$0A@@std@@QAE@ABV_Locinfo@1@I_N@Z 100320b2 f i libcpmt:wlocale.obj
 0001:000310e2       ??0?$num_get@GV?$istreambuf_iterator@GU?$char_traits@G@std@@@std@@@std@@QAE@ABV_Locinfo@1@I@Z 100320e2 f i libcpmt:wlocale.obj
 0001:00031101       ??0?$num_get@_WV?$istreambuf_iterator@_WU?$char_traits@_W@std@@@std@@@std@@QAE@ABV_Locinfo@1@I@Z 10032101 f i libcpmt:wlocale.obj
 0001:00031120       ??0?$num_put@GV?$ostreambuf_iterator@GU?$char_traits@G@std@@@std@@@std@@QAE@ABV_Locinfo@1@I@Z 10032120 f i libcpmt:wlocale.obj
 0001:0003113f       ??0?$num_put@_WV?$ostreambuf_iterator@_WU?$char_traits@_W@std@@@std@@@std@@QAE@ABV_Locinfo@1@I@Z 1003213f f i libcpmt:wlocale.obj
 0001:0003115e       ??0?$numpunct@G@std@@QAE@ABV_Locinfo@1@I_N@Z 1003215e f i libcpmt:wlocale.obj
 0001:000311a1       ??0?$numpunct@_W@std@@QAE@ABV_Locinfo@1@I_N@Z 100321a1 f i libcpmt:wlocale.obj
 0001:000311e4       ??0?$time_get@GV?$istreambuf_iterator@GU?$char_traits@G@std@@@std@@@std@@QAE@ABV_Locinfo@1@I@Z 100321e4 f i libcpmt:wlocale.obj
 0001:00031223       ??0?$time_get@_WV?$istreambuf_iterator@_WU?$char_traits@_W@std@@@std@@@std@@QAE@ABV_Locinfo@1@I@Z 10032223 f i libcpmt:wlocale.obj
 0001:00031262       ??0?$time_put@GV?$ostreambuf_iterator@GU?$char_traits@G@std@@@std@@@std@@QAE@ABV_Locinfo@1@I@Z 10032262 f i libcpmt:wlocale.obj
 0001:00031295       ??0?$time_put@_WV?$ostreambuf_iterator@_WU?$char_traits@_W@std@@@std@@@std@@QAE@ABV_Locinfo@1@I@Z 10032295 f i libcpmt:wlocale.obj
 0001:000312c8       ??0_Bxty@?$_String_val@U?$_Simple_types@G@std@@@std@@QAE@XZ 100322c8 f i libcpmt:wlocale.obj
 0001:000312ce       ??0_Bxty@?$_String_val@U?$_Simple_types@_W@std@@@std@@QAE@XZ 100322ce f i libcpmt:wlocale.obj
 0001:000312d4       ??0_Timevec@std@@QAE@PAX@Z 100322d4 f i libcpmt:wlocale.obj
 0001:000312e5       ??0messages_base@std@@QAE@I@Z 100322e5 f i libcpmt:wlocale.obj
 0001:00031304       ??0money_base@std@@QAE@I@Z 10032304 f i libcpmt:wlocale.obj
 0001:00031323       ??0time_base@std@@QAE@I@Z  10032323 f i libcpmt:wlocale.obj
 0001:00031342       ??1?$_Compressed_pair@V?$allocator@G@std@@V?$_String_val@U?$_Simple_types@G@std@@@2@$00@std@@QAE@XZ 10032342 f i libcpmt:wlocale.obj
 0001:00031345       ??1?$_Compressed_pair@V?$allocator@_W@std@@V?$_String_val@U?$_Simple_types@_W@std@@@2@$00@std@@QAE@XZ 10032345 f i libcpmt:wlocale.obj
 0001:00031348       ??1?$_Mpunct@G@std@@MAE@XZ 10032348 f i libcpmt:wlocale.obj
 0001:00031363       ??1?$_Mpunct@_W@std@@MAE@XZ 10032363 f i libcpmt:wlocale.obj
 0001:0003137e       ??1?$_String_val@U?$_Simple_types@G@std@@@std@@QAE@XZ 1003237e f i libcpmt:wlocale.obj
 0001:00031381       ??1?$_String_val@U?$_Simple_types@_W@std@@@std@@QAE@XZ 10032381 f i libcpmt:wlocale.obj
 0001:00031384       ??1?$_Tidy_guard@V?$_Mpunct@G@std@@@std@@QAE@XZ 10032384 f i libcpmt:wlocale.obj
 0001:00031391       ??1?$_Tidy_guard@V?$_Mpunct@_W@std@@@std@@QAE@XZ 10032391 f i libcpmt:wlocale.obj
 0001:0003139e       ??1?$_Tidy_guard@V?$numpunct@G@std@@@std@@QAE@XZ 1003239e f i libcpmt:wlocale.obj
 0001:000313ab       ??1?$_Tidy_guard@V?$numpunct@_W@std@@@std@@QAE@XZ 100323ab f i libcpmt:wlocale.obj
 0001:000313b8       ??1?$_Tidy_guard@V?$time_get@GV?$istreambuf_iterator@GU?$char_traits@G@std@@@std@@@std@@@std@@QAE@XZ 100323b8 f i libcpmt:wlocale.obj
 0001:000313c5       ??1?$_Tidy_guard@V?$time_get@_WV?$istreambuf_iterator@_WU?$char_traits@_W@std@@@std@@@std@@@std@@QAE@XZ 100323c5 f i libcpmt:wlocale.obj
 0001:000313d2       ??1?$basic_string@GU?$char_traits@G@std@@V?$allocator@G@2@@std@@QAE@XZ 100323d2 f i libcpmt:wlocale.obj
 0001:000313d7       ??1?$basic_string@_WU?$char_traits@_W@std@@V?$allocator@_W@2@@std@@QAE@XZ 100323d7 f i libcpmt:wlocale.obj
 0001:000313dc       ??1?$codecvt@GDU_Mbstatet@@@std@@MAE@XZ 100323dc f i libcpmt:wlocale.obj
 0001:000313e3       ??1?$codecvt@_WDU_Mbstatet@@@std@@MAE@XZ 100323e3 f i libcpmt:wlocale.obj
 0001:000313ea       ??1?$collate@G@std@@MAE@XZ 100323ea f i libcpmt:wlocale.obj
 0001:0003140a       ??1?$collate@_W@std@@MAE@XZ 1003240a f i libcpmt:wlocale.obj
 0001:0003142a       ??1?$ctype@G@std@@MAE@XZ   1003242a f i libcpmt:wlocale.obj
 0001:0003145d       ??1?$ctype@_W@std@@MAE@XZ  1003245d f i libcpmt:wlocale.obj
 0001:00031490       ??1?$messages@G@std@@MAE@XZ 10032490 f i libcpmt:wlocale.obj
 0001:00031497       ??1?$messages@_W@std@@MAE@XZ 10032497 f i libcpmt:wlocale.obj
 0001:0003149e       ??1?$money_get@GV?$istreambuf_iterator@GU?$char_traits@G@std@@@std@@@std@@MAE@XZ 1003249e f i libcpmt:wlocale.obj
 0001:000314a5       ??1?$money_get@_WV?$istreambuf_iterator@_WU?$char_traits@_W@std@@@std@@@std@@MAE@XZ 100324a5 f i libcpmt:wlocale.obj
 0001:000314ac       ??1?$money_put@GV?$ostreambuf_iterator@GU?$char_traits@G@std@@@std@@@std@@MAE@XZ 100324ac f i libcpmt:wlocale.obj
 0001:000314b3       ??1?$money_put@_WV?$ostreambuf_iterator@_WU?$char_traits@_W@std@@@std@@@std@@MAE@XZ 100324b3 f i libcpmt:wlocale.obj
 0001:000314ba       ??1?$moneypunct@G$00@std@@MAE@XZ 100324ba f i libcpmt:wlocale.obj
 0001:000314d5       ??1?$moneypunct@G$0A@@std@@MAE@XZ 100324d5 f i libcpmt:wlocale.obj
 0001:000314f0       ??1?$moneypunct@_W$00@std@@MAE@XZ 100324f0 f i libcpmt:wlocale.obj
 0001:0003150b       ??1?$moneypunct@_W$0A@@std@@MAE@XZ 1003250b f i libcpmt:wlocale.obj
 0001:00031526       ??1?$num_get@GV?$istreambuf_iterator@GU?$char_traits@G@std@@@std@@@std@@MAE@XZ 10032526 f i libcpmt:wlocale.obj
 0001:0003152d       ??1?$num_get@_WV?$istreambuf_iterator@_WU?$char_traits@_W@std@@@std@@@std@@MAE@XZ 1003252d f i libcpmt:wlocale.obj
 0001:00031534       ??1?$num_put@GV?$ostreambuf_iterator@GU?$char_traits@G@std@@@std@@@std@@MAE@XZ 10032534 f i libcpmt:wlocale.obj
 0001:0003153b       ??1?$num_put@_WV?$ostreambuf_iterator@_WU?$char_traits@_W@std@@@std@@@std@@MAE@XZ 1003253b f i libcpmt:wlocale.obj
 0001:00031542       ??1?$numpunct@G@std@@MAE@XZ 10032542 f i libcpmt:wlocale.obj
 0001:0003155d       ??1?$numpunct@_W@std@@MAE@XZ 1003255d f i libcpmt:wlocale.obj
 0001:00031578       ??1?$time_get@GV?$istreambuf_iterator@GU?$char_traits@G@std@@@std@@@std@@MAE@XZ 10032578 f i libcpmt:wlocale.obj
 0001:00031593       ??1?$time_get@_WV?$istreambuf_iterator@_WU?$char_traits@_W@std@@@std@@@std@@MAE@XZ 10032593 f i libcpmt:wlocale.obj
 0001:000315ae       ??1?$time_put@GV?$ostreambuf_iterator@GU?$char_traits@G@std@@@std@@@std@@MAE@XZ 100325ae f i libcpmt:wlocale.obj
 0001:000315ce       ??1?$time_put@_WV?$ostreambuf_iterator@_WU?$char_traits@_W@std@@@std@@@std@@MAE@XZ 100325ce f i libcpmt:wlocale.obj
 0001:000315ee       ??1_Bxty@?$_String_val@U?$_Simple_types@G@std@@@std@@QAE@XZ 100325ee f i libcpmt:wlocale.obj
 0001:000315f1       ??1_Bxty@?$_String_val@U?$_Simple_types@_W@std@@@std@@QAE@XZ 100325f1 f i libcpmt:wlocale.obj
 0001:000315f4       ??1_Timevec@std@@QAE@XZ    100325f4 f i libcpmt:wlocale.obj
 0001:000315ff       ??1messages_base@std@@UAE@XZ 100325ff f i libcpmt:wlocale.obj
 0001:00031606       ??1money_base@std@@UAE@XZ  10032606 f i libcpmt:wlocale.obj
 0001:0003160d       ??1time_base@std@@UAE@XZ   1003260d f i libcpmt:wlocale.obj
 0001:00031614       ??4?$_Yarn@_W@std@@QAEAAV01@PB_W@Z 10032614 f i libcpmt:wlocale.obj
 0001:00031687       ??4?$basic_string@GU?$char_traits@G@std@@V?$allocator@G@2@@std@@QAEAAV01@$$QAV01@@Z 10032687 f i libcpmt:wlocale.obj
 0001:000316b1       ??4?$basic_string@_WU?$char_traits@_W@std@@V?$allocator@_W@2@@std@@QAEAAV01@$$QAV01@@Z 100326b1 f i libcpmt:wlocale.obj
 0001:000316db       ??4?$ostreambuf_iterator@GU?$char_traits@G@std@@@std@@QAEAAV01@G@Z 100326db f i libcpmt:wlocale.obj
 0001:0003170e       ??4?$ostreambuf_iterator@_WU?$char_traits@_W@std@@@std@@QAEAAV01@_W@Z 1003270e f i libcpmt:wlocale.obj
 0001:00031741       ??4_Timevec@std@@QAEAAV01@ABV01@@Z 10032741 f i libcpmt:wlocale.obj
 0001:0003176f       ??8?$_String_const_iterator@V?$_String_val@U?$_Simple_types@G@std@@@std@@@std@@QBE_NABV01@@Z 1003276f f i libcpmt:wlocale.obj
 0001:00031784       ??8?$_String_const_iterator@V?$_String_val@U?$_Simple_types@_W@std@@@std@@@std@@QBE_NABV01@@Z 10032784 f i libcpmt:wlocale.obj
 0001:00031799       ??A?$basic_string@GU?$char_traits@G@std@@V?$allocator@G@2@@std@@QAEAAGI@Z 10032799 f i libcpmt:wlocale.obj
 0001:000317b3       ??A?$basic_string@GU?$char_traits@G@std@@V?$allocator@G@2@@std@@QBEABGI@Z 100327b3 f i libcpmt:wlocale.obj
 0001:000317cd       ??A?$basic_string@_WU?$char_traits@_W@std@@V?$allocator@_W@2@@std@@QAEAA_WI@Z 100327cd f i libcpmt:wlocale.obj
 0001:000317e7       ??A?$basic_string@_WU?$char_traits@_W@std@@V?$allocator@_W@2@@std@@QBEAB_WI@Z 100327e7 f i libcpmt:wlocale.obj
 0001:00031801       ??D?$_String_const_iterator@V?$_String_val@U?$_Simple_types@G@std@@@std@@@std@@QBEABGXZ 10032801 f i libcpmt:wlocale.obj
 0001:00031804       ??D?$_String_const_iterator@V?$_String_val@U?$_Simple_types@_W@std@@@std@@@std@@QBEAB_WXZ 10032804 f i libcpmt:wlocale.obj
 0001:00031807       ??D?$_String_iterator@V?$_String_val@U?$_Simple_types@G@std@@@std@@@std@@QBEAAGXZ 10032807 f i libcpmt:wlocale.obj
 0001:0003180a       ??D?$_String_iterator@V?$_String_val@U?$_Simple_types@_W@std@@@std@@@std@@QBEAA_WXZ 1003280a f i libcpmt:wlocale.obj
 0001:0003180d       ??D?$istreambuf_iterator@GU?$char_traits@G@std@@@std@@QBEGXZ 1003280d f i libcpmt:wlocale.obj
 0001:00031826       ??D?$istreambuf_iterator@_WU?$char_traits@_W@std@@@std@@QBE_WXZ 10032826 f i libcpmt:wlocale.obj
 0001:0003183f       ??D?$ostreambuf_iterator@GU?$char_traits@G@std@@@std@@QAEAAV01@XZ 1003283f f i libcpmt:wlocale.obj
 0001:00031842       ??D?$ostreambuf_iterator@_WU?$char_traits@_W@std@@@std@@QAEAAV01@XZ 10032842 f i libcpmt:wlocale.obj
 0001:00031845       ??E?$_String_const_iterator@V?$_String_val@U?$_Simple_types@G@std@@@std@@@std@@QAEAAV01@XZ 10032845 f i libcpmt:wlocale.obj
 0001:0003184b       ??E?$_String_const_iterator@V?$_String_val@U?$_Simple_types@_W@std@@@std@@@std@@QAEAAV01@XZ 1003284b f i libcpmt:wlocale.obj
 0001:00031851       ??E?$_String_iterator@V?$_String_val@U?$_Simple_types@G@std@@@std@@@std@@QAEAAV01@XZ 10032851 f i libcpmt:wlocale.obj
 0001:00031857       ??E?$_String_iterator@V?$_String_val@U?$_Simple_types@_W@std@@@std@@@std@@QAEAAV01@XZ 10032857 f i libcpmt:wlocale.obj
 0001:0003185d       ??E?$istreambuf_iterator@GU?$char_traits@G@std@@@std@@QAEAAV01@XZ 1003285d f i libcpmt:wlocale.obj
 0001:0003186c       ??E?$istreambuf_iterator@_WU?$char_traits@_W@std@@@std@@QAEAAV01@XZ 1003286c f i libcpmt:wlocale.obj
 0001:0003187b       ??E?$ostreambuf_iterator@GU?$char_traits@G@std@@@std@@QAEAAV01@H@Z 1003287b f i libcpmt:wlocale.obj
 0001:00031880       ??E?$ostreambuf_iterator@GU?$char_traits@G@std@@@std@@QAEAAV01@XZ 10032880 f i libcpmt:wlocale.obj
 0001:00031883       ??E?$ostreambuf_iterator@_WU?$char_traits@_W@std@@@std@@QAEAAV01@H@Z 10032883 f i libcpmt:wlocale.obj
 0001:00031888       ??E?$ostreambuf_iterator@_WU?$char_traits@_W@std@@@std@@QAEAAV01@XZ 10032888 f i libcpmt:wlocale.obj
 0001:0003188b       ??G?$_String_iterator@V?$_String_val@U?$_Simple_types@G@std@@@std@@@std@@QBE?AV01@H@Z 1003288b f i libcpmt:wlocale.obj
 0001:000318a5       ??G?$_String_iterator@V?$_String_val@U?$_Simple_types@_W@std@@@std@@@std@@QBE?AV01@H@Z 100328a5 f i libcpmt:wlocale.obj
 0001:000318bf       ??H?$_String_iterator@V?$_String_val@U?$_Simple_types@G@std@@@std@@@std@@QBE?AV01@H@Z 100328bf f i libcpmt:wlocale.obj
 0001:000318d8       ??H?$_String_iterator@V?$_String_val@U?$_Simple_types@_W@std@@@std@@@std@@QBE?AV01@H@Z 100328d8 f i libcpmt:wlocale.obj
 0001:000318f1       ??R<lambda_1>@?1??append@?$basic_string@GU?$char_traits@G@std@@V?$allocator@G@2@@std@@QAEAAV23@IG@Z@QBE@QAGQBGIIG@Z 100328f1 f i libcpmt:wlocale.obj
 0001:0003193c       ??R<lambda_1>@?1??append@?$basic_string@GU?$char_traits@G@std@@V?$allocator@G@2@@std@@QAEAAV23@QBGI@Z@QBE@QAG0I0I@Z 1003293c f i libcpmt:wlocale.obj
 0001:0003198a       ??R<lambda_1>@?1??append@?$basic_string@_WU?$char_traits@_W@std@@V?$allocator@_W@2@@std@@QAEAAV23@I_W@Z@QBE@QA_WQB_WII0@Z 1003298a f i libcpmt:wlocale.obj
 0001:000319d5       ??R<lambda_1>@?1??append@?$basic_string@_WU?$char_traits@_W@std@@V?$allocator@_W@2@@std@@QAEAAV23@QB_WI@Z@QBE@QA_W0I0I@Z 100329d5 f i libcpmt:wlocale.obj
 0001:00031a23       ??R<lambda_1>@?1??assign@?$basic_string@GU?$char_traits@G@std@@V?$allocator@G@2@@std@@QAEAAV23@IG@Z@QBE@QAGIG@Z 10032a23 f i libcpmt:wlocale.obj
 0001:00031a50       ??R<lambda_1>@?1??assign@?$basic_string@GU?$char_traits@G@std@@V?$allocator@G@2@@std@@QAEAAV23@QBGI@Z@QBE@QAGI0@Z 10032a50 f i libcpmt:wlocale.obj
 0001:00031a80       ??R<lambda_1>@?1??assign@?$basic_string@_WU?$char_traits@_W@std@@V?$allocator@_W@2@@std@@QAEAAV23@I_W@Z@QBE@QA_WI0@Z 10032a80 f i libcpmt:wlocale.obj
 0001:00031aad       ??R<lambda_1>@?1??assign@?$basic_string@_WU?$char_traits@_W@std@@V?$allocator@_W@2@@std@@QAEAAV23@QB_WI@Z@QBE@QA_WI0@Z 10032aad f i libcpmt:wlocale.obj
 0001:00031add       ??R<lambda_1>@?1??insert@?$basic_string@GU?$char_traits@G@std@@V?$allocator@G@2@@std@@QAEAAV23@IIG@Z@QBE@QAGQBGIIIG@Z 10032add f i libcpmt:wlocale.obj
 0001:00031b44       ??R<lambda_1>@?1??insert@?$basic_string@_WU?$char_traits@_W@std@@V?$allocator@_W@2@@std@@QAEAAV23@II_W@Z@QBE@QA_WQB_WIII0@Z 10032b44 f i libcpmt:wlocale.obj
 0001:00031bab       ??R<lambda_1>@?1??push_back@?$basic_string@GU?$char_traits@G@std@@V?$allocator@G@2@@std@@QAEXG@Z@QBE@QAGQBGIG@Z 10032bab f i libcpmt:wlocale.obj
 0001:00031be7       ??R<lambda_1>@?1??push_back@?$basic_string@_WU?$char_traits@_W@std@@V?$allocator@_W@2@@std@@QAEX_W@Z@QBE@QA_WQB_WI0@Z 10032be7 f i libcpmt:wlocale.obj
 0001:00031c23       ??Y?$_String_const_iterator@V?$_String_val@U?$_Simple_types@G@std@@@std@@@std@@QAEAAV01@H@Z 10032c23 f i libcpmt:wlocale.obj
 0001:00031c37       ??Y?$_String_const_iterator@V?$_String_val@U?$_Simple_types@_W@std@@@std@@@std@@QAEAAV01@H@Z 10032c37 f i libcpmt:wlocale.obj
 0001:00031c4b       ??Y?$_String_iterator@V?$_String_val@U?$_Simple_types@G@std@@@std@@@std@@QAEAAV01@H@Z 10032c4b f i libcpmt:wlocale.obj
 0001:00031c5f       ??Y?$_String_iterator@V?$_String_val@U?$_Simple_types@_W@std@@@std@@@std@@QAEAAV01@H@Z 10032c5f f i libcpmt:wlocale.obj
 0001:00031c73       ??Y?$basic_string@DU?$char_traits@D@std@@V?$allocator@D@2@@std@@QAEAAV01@D@Z 10032c73 f i libcpmt:wlocale.obj
 0001:00031c8d       ??Y?$basic_string@GU?$char_traits@G@std@@V?$allocator@G@2@@std@@QAEAAV01@ABV01@@Z 10032c8d f i libcpmt:wlocale.obj
 0001:00031c98       ??Y?$basic_string@_WU?$char_traits@_W@std@@V?$allocator@_W@2@@std@@QAEAAV01@ABV01@@Z 10032c98 f i libcpmt:wlocale.obj
 0001:00031ca3       ??Z?$_String_const_iterator@V?$_String_val@U?$_Simple_types@G@std@@@std@@@std@@QAEAAV01@H@Z 10032ca3 f i libcpmt:wlocale.obj
 0001:00031cb9       ??Z?$_String_const_iterator@V?$_String_val@U?$_Simple_types@_W@std@@@std@@@std@@QAEAAV01@H@Z 10032cb9 f i libcpmt:wlocale.obj
 0001:00031ccf       ??Z?$_String_iterator@V?$_String_val@U?$_Simple_types@G@std@@@std@@@std@@QAEAAV01@H@Z 10032ccf f i libcpmt:wlocale.obj
 0001:00031ce5       ??Z?$_String_iterator@V?$_String_val@U?$_Simple_types@_W@std@@@std@@@std@@QAEAAV01@H@Z 10032ce5 f i libcpmt:wlocale.obj
 0001:00031cfb       ??_E?$_Mpunct@G@std@@MAEPAXI@Z 10032cfb f i libcpmt:wlocale.obj
 0001:00031cfb       ??_G?$_Mpunct@G@std@@MAEPAXI@Z 10032cfb f i libcpmt:wlocale.obj
 0001:00031d34       ??_E?$_Mpunct@_W@std@@MAEPAXI@Z 10032d34 f i libcpmt:wlocale.obj
 0001:00031d34       ??_G?$_Mpunct@_W@std@@MAEPAXI@Z 10032d34 f i libcpmt:wlocale.obj
 0001:00031d6d       ??_E?$codecvt@GDU_Mbstatet@@@std@@MAEPAXI@Z 10032d6d f i libcpmt:wlocale.obj
 0001:00031d6d       ??_G?$codecvt@GDU_Mbstatet@@@std@@MAEPAXI@Z 10032d6d f i libcpmt:wlocale.obj
 0001:00031d98       ??_G?$codecvt@_WDU_Mbstatet@@@std@@MAEPAXI@Z 10032d98 f i libcpmt:wlocale.obj
 0001:00031d98       ??_E?$codecvt@_WDU_Mbstatet@@@std@@MAEPAXI@Z 10032d98 f i libcpmt:wlocale.obj
 0001:00031dc3       ??_E?$collate@G@std@@MAEPAXI@Z 10032dc3 f i libcpmt:wlocale.obj
 0001:00031dc3       ??_G?$collate@G@std@@MAEPAXI@Z 10032dc3 f i libcpmt:wlocale.obj
 0001:00031ded       ??_G?$collate@_W@std@@MAEPAXI@Z 10032ded f i libcpmt:wlocale.obj
 0001:00031ded       ??_E?$collate@_W@std@@MAEPAXI@Z 10032ded f i libcpmt:wlocale.obj
 0001:00031e17       ??_E?$ctype@G@std@@MAEPAXI@Z 10032e17 f i libcpmt:wlocale.obj
 0001:00031e17       ??_G?$ctype@G@std@@MAEPAXI@Z 10032e17 f i libcpmt:wlocale.obj
 0001:00031e41       ??_E?$ctype@_W@std@@MAEPAXI@Z 10032e41 f i libcpmt:wlocale.obj
 0001:00031e41       ??_G?$ctype@_W@std@@MAEPAXI@Z 10032e41 f i libcpmt:wlocale.obj
 0001:00031e6b       ??_G?$messages@G@std@@MAEPAXI@Z 10032e6b f i libcpmt:wlocale.obj
 0001:00031e6b       ??_E?$messages@G@std@@MAEPAXI@Z 10032e6b f i libcpmt:wlocale.obj
 0001:00031e96       ??_G?$messages@_W@std@@MAEPAXI@Z 10032e96 f i libcpmt:wlocale.obj
 0001:00031e96       ??_E?$messages@_W@std@@MAEPAXI@Z 10032e96 f i libcpmt:wlocale.obj
 0001:00031ec1       ??_E?$money_get@GV?$istreambuf_iterator@GU?$char_traits@G@std@@@std@@@std@@MAEPAXI@Z 10032ec1 f i libcpmt:wlocale.obj
 0001:00031ec1       ??_G?$money_get@GV?$istreambuf_iterator@GU?$char_traits@G@std@@@std@@@std@@MAEPAXI@Z 10032ec1 f i libcpmt:wlocale.obj
 0001:00031eec       ??_G?$money_get@_WV?$istreambuf_iterator@_WU?$char_traits@_W@std@@@std@@@std@@MAEPAXI@Z 10032eec f i libcpmt:wlocale.obj
 0001:00031eec       ??_E?$money_get@_WV?$istreambuf_iterator@_WU?$char_traits@_W@std@@@std@@@std@@MAEPAXI@Z 10032eec f i libcpmt:wlocale.obj
 0001:00031f17       ??_G?$money_put@GV?$ostreambuf_iterator@GU?$char_traits@G@std@@@std@@@std@@MAEPAXI@Z 10032f17 f i libcpmt:wlocale.obj
 0001:00031f17       ??_E?$money_put@GV?$ostreambuf_iterator@GU?$char_traits@G@std@@@std@@@std@@MAEPAXI@Z 10032f17 f i libcpmt:wlocale.obj
 0001:00031f42       ??_G?$money_put@_WV?$ostreambuf_iterator@_WU?$char_traits@_W@std@@@std@@@std@@MAEPAXI@Z 10032f42 f i libcpmt:wlocale.obj
 0001:00031f42       ??_E?$money_put@_WV?$ostreambuf_iterator@_WU?$char_traits@_W@std@@@std@@@std@@MAEPAXI@Z 10032f42 f i libcpmt:wlocale.obj
 0001:00031f6d       ??_E?$moneypunct@G$00@std@@MAEPAXI@Z 10032f6d f i libcpmt:wlocale.obj
 0001:00031f6d       ??_G?$moneypunct@G$00@std@@MAEPAXI@Z 10032f6d f i libcpmt:wlocale.obj
 0001:00031fa6       ??_G?$moneypunct@G$0A@@std@@MAEPAXI@Z 10032fa6 f i libcpmt:wlocale.obj
 0001:00031fa6       ??_E?$moneypunct@G$0A@@std@@MAEPAXI@Z 10032fa6 f i libcpmt:wlocale.obj
 0001:00031fdf       ??_E?$moneypunct@_W$00@std@@MAEPAXI@Z 10032fdf f i libcpmt:wlocale.obj
 0001:00031fdf       ??_G?$moneypunct@_W$00@std@@MAEPAXI@Z 10032fdf f i libcpmt:wlocale.obj
 0001:00032018       ??_G?$moneypunct@_W$0A@@std@@MAEPAXI@Z 10033018 f i libcpmt:wlocale.obj
 0001:00032018       ??_E?$moneypunct@_W$0A@@std@@MAEPAXI@Z 10033018 f i libcpmt:wlocale.obj
 0001:00032051       ??_G?$num_get@GV?$istreambuf_iterator@GU?$char_traits@G@std@@@std@@@std@@MAEPAXI@Z 10033051 f i libcpmt:wlocale.obj
 0001:00032051       ??_E?$num_get@GV?$istreambuf_iterator@GU?$char_traits@G@std@@@std@@@std@@MAEPAXI@Z 10033051 f i libcpmt:wlocale.obj
 0001:0003207c       ??_G?$num_get@_WV?$istreambuf_iterator@_WU?$char_traits@_W@std@@@std@@@std@@MAEPAXI@Z 1003307c f i libcpmt:wlocale.obj
 0001:0003207c       ??_E?$num_get@_WV?$istreambuf_iterator@_WU?$char_traits@_W@std@@@std@@@std@@MAEPAXI@Z 1003307c f i libcpmt:wlocale.obj
 0001:000320a7       ??_G?$num_put@GV?$ostreambuf_iterator@GU?$char_traits@G@std@@@std@@@std@@MAEPAXI@Z 100330a7 f i libcpmt:wlocale.obj
 0001:000320a7       ??_E?$num_put@GV?$ostreambuf_iterator@GU?$char_traits@G@std@@@std@@@std@@MAEPAXI@Z 100330a7 f i libcpmt:wlocale.obj
 0001:000320d2       ??_G?$num_put@_WV?$ostreambuf_iterator@_WU?$char_traits@_W@std@@@std@@@std@@MAEPAXI@Z 100330d2 f i libcpmt:wlocale.obj
 0001:000320d2       ??_E?$num_put@_WV?$ostreambuf_iterator@_WU?$char_traits@_W@std@@@std@@@std@@MAEPAXI@Z 100330d2 f i libcpmt:wlocale.obj
 0001:000320fd       ??_G?$numpunct@G@std@@MAEPAXI@Z 100330fd f i libcpmt:wlocale.obj
 0001:000320fd       ??_E?$numpunct@G@std@@MAEPAXI@Z 100330fd f i libcpmt:wlocale.obj
 0001:00032136       ??_G?$numpunct@_W@std@@MAEPAXI@Z 10033136 f i libcpmt:wlocale.obj
 0001:00032136       ??_E?$numpunct@_W@std@@MAEPAXI@Z 10033136 f i libcpmt:wlocale.obj
 0001:0003216f       ??_G?$time_get@GV?$istreambuf_iterator@GU?$char_traits@G@std@@@std@@@std@@MAEPAXI@Z 1003316f f i libcpmt:wlocale.obj
 0001:0003216f       ??_E?$time_get@GV?$istreambuf_iterator@GU?$char_traits@G@std@@@std@@@std@@MAEPAXI@Z 1003316f f i libcpmt:wlocale.obj
 0001:000321a8       ??_G?$time_get@_WV?$istreambuf_iterator@_WU?$char_traits@_W@std@@@std@@@std@@MAEPAXI@Z 100331a8 f i libcpmt:wlocale.obj
 0001:000321a8       ??_E?$time_get@_WV?$istreambuf_iterator@_WU?$char_traits@_W@std@@@std@@@std@@MAEPAXI@Z 100331a8 f i libcpmt:wlocale.obj
 0001:000321e1       ??_G?$time_put@GV?$ostreambuf_iterator@GU?$char_traits@G@std@@@std@@@std@@MAEPAXI@Z 100331e1 f i libcpmt:wlocale.obj
 0001:000321e1       ??_E?$time_put@GV?$ostreambuf_iterator@GU?$char_traits@G@std@@@std@@@std@@MAEPAXI@Z 100331e1 f i libcpmt:wlocale.obj
 0001:0003220b       ??_E?$time_put@_WV?$ostreambuf_iterator@_WU?$char_traits@_W@std@@@std@@@std@@MAEPAXI@Z 1003320b f i libcpmt:wlocale.obj
 0001:0003220b       ??_G?$time_put@_WV?$ostreambuf_iterator@_WU?$char_traits@_W@std@@@std@@@std@@MAEPAXI@Z 1003320b f i libcpmt:wlocale.obj
 0001:00032235       ??_Emessages_base@std@@UAEPAXI@Z 10033235 f i libcpmt:wlocale.obj
 0001:00032235       ??_Gmessages_base@std@@UAEPAXI@Z 10033235 f i libcpmt:wlocale.obj
 0001:00032260       ??_Emoney_base@std@@UAEPAXI@Z 10033260 f i libcpmt:wlocale.obj
 0001:00032260       ??_Gmoney_base@std@@UAEPAXI@Z 10033260 f i libcpmt:wlocale.obj
 0001:0003228b       ??_Etime_base@std@@UAEPAXI@Z 1003328b f i libcpmt:wlocale.obj
 0001:0003228b       ??_Gtime_base@std@@UAEPAXI@Z 1003328b f i libcpmt:wlocale.obj
 0001:000322b6       ?_Adopt@_Iterator_base0@std@@QAEXPBX@Z 100332b6 f i libcpmt:wlocale.obj
 0001:000322b9       ?_C_str@?$_Yarn@_W@std@@QBEPB_WXZ 100332b9 f i libcpmt:wlocale.obj
 0001:000322c5       ?_Calculate_growth@?$basic_string@GU?$char_traits@G@std@@V?$allocator@G@2@@std@@ABEII@Z 100332c5 f i libcpmt:wlocale.obj
 0001:000322e5       ?_Calculate_growth@?$basic_string@GU?$char_traits@G@std@@V?$allocator@G@2@@std@@CAIIII@Z 100332e5 f i libcpmt:wlocale.obj
 0001:00032321       ?_Calculate_growth@?$basic_string@_WU?$char_traits@_W@std@@V?$allocator@_W@2@@std@@ABEII@Z 10033321 f i libcpmt:wlocale.obj
 0001:00032341       ?_Calculate_growth@?$basic_string@_WU?$char_traits@_W@std@@V?$allocator@_W@2@@std@@CAIIII@Z 10033341 f i libcpmt:wlocale.obj
 0001:0003237d       ?_Check_offset@?$_String_val@U?$_Simple_types@G@std@@@std@@QBEXI@Z 1003337d f i libcpmt:wlocale.obj
 0001:00032397       ?_Check_offset@?$_String_val@U?$_Simple_types@_W@std@@@std@@QBEXI@Z 10033397 f i libcpmt:wlocale.obj
 0001:000323b1       ?_Compat@?$_String_const_iterator@V?$_String_val@U?$_Simple_types@G@std@@@std@@@std@@QBEXABV12@@Z 100333b1 f i libcpmt:wlocale.obj
 0001:000323b4       ?_Compat@?$_String_const_iterator@V?$_String_val@U?$_Simple_types@_W@std@@@std@@@std@@QBEXABV12@@Z 100333b4 f i libcpmt:wlocale.obj
 0001:000323b7       ?_Construct_lv_contents@?$basic_string@GU?$char_traits@G@std@@V?$allocator@G@2@@std@@AAEXABV12@@Z 100333b7 f i libcpmt:wlocale.obj
 0001:0003243b       ?_Construct_lv_contents@?$basic_string@_WU?$char_traits@_W@std@@V?$allocator@_W@2@@std@@AAEXABV12@@Z 1003343b f i libcpmt:wlocale.obj
 0001:000324bf       ?_Donarrow@?$ctype@G@std@@IBEDGD@Z 100334bf f i libcpmt:wlocale.obj
 0001:00032519       ?_Donarrow@?$ctype@_W@std@@IBED_WD@Z 10033519 f i libcpmt:wlocale.obj
 0001:00032573       ?_Dowiden@?$ctype@G@std@@IBEGD@Z 10033573 f i libcpmt:wlocale.obj
 0001:000325bc       ?_Dowiden@?$ctype@_W@std@@IBE_WD@Z 100335bc f i libcpmt:wlocale.obj
 0001:00032603       ?_Empty@?$_Yarn@_W@std@@QBE_NXZ 10033603 f i libcpmt:wlocale.obj
 0001:0003260a       ?_Eos@?$basic_string@GU?$char_traits@G@std@@V?$allocator@G@2@@std@@AAEXI@Z 1003360a f i libcpmt:wlocale.obj
 0001:0003262e       ?_Eos@?$basic_string@_WU?$char_traits@_W@std@@V?$allocator@_W@2@@std@@AAEXI@Z 1003362e f i libcpmt:wlocale.obj
 0001:00032652       ?_Ffmt@?$num_put@GV?$ostreambuf_iterator@GU?$char_traits@G@std@@@std@@@std@@ABAPADPADDH@Z 10033652 f i libcpmt:wlocale.obj
 0001:0003270c       ?_Ffmt@?$num_put@_WV?$ostreambuf_iterator@_WU?$char_traits@_W@std@@@std@@@std@@ABAPADPADDH@Z 1003370c f i libcpmt:wlocale.obj
 0001:000327c6       ?_Fnv1a_append_bytes@std@@YAIIQBEI@Z 100337c6 f i libcpmt:wlocale.obj
 0001:000327f8       ?_Fput@?$num_put@GV?$ostreambuf_iterator@GU?$char_traits@G@std@@@std@@@std@@ABA?AV?$ostreambuf_iterator@GU?$char_traits@G@std@@@2@V32@AAVios_base@2@GPBDI@Z 100337f8 f i libcpmt:wlocale.obj
 0001:00032bbf       ?_Fput@?$num_put@_WV?$ostreambuf_iterator@_WU?$char_traits@_W@std@@@std@@@std@@ABA?AV?$ostreambuf_iterator@_WU?$char_traits@_W@std@@@2@V32@AAVios_base@2@_WPBDI@Z 10033bbf f i libcpmt:wlocale.obj
 0001:00032f86       ?_Get_first@?$_Compressed_pair@V?$allocator@G@std@@V?$_String_val@U?$_Simple_types@G@std@@@2@$00@std@@QAEAAV?$allocator@G@2@XZ 10033f86 f i libcpmt:wlocale.obj
 0001:00032f89       ?_Get_first@?$_Compressed_pair@V?$allocator@G@std@@V?$_String_val@U?$_Simple_types@G@std@@@2@$00@std@@QBEABV?$allocator@G@2@XZ 10033f89 f i libcpmt:wlocale.obj
 0001:00032f8c       ?_Get_first@?$_Compressed_pair@V?$allocator@_W@std@@V?$_String_val@U?$_Simple_types@_W@std@@@2@$00@std@@QAEAAV?$allocator@_W@2@XZ 10033f8c f i libcpmt:wlocale.obj
 0001:00032f8f       ?_Get_first@?$_Compressed_pair@V?$allocator@_W@std@@V?$_String_val@U?$_Simple_types@_W@std@@@2@$00@std@@QBEABV?$allocator@_W@2@XZ 10033f8f f i libcpmt:wlocale.obj
 0001:00032f92       ?_Getal@?$basic_string@GU?$char_traits@G@std@@V?$allocator@G@2@@std@@AAEAAV?$allocator@G@2@XZ 10033f92 f i libcpmt:wlocale.obj
 0001:00032f95       ?_Getal@?$basic_string@GU?$char_traits@G@std@@V?$allocator@G@2@@std@@ABEABV?$allocator@G@2@XZ 10033f95 f i libcpmt:wlocale.obj
 0001:00032f98       ?_Getal@?$basic_string@_WU?$char_traits@_W@std@@V?$allocator@_W@2@@std@@AAEAAV?$allocator@_W@2@XZ 10033f98 f i libcpmt:wlocale.obj
 0001:00032f9b       ?_Getal@?$basic_string@_WU?$char_traits@_W@std@@V?$allocator@_W@2@@std@@ABEABV?$allocator@_W@2@XZ 10033f9b f i libcpmt:wlocale.obj
 0001:00032f9e       ?_Getcat@?$codecvt@GDU_Mbstatet@@@std@@SAIPAPBVfacet@locale@2@PBV42@@Z 10033f9e f i libcpmt:wlocale.obj
 0001:0003301d       ?_Getcat@?$codecvt@_WDU_Mbstatet@@@std@@SAIPAPBVfacet@locale@2@PBV42@@Z 1003401d f i libcpmt:wlocale.obj
 0001:0003309c       ?_Getcat@?$collate@G@std@@SAIPAPBVfacet@locale@2@PBV42@@Z 1003409c f i libcpmt:wlocale.obj
 0001:00033166       ?_Getcat@?$collate@_W@std@@SAIPAPBVfacet@locale@2@PBV42@@Z 10034166 f i libcpmt:wlocale.obj
 0001:00033230       ?_Getcat@?$ctype@G@std@@SAIPAPBVfacet@locale@2@PBV42@@Z 10034230 f i libcpmt:wlocale.obj
 0001:000332bc       ?_Getcat@?$ctype@_W@std@@SAIPAPBVfacet@locale@2@PBV42@@Z 100342bc f i libcpmt:wlocale.obj
 0001:00033348       ?_Getcat@?$messages@G@std@@SAIPAPBVfacet@locale@2@PBV42@@Z 10034348 f i libcpmt:wlocale.obj
 0001:000333ca       ?_Getcat@?$messages@_W@std@@SAIPAPBVfacet@locale@2@PBV42@@Z 100343ca f i libcpmt:wlocale.obj
 0001:0003344c       ?_Getcat@?$money_get@GV?$istreambuf_iterator@GU?$char_traits@G@std@@@std@@@std@@SAIPAPBVfacet@locale@2@PBV42@@Z 1003444c f i libcpmt:wlocale.obj
 0001:000334ce       ?_Getcat@?$money_get@_WV?$istreambuf_iterator@_WU?$char_traits@_W@std@@@std@@@std@@SAIPAPBVfacet@locale@2@PBV42@@Z 100344ce f i libcpmt:wlocale.obj
 0001:00033550       ?_Getcat@?$money_put@GV?$ostreambuf_iterator@GU?$char_traits@G@std@@@std@@@std@@SAIPAPBVfacet@locale@2@PBV42@@Z 10034550 f i libcpmt:wlocale.obj
 0001:000335d2       ?_Getcat@?$money_put@_WV?$ostreambuf_iterator@_WU?$char_traits@_W@std@@@std@@@std@@SAIPAPBVfacet@locale@2@PBV42@@Z 100345d2 f i libcpmt:wlocale.obj
 0001:00033654       ?_Getcat@?$moneypunct@G$00@std@@SAIPAPBVfacet@locale@2@PBV42@@Z 10034654 f i libcpmt:wlocale.obj
 0001:000336f9       ?_Getcat@?$moneypunct@G$0A@@std@@SAIPAPBVfacet@locale@2@PBV42@@Z 100346f9 f i libcpmt:wlocale.obj
 0001:0003379f       ?_Getcat@?$moneypunct@_W$00@std@@SAIPAPBVfacet@locale@2@PBV42@@Z 1003479f f i libcpmt:wlocale.obj
 0001:00033844       ?_Getcat@?$moneypunct@_W$0A@@std@@SAIPAPBVfacet@locale@2@PBV42@@Z 10034844 f i libcpmt:wlocale.obj
 0001:000338ea       ?_Getcat@?$num_get@GV?$istreambuf_iterator@GU?$char_traits@G@std@@@std@@@std@@SAIPAPBVfacet@locale@2@PBV42@@Z 100348ea f i libcpmt:wlocale.obj
 0001:0003396c       ?_Getcat@?$num_get@_WV?$istreambuf_iterator@_WU?$char_traits@_W@std@@@std@@@std@@SAIPAPBVfacet@locale@2@PBV42@@Z 1003496c f i libcpmt:wlocale.obj
 0001:000339ee       ?_Getcat@?$num_put@GV?$ostreambuf_iterator@GU?$char_traits@G@std@@@std@@@std@@SAIPAPBVfacet@locale@2@PBV42@@Z 100349ee f i libcpmt:wlocale.obj
 0001:00033a70       ?_Getcat@?$num_put@_WV?$ostreambuf_iterator@_WU?$char_traits@_W@std@@@std@@@std@@SAIPAPBVfacet@locale@2@PBV42@@Z 10034a70 f i libcpmt:wlocale.obj
 0001:00033af2       ?_Getcat@?$numpunct@G@std@@SAIPAPBVfacet@locale@2@PBV42@@Z 10034af2 f i libcpmt:wlocale.obj
 0001:00033b8b       ?_Getcat@?$numpunct@_W@std@@SAIPAPBVfacet@locale@2@PBV42@@Z 10034b8b f i libcpmt:wlocale.obj
 0001:00033c24       ?_Getcat@?$time_get@GV?$istreambuf_iterator@GU?$char_traits@G@std@@@std@@@std@@SAIPAPBVfacet@locale@2@PBV42@@Z 10034c24 f i libcpmt:wlocale.obj
 0001:00033cab       ?_Getcat@?$time_get@_WV?$istreambuf_iterator@_WU?$char_traits@_W@std@@@std@@@std@@SAIPAPBVfacet@locale@2@PBV42@@Z 10034cab f i libcpmt:wlocale.obj
 0001:00033d32       ?_Getcat@?$time_put@GV?$ostreambuf_iterator@GU?$char_traits@G@std@@@std@@@std@@SAIPAPBVfacet@locale@2@PBV42@@Z 10034d32 f i libcpmt:wlocale.obj
 0001:00033dc3       ?_Getcat@?$time_put@_WV?$ostreambuf_iterator@_WU?$char_traits@_W@std@@@std@@@std@@SAIPAPBVfacet@locale@2@PBV42@@Z 10034dc3 f i libcpmt:wlocale.obj
 0001:00033e54       ?_Getcoll@_Locinfo@std@@QBE?AU_Collvec@@XZ 10034e54 f i libcpmt:wlocale.obj
 0001:00033e6f       ?_Getdateorder@_Locinfo@std@@QBEHXZ 10034e6f f i libcpmt:wlocale.obj
 0001:00033e74       ?_Getdays@_Locinfo@std@@QBEPBDXZ 10034e74 f i libcpmt:wlocale.obj
 0001:00033ead       ?_Getffld@?$num_get@GV?$istreambuf_iterator@GU?$char_traits@G@std@@@std@@@std@@ABAHPADAAV?$istreambuf_iterator@GU?$char_traits@G@std@@@2@1AAVios_base@2@PAH@Z 10034ead f i libcpmt:wlocale.obj
 0001:00034764       ?_Getffld@?$num_get@_WV?$istreambuf_iterator@_WU?$char_traits@_W@std@@@std@@@std@@ABAHPADAAV?$istreambuf_iterator@_WU?$char_traits@_W@std@@@2@1AAVios_base@2@PAH@Z 10035764 f i libcpmt:wlocale.obj
 0001:0003501b       ?_Getffldx@?$num_get@GV?$istreambuf_iterator@GU?$char_traits@G@std@@@std@@@std@@ABAHPADAAV?$istreambuf_iterator@GU?$char_traits@G@std@@@2@1AAVios_base@2@PAH@Z 1003601b f i libcpmt:wlocale.obj
 0001:00035974       ?_Getffldx@?$num_get@_WV?$istreambuf_iterator@_WU?$char_traits@_W@std@@@std@@@std@@ABAHPADAAV?$istreambuf_iterator@_WU?$char_traits@_W@std@@@2@1AAVios_base@2@PAH@Z 10036974 f i libcpmt:wlocale.obj
 0001:000362cd       ?_Getfmt@?$time_get@GV?$istreambuf_iterator@GU?$char_traits@G@std@@@std@@@std@@IBE?AV?$istreambuf_iterator@GU?$char_traits@G@std@@@2@V32@0AAVios_base@2@AAHPAUtm@@PBD@Z 100372cd f i libcpmt:wlocale.obj
 0001:00036477       ?_Getfmt@?$time_get@_WV?$istreambuf_iterator@_WU?$char_traits@_W@std@@@std@@@std@@IBE?AV?$istreambuf_iterator@_WU?$char_traits@_W@std@@@2@V32@0AAVios_base@2@AAHPAUtm@@PBD@Z 10037477 f i libcpmt:wlocale.obj
 0001:00036621       ?_Getifld@?$num_get@GV?$istreambuf_iterator@GU?$char_traits@G@std@@@std@@@std@@ABAHPADAAV?$istreambuf_iterator@GU?$char_traits@G@std@@@2@1HABVlocale@2@@Z 10037621 f i libcpmt:wlocale.obj
 0001:00036aec       ?_Getifld@?$num_get@_WV?$istreambuf_iterator@_WU?$char_traits@_W@std@@@std@@@std@@ABAHPADAAV?$istreambuf_iterator@_WU?$char_traits@_W@std@@@2@1HABVlocale@2@@Z 10037aec f i libcpmt:wlocale.obj
 0001:00036fb7       ?_Getint@?$time_get@GV?$istreambuf_iterator@GU?$char_traits@G@std@@@std@@@std@@ABAHAAV?$istreambuf_iterator@GU?$char_traits@G@std@@@2@0HHAAHABV?$ctype@G@2@@Z 10037fb7 f i libcpmt:wlocale.obj
 0001:00037264       ?_Getint@?$time_get@_WV?$istreambuf_iterator@_WU?$char_traits@_W@std@@@std@@@std@@ABAHAAV?$istreambuf_iterator@_WU?$char_traits@_W@std@@@2@0HHAAHABV?$ctype@_W@2@@Z 10038264 f i libcpmt:wlocale.obj
 0001:00037511       ?_Getmfld@?$money_get@GV?$istreambuf_iterator@GU?$char_traits@G@std@@@std@@@std@@ABE?AV?$basic_string@DU?$char_traits@D@std@@V?$allocator@D@2@@2@AAV?$istreambuf_iterator@GU?$char_traits@G@std@@@2@0_NAAVios_base@2@AAY0M@G@Z 10038511 f i libcpmt:wlocale.obj
 0001:000382f4       ?_Getmfld@?$money_get@_WV?$istreambuf_iterator@_WU?$char_traits@_W@std@@@std@@@std@@ABE?AV?$basic_string@DU?$char_traits@D@std@@V?$allocator@D@2@@2@AAV?$istreambuf_iterator@_WU?$char_traits@_W@std@@@2@0_NAAVios_base@2@AAY0M@_W@Z 100392f4 f i libcpmt:wlocale.obj
 0001:000390d7       ?_Getmonths@_Locinfo@std@@QBEPBDXZ 1003a0d7 f i libcpmt:wlocale.obj
 0001:00039110       ?_Getptr@_Timevec@std@@QBEPAXXZ 1003a110 f i libcpmt:wlocale.obj
 0001:00039113       ?_Getvals@?$_Mpunct@_W@std@@IAEX_WPBUlconv@@@Z 1003a113 f i libcpmt:wlocale.obj
 0001:0003919a       ?_Getvals@?$numpunct@_W@std@@IAEX_WPBUlconv@@U_Cvtvec@@@Z 1003a19a f i libcpmt:wlocale.obj
 0001:000391bf       ?_Gnavail@?$basic_streambuf@GU?$char_traits@G@std@@@std@@IBE_JXZ 1003a1bf f i libcpmt:wlocale.obj
 0001:000391d5       ?_Gnavail@?$basic_streambuf@_WU?$char_traits@_W@std@@@std@@IBE_JXZ 1003a1d5 f i libcpmt:wlocale.obj
 0001:000391eb       ?_Gninc@?$basic_streambuf@GU?$char_traits@G@std@@@std@@IAEPAGXZ 1003a1eb f i libcpmt:wlocale.obj
 0001:000391ff       ?_Gninc@?$basic_streambuf@_WU?$char_traits@_W@std@@@std@@IAEPA_WXZ 1003a1ff f i libcpmt:wlocale.obj
 0001:00039213       ?_Ifmt@?$num_put@GV?$ostreambuf_iterator@GU?$char_traits@G@std@@@std@@@std@@ABAPADPADPBDH@Z 1003a213 f i libcpmt:wlocale.obj
 0001:000392a5       ?_Ifmt@?$num_put@_WV?$ostreambuf_iterator@_WU?$char_traits@_W@std@@@std@@@std@@ABAPADPADPBDH@Z 1003a2a5 f i libcpmt:wlocale.obj
 0001:00039337       ?_Inc@?$istreambuf_iterator@GU?$char_traits@G@std@@@std@@AAEXXZ 1003a337 f i libcpmt:wlocale.obj
 0001:00039366       ?_Inc@?$istreambuf_iterator@_WU?$char_traits@_W@std@@@std@@AAEXXZ 1003a366 f i libcpmt:wlocale.obj
 0001:00039395       ?_Init@?$_Mpunct@G@std@@IAEXABV_Locinfo@2@_N@Z 1003a395 f i libcpmt:wlocale.obj
 0001:00039492       ?_Init@?$_Mpunct@_W@std@@IAEXABV_Locinfo@2@_N@Z 1003a492 f i libcpmt:wlocale.obj
 0001:0003958f       ?_Init@?$codecvt@GDU_Mbstatet@@@std@@IAEXABV_Locinfo@2@@Z 1003a58f f i libcpmt:wlocale.obj
 0001:000395bc       ?_Init@?$codecvt@_WDU_Mbstatet@@@std@@IAEXABV_Locinfo@2@@Z 1003a5bc f i libcpmt:wlocale.obj
 0001:000395e9       ?_Init@?$collate@G@std@@IAEXABV_Locinfo@2@@Z 1003a5e9 f i libcpmt:wlocale.obj
 0001:000395ff       ?_Init@?$collate@_W@std@@IAEXABV_Locinfo@2@@Z 1003a5ff f i libcpmt:wlocale.obj
 0001:00039615       ?_Init@?$ctype@G@std@@IAEXABV_Locinfo@2@@Z 1003a615 f i libcpmt:wlocale.obj
 0001:0003965c       ?_Init@?$ctype@_W@std@@IAEXABV_Locinfo@2@@Z 1003a65c f i libcpmt:wlocale.obj
 0001:000396a3       ?_Init@?$messages@G@std@@IAEXABV_Locinfo@2@@Z 1003a6a3 f i libcpmt:wlocale.obj
 0001:000396a6       ?_Init@?$messages@_W@std@@IAEXABV_Locinfo@2@@Z 1003a6a6 f i libcpmt:wlocale.obj
 0001:000396a9       ?_Init@?$money_get@GV?$istreambuf_iterator@GU?$char_traits@G@std@@@std@@@std@@IAEXABV_Locinfo@2@@Z 1003a6a9 f i libcpmt:wlocale.obj
 0001:000396ac       ?_Init@?$money_get@_WV?$istreambuf_iterator@_WU?$char_traits@_W@std@@@std@@@std@@IAEXABV_Locinfo@2@@Z 1003a6ac f i libcpmt:wlocale.obj
 0001:000396af       ?_Init@?$money_put@GV?$ostreambuf_iterator@GU?$char_traits@G@std@@@std@@@std@@IAEXABV_Locinfo@2@@Z 1003a6af f i libcpmt:wlocale.obj
 0001:000396b2       ?_Init@?$money_put@_WV?$ostreambuf_iterator@_WU?$char_traits@_W@std@@@std@@@std@@IAEXABV_Locinfo@2@@Z 1003a6b2 f i libcpmt:wlocale.obj
 0001:000396b5       ?_Init@?$num_get@GV?$istreambuf_iterator@GU?$char_traits@G@std@@@std@@@std@@IAEXABV_Locinfo@2@@Z 1003a6b5 f i libcpmt:wlocale.obj
 0001:000396b8       ?_Init@?$num_get@_WV?$istreambuf_iterator@_WU?$char_traits@_W@std@@@std@@@std@@IAEXABV_Locinfo@2@@Z 1003a6b8 f i libcpmt:wlocale.obj
 0001:000396bb       ?_Init@?$num_put@GV?$ostreambuf_iterator@GU?$char_traits@G@std@@@std@@@std@@IAEXABV_Locinfo@2@@Z 1003a6bb f i libcpmt:wlocale.obj
 0001:000396be       ?_Init@?$num_put@_WV?$ostreambuf_iterator@_WU?$char_traits@_W@std@@@std@@@std@@IAEXABV_Locinfo@2@@Z 1003a6be f i libcpmt:wlocale.obj
 0001:000396c1       ?_Init@?$numpunct@G@std@@IAEXABV_Locinfo@2@_N@Z 1003a6c1 f i libcpmt:wlocale.obj
 0001:000397d0       ?_Init@?$numpunct@_W@std@@IAEXABV_Locinfo@2@_N@Z 1003a7d0 f i libcpmt:wlocale.obj
 0001:000398d5       ?_Init@?$time_get@GV?$istreambuf_iterator@GU?$char_traits@G@std@@@std@@@std@@IAEXABV_Locinfo@2@@Z 1003a8d5 f i libcpmt:wlocale.obj
 0001:0003991b       ?_Init@?$time_get@_WV?$istreambuf_iterator@_WU?$char_traits@_W@std@@@std@@@std@@IAEXABV_Locinfo@2@@Z 1003a91b f i libcpmt:wlocale.obj
 0001:00039961       ?_Init@?$time_put@GV?$ostreambuf_iterator@GU?$char_traits@G@std@@@std@@@std@@IAEXABV_Locinfo@2@@Z 1003a961 f i libcpmt:wlocale.obj
 0001:00039994       ?_Init@?$time_put@_WV?$ostreambuf_iterator@_WU?$char_traits@_W@std@@@std@@@std@@IAEXABV_Locinfo@2@@Z 1003a994 f i libcpmt:wlocale.obj
 0001:000399c7       ?_Iput@?$num_put@GV?$ostreambuf_iterator@GU?$char_traits@G@std@@@std@@@std@@ABA?AV?$ostreambuf_iterator@GU?$char_traits@G@std@@@2@V32@AAVios_base@2@GPADI@Z 1003a9c7 f i libcpmt:wlocale.obj
 0001:00039d11       ?_Iput@?$num_put@_WV?$ostreambuf_iterator@_WU?$char_traits@_W@std@@@std@@@std@@ABA?AV?$ostreambuf_iterator@_WU?$char_traits@_W@std@@@2@V32@AAVios_base@2@_WPADI@Z 1003ad11 f i libcpmt:wlocale.obj
 0001:0003a05b       ?_Large_string_engaged@?$_String_val@U?$_Simple_types@G@std@@@std@@QBE_NXZ 1003b05b f i libcpmt:wlocale.obj
 0001:0003a066       ?_Large_string_engaged@?$_String_val@U?$_Simple_types@_W@std@@@std@@QBE_NXZ 1003b066 f i libcpmt:wlocale.obj
 0001:0003a071       ?_Makeushloc@_Locimp@locale@std@@CAXABV_Locinfo@3@HPAV123@PBV23@@Z 1003b071 f   libcpmt:wlocale.obj
 0001:0003a6ee       ?_Makewloc@_Locimp@locale@std@@CAXABV_Locinfo@3@HPAV123@PBV23@@Z 1003b6ee f   libcpmt:wlocale.obj
 0001:0003ad6b       ?_Maklocwcs@std@@YAPA_WPB_W@Z 1003bd6b f i libcpmt:wlocale.obj
 0001:0003adc6       ?_Makpat@?$_Mpunct@G@std@@AAEXAAUpattern@money_base@2@III@Z 1003bdc6 f i libcpmt:wlocale.obj
 0001:0003ae17       ?_Makpat@?$_Mpunct@_W@std@@AAEXAAUpattern@money_base@2@III@Z 1003be17 f i libcpmt:wlocale.obj
 0001:0003ae68       ?_Memcpy_val_from@?$basic_string@GU?$char_traits@G@std@@V?$allocator@G@2@@std@@AAEXABV12@@Z 1003be68 f i libcpmt:wlocale.obj
 0001:0003ae82       ?_Memcpy_val_from@?$basic_string@_WU?$char_traits@_W@std@@V?$allocator@_W@2@@std@@AAEXABV12@@Z 1003be82 f i libcpmt:wlocale.obj
 0001:0003ae9c       ?_Move_assign@?$basic_string@GU?$char_traits@G@std@@V?$allocator@G@2@@std@@AAEXAAV12@U_Equal_allocators@2@@Z 1003be9c f i libcpmt:wlocale.obj
 0001:0003af0d       ?_Move_assign@?$basic_string@_WU?$char_traits@_W@std@@V?$allocator@_W@2@@std@@AAEXAAV12@U_Equal_allocators@2@@Z 1003bf0d f i libcpmt:wlocale.obj
 0001:0003af7e       ?_Myptr@?$_String_val@U?$_Simple_types@G@std@@@std@@QAEPAGXZ 1003bf7e f i libcpmt:wlocale.obj
 0001:0003af8b       ?_Myptr@?$_String_val@U?$_Simple_types@G@std@@@std@@QBEPBGXZ 1003bf8b f i libcpmt:wlocale.obj
 0001:0003af98       ?_Myptr@?$_String_val@U?$_Simple_types@_W@std@@@std@@QAEPA_WXZ 1003bf98 f i libcpmt:wlocale.obj
 0001:0003afa5       ?_Myptr@?$_String_val@U?$_Simple_types@_W@std@@@std@@QBEPB_WXZ 1003bfa5 f i libcpmt:wlocale.obj
 0001:0003afb2       ?_Peek@?$istreambuf_iterator@GU?$char_traits@G@std@@@std@@ABEGXZ 1003bfb2 f i libcpmt:wlocale.obj
 0001:0003afeb       ?_Peek@?$istreambuf_iterator@_WU?$char_traits@_W@std@@@std@@ABE_WXZ 1003bfeb f i libcpmt:wlocale.obj
 0001:0003b024       ?_Pnavail@?$basic_streambuf@GU?$char_traits@G@std@@@std@@IBE_JXZ 1003c024 f i libcpmt:wlocale.obj
 0001:0003b03a       ?_Pnavail@?$basic_streambuf@_WU?$char_traits@_W@std@@@std@@IBE_JXZ 1003c03a f i libcpmt:wlocale.obj
 0001:0003b050       ?_Pninc@?$basic_streambuf@GU?$char_traits@G@std@@@std@@IAEPAGXZ 1003c050 f i libcpmt:wlocale.obj
 0001:0003b064       ?_Pninc@?$basic_streambuf@_WU?$char_traits@_W@std@@@std@@IAEPA_WXZ 1003c064 f i libcpmt:wlocale.obj
 0001:0003b078       ?_Put@?$money_put@GV?$ostreambuf_iterator@GU?$char_traits@G@std@@@std@@@std@@CA?AV?$ostreambuf_iterator@GU?$char_traits@G@std@@@2@V32@V?$_String_const_iterator@V?$_String_val@U?$_Simple_types@G@std@@@std@@@2@I@Z 1003c078 f i libcpmt:wlocale.obj
 0001:0003b0bf       ?_Put@?$money_put@_WV?$ostreambuf_iterator@_WU?$char_traits@_W@std@@@std@@@std@@CA?AV?$ostreambuf_iterator@_WU?$char_traits@_W@std@@@2@V32@V?$_String_const_iterator@V?$_String_val@U?$_Simple_types@_W@std@@@std@@@2@I@Z 1003c0bf f i libcpmt:wlocale.obj
 0001:0003b106       ?_Put@?$num_put@GV?$ostreambuf_iterator@GU?$char_traits@G@std@@@std@@@std@@ABA?AV?$ostreambuf_iterator@GU?$char_traits@G@std@@@2@V32@PBGI@Z 1003c106 f i libcpmt:wlocale.obj
 0001:0003b148       ?_Put@?$num_put@_WV?$ostreambuf_iterator@_WU?$char_traits@_W@std@@@std@@@std@@ABA?AV?$ostreambuf_iterator@_WU?$char_traits@_W@std@@@2@V32@PB_WI@Z 1003c148 f i libcpmt:wlocale.obj
 0001:0003b18a       ?_Putmfld@?$money_put@GV?$ostreambuf_iterator@GU?$char_traits@G@std@@@std@@@std@@ABE?AV?$ostreambuf_iterator@GU?$char_traits@G@std@@@2@V32@_NAAVios_base@2@G1V?$basic_string@GU?$char_traits@G@std@@V?$allocator@G@2@@2@G@Z 1003c18a f i libcpmt:wlocale.obj
 0001:0003b956       ?_Putmfld@?$money_put@_WV?$ostreambuf_iterator@_WU?$char_traits@_W@std@@@std@@@std@@ABE?AV?$ostreambuf_iterator@_WU?$char_traits@_W@std@@@2@V32@_NAAVios_base@2@_W1V?$basic_string@_WU?$char_traits@_W@std@@V?$allocator@_W@2@@2@3@Z 1003c956 f i libcpmt:wlocale.obj
 0001:0003c122       ?_Rep@?$money_put@GV?$ostreambuf_iterator@GU?$char_traits@G@std@@@std@@@std@@CA?AV?$ostreambuf_iterator@GU?$char_traits@G@std@@@2@V32@GI@Z 1003d122 f i libcpmt:wlocale.obj
 0001:0003c159       ?_Rep@?$money_put@_WV?$ostreambuf_iterator@_WU?$char_traits@_W@std@@@std@@@std@@CA?AV?$ostreambuf_iterator@_WU?$char_traits@_W@std@@@2@V32@_WI@Z 1003d159 f i libcpmt:wlocale.obj
 0001:0003c190       ?_Rep@?$num_put@GV?$ostreambuf_iterator@GU?$char_traits@G@std@@@std@@@std@@ABA?AV?$ostreambuf_iterator@GU?$char_traits@G@std@@@2@V32@GI@Z 1003d190 f i libcpmt:wlocale.obj
 0001:0003c1c7       ?_Rep@?$num_put@_WV?$ostreambuf_iterator@_WU?$char_traits@_W@std@@@std@@@std@@ABA?AV?$ostreambuf_iterator@_WU?$char_traits@_W@std@@@2@V32@_WI@Z 1003d1c7 f i libcpmt:wlocale.obj
 0001:0003c1fe       ?_Swap_proxy_and_iterators@?$basic_string@GU?$char_traits@G@std@@V?$allocator@G@2@@std@@AAEXAAV12@@Z 1003d1fe f i libcpmt:wlocale.obj
 0001:0003c201       ?_Swap_proxy_and_iterators@?$basic_string@_WU?$char_traits@_W@std@@V?$allocator@_W@2@@std@@AAEXAAV12@@Z 1003d201 f i libcpmt:wlocale.obj
 0001:0003c204       ?_Take_contents@?$basic_string@GU?$char_traits@G@std@@V?$allocator@G@2@@std@@AAEXAAV12@@Z 1003d204 f i libcpmt:wlocale.obj
 0001:0003c26f       ?_Take_contents@?$basic_string@_WU?$char_traits@_W@std@@V?$allocator@_W@2@@std@@AAEXAAV12@@Z 1003d26f f i libcpmt:wlocale.obj
 0001:0003c2da       ?_Tidy@?$_Mpunct@G@std@@AAEXXZ 1003d2da f i libcpmt:wlocale.obj
 0001:0003c30c       ?_Tidy@?$_Mpunct@_W@std@@AAEXXZ 1003d30c f i libcpmt:wlocale.obj
 0001:0003c33e       ?_Tidy@?$numpunct@G@std@@AAEXXZ 1003d33e f i libcpmt:wlocale.obj
 0001:0003c366       ?_Tidy@?$numpunct@_W@std@@AAEXXZ 1003d366 f i libcpmt:wlocale.obj
 0001:0003c38e       ?_Tidy@?$time_get@GV?$istreambuf_iterator@GU?$char_traits@G@std@@@std@@@std@@AAEXXZ 1003d38e f i libcpmt:wlocale.obj
 0001:0003c3b6       ?_Tidy@?$time_get@_WV?$istreambuf_iterator@_WU?$char_traits@_W@std@@@std@@@std@@AAEXXZ 1003d3b6 f i libcpmt:wlocale.obj
 0001:0003c3de       ?_Tidy_deallocate@?$basic_string@GU?$char_traits@G@std@@V?$allocator@G@2@@std@@AAEXXZ 1003d3de f i libcpmt:wlocale.obj
 0001:0003c416       ?_Tidy_deallocate@?$basic_string@_WU?$char_traits@_W@std@@V?$allocator@_W@2@@std@@AAEXXZ 1003d416 f i libcpmt:wlocale.obj
 0001:0003c44e       ?_Tidy_init@?$basic_string@GU?$char_traits@G@std@@V?$allocator@G@2@@std@@AAEXXZ 1003d44e f i libcpmt:wlocale.obj
 0001:0003c4a3       ?_Tidy_init@?$basic_string@_WU?$char_traits@_W@std@@V?$allocator@_W@2@@std@@AAEXXZ 1003d4a3 f i libcpmt:wlocale.obj
 0001:0003c4f8       ?_W_Getdays@_Locinfo@std@@QBEPBGXZ 1003d4f8 f i libcpmt:wlocale.obj
 0001:0003c531       ?_W_Getmonths@_Locinfo@std@@QBEPBGXZ 1003d531 f i libcpmt:wlocale.obj
 0001:0003c56a       ?_W_Gettnames@_Locinfo@std@@QBE?AV_Timevec@2@XZ 1003d56a f i libcpmt:wlocale.obj
 0001:0003c581       ?_Xran@?$_String_val@U?$_Simple_types@G@std@@@std@@SAXXZ 1003d581 f i libcpmt:wlocale.obj
 0001:0003c58e       ?_Xran@?$_String_val@U?$_Simple_types@_W@std@@@std@@SAXXZ 1003d58e f i libcpmt:wlocale.obj
 0001:0003c59b       ?allocate@?$allocator@G@std@@QAEPAGI@Z 1003d59b f i libcpmt:wlocale.obj
 0001:0003c5c3       ?allocate@?$allocator@_W@std@@QAEPA_WI@Z 1003d5c3 f i libcpmt:wlocale.obj
 0001:0003c5eb       ?append@?$basic_string@GU?$char_traits@G@std@@V?$allocator@G@2@@std@@QAEAAV12@ABV12@@Z 1003d5eb f i libcpmt:wlocale.obj
 0001:0003c60e       ?append@?$basic_string@GU?$char_traits@G@std@@V?$allocator@G@2@@std@@QAEAAV12@IG@Z 1003d60e f i libcpmt:wlocale.obj
 0001:0003c67c       ?append@?$basic_string@GU?$char_traits@G@std@@V?$allocator@G@2@@std@@QAEAAV12@QBGI@Z 1003d67c f i libcpmt:wlocale.obj
 0001:0003c6ed       ?append@?$basic_string@_WU?$char_traits@_W@std@@V?$allocator@_W@2@@std@@QAEAAV12@ABV12@@Z 1003d6ed f i libcpmt:wlocale.obj
 0001:0003c710       ?append@?$basic_string@_WU?$char_traits@_W@std@@V?$allocator@_W@2@@std@@QAEAAV12@I_W@Z 1003d710 f i libcpmt:wlocale.obj
 0001:0003c77e       ?append@?$basic_string@_WU?$char_traits@_W@std@@V?$allocator@_W@2@@std@@QAEAAV12@QB_WI@Z 1003d77e f i libcpmt:wlocale.obj
 0001:0003c7ef       ?assign@?$_Char_traits@GG@std@@SAPAGQAGIG@Z 1003d7ef f i libcpmt:wlocale.obj
 0001:0003c823       ?assign@?$_Char_traits@_WG@std@@SAPA_WQA_WI_W@Z 1003d823 f i libcpmt:wlocale.obj
 0001:0003c857       ?assign@?$_WChar_traits@G@std@@SAPAGQAGIG@Z 1003d857 f i libcpmt:wlocale.obj
 0001:0003c872       ?assign@?$_WChar_traits@G@std@@SAXAAGABG@Z 1003d872 f i libcpmt:wlocale.obj
 0001:0003c887       ?assign@?$_WChar_traits@_W@std@@SAPA_WQA_WI_W@Z 1003d887 f i libcpmt:wlocale.obj
 0001:0003c8a2       ?assign@?$_WChar_traits@_W@std@@SAXAA_WAB_W@Z 1003d8a2 f i libcpmt:wlocale.obj
 0001:0003c8b7       ?assign@?$basic_string@GU?$char_traits@G@std@@V?$allocator@G@2@@std@@QAEAAV12@$$QAV12@@Z 1003d8b7 f i libcpmt:wlocale.obj
 0001:0003c8d1       ?assign@?$basic_string@GU?$char_traits@G@std@@V?$allocator@G@2@@std@@QAEAAV12@IG@Z 1003d8d1 f i libcpmt:wlocale.obj
 0001:0003c92b       ?assign@?$basic_string@GU?$char_traits@G@std@@V?$allocator@G@2@@std@@QAEAAV12@QBG@Z 1003d92b f i libcpmt:wlocale.obj
 0001:0003c95e       ?assign@?$basic_string@GU?$char_traits@G@std@@V?$allocator@G@2@@std@@QAEAAV12@QBGI@Z 1003d95e f i libcpmt:wlocale.obj
 0001:0003c9bb       ?assign@?$basic_string@_WU?$char_traits@_W@std@@V?$allocator@_W@2@@std@@QAEAAV12@$$QAV12@@Z 1003d9bb f i libcpmt:wlocale.obj
 0001:0003c9d5       ?assign@?$basic_string@_WU?$char_traits@_W@std@@V?$allocator@_W@2@@std@@QAEAAV12@I_W@Z 1003d9d5 f i libcpmt:wlocale.obj
 0001:0003ca2f       ?assign@?$basic_string@_WU?$char_traits@_W@std@@V?$allocator@_W@2@@std@@QAEAAV12@QB_W@Z 1003da2f f i libcpmt:wlocale.obj
 0001:0003ca5f       ?assign@?$basic_string@_WU?$char_traits@_W@std@@V?$allocator@_W@2@@std@@QAEAAV12@QB_WI@Z 1003da5f f i libcpmt:wlocale.obj
 0001:0003cabc       ?begin@?$basic_string@GU?$char_traits@G@std@@V?$allocator@G@2@@std@@QAE?AV?$_String_iterator@V?$_String_val@U?$_Simple_types@G@std@@@std@@@2@XZ 1003dabc f i libcpmt:wlocale.obj
 0001:0003cad5       ?begin@?$basic_string@_WU?$char_traits@_W@std@@V?$allocator@_W@2@@std@@QAE?AV?$_String_iterator@V?$_String_val@U?$_Simple_types@_W@std@@@std@@@2@XZ 1003dad5 f i libcpmt:wlocale.obj
 0001:0003caee       ?c_str@?$basic_string@GU?$char_traits@G@std@@V?$allocator@G@2@@std@@QBEPBGXZ 1003daee f i libcpmt:wlocale.obj
 0001:0003cafb       ?c_str@?$basic_string@_WU?$char_traits@_W@std@@V?$allocator@_W@2@@std@@QBEPB_WXZ 1003dafb f i libcpmt:wlocale.obj
 0001:0003cb08       ?copy@?$_Char_traits@GG@std@@SAPAGQAGQBGI@Z 1003db08 f i libcpmt:wlocale.obj
 0001:0003cb2b       ?copy@?$_Char_traits@_WG@std@@SAPA_WQA_WQB_WI@Z 1003db2b f i libcpmt:wlocale.obj
 0001:0003cb4e       ?curr_symbol@?$_Mpunct@G@std@@QBE?AV?$basic_string@GU?$char_traits@G@std@@V?$allocator@G@2@@2@XZ 1003db4e f i libcpmt:wlocale.obj
 0001:0003cb7b       ?curr_symbol@?$_Mpunct@_W@std@@QBE?AV?$basic_string@_WU?$char_traits@_W@std@@V?$allocator@_W@2@@2@XZ 1003db7b f i libcpmt:wlocale.obj
 0001:0003cba8       ?date_order@?$time_get@GV?$istreambuf_iterator@GU?$char_traits@G@std@@@std@@@std@@QBE?AW4dateorder@time_base@2@XZ 1003dba8 f i libcpmt:wlocale.obj
 0001:0003cbc6       ?date_order@?$time_get@_WV?$istreambuf_iterator@_WU?$char_traits@_W@std@@@std@@@std@@QBE?AW4dateorder@time_base@2@XZ 1003dbc6 f i libcpmt:wlocale.obj
 0001:0003cbe4       ?deallocate@?$allocator@G@std@@QAEXQAGI@Z 1003dbe4 f i libcpmt:wlocale.obj
 0001:0003cc00       ?deallocate@?$allocator@_W@std@@QAEXQA_WI@Z 1003dc00 f i libcpmt:wlocale.obj
 0001:0003cc1c       ?decimal_point@?$_Mpunct@G@std@@QBEGXZ 1003dc1c f i libcpmt:wlocale.obj
 0001:0003cc3a       ?decimal_point@?$_Mpunct@_W@std@@QBE_WXZ 1003dc3a f i libcpmt:wlocale.obj
 0001:0003cc58       ?decimal_point@?$numpunct@G@std@@QBEGXZ 1003dc58 f i libcpmt:wlocale.obj
 0001:0003cc76       ?decimal_point@?$numpunct@_W@std@@QBE_WXZ 1003dc76 f i libcpmt:wlocale.obj
 0001:0003cc94       ?do_always_noconv@?$codecvt@GDU_Mbstatet@@@std@@MBE_NXZ 1003dc94 f i libcpmt:wlocale.obj
 0001:0003cc97       ?do_always_noconv@?$codecvt@_WDU_Mbstatet@@@std@@MBE_NXZ 1003dc97 f i libcpmt:wlocale.obj
 0001:0003cc9a       ?do_close@?$messages@G@std@@MBEXH@Z 1003dc9a f i libcpmt:wlocale.obj
 0001:0003cc9d       ?do_close@?$messages@_W@std@@MBEXH@Z 1003dc9d f i libcpmt:wlocale.obj
 0001:0003cca0       ?do_compare@?$collate@G@std@@MBEHPBG000@Z 1003dca0 f i libcpmt:wlocale.obj
 0001:0003ccdd       ?do_compare@?$collate@_W@std@@MBEHPB_W000@Z 1003dcdd f i libcpmt:wlocale.obj
 0001:0003cd1a       ?do_curr_symbol@?$_Mpunct@G@std@@MBE?AV?$basic_string@GU?$char_traits@G@std@@V?$allocator@G@2@@2@XZ 1003dd1a f i libcpmt:wlocale.obj
 0001:0003cd34       ?do_curr_symbol@?$_Mpunct@_W@std@@MBE?AV?$basic_string@_WU?$char_traits@_W@std@@V?$allocator@_W@2@@2@XZ 1003dd34 f i libcpmt:wlocale.obj
 0001:0003cd4e       ?do_date_order@?$time_get@GV?$istreambuf_iterator@GU?$char_traits@G@std@@@std@@@std@@MBE?AW4dateorder@time_base@2@XZ 1003dd4e f i libcpmt:wlocale.obj
 0001:0003cd52       ?do_date_order@?$time_get@_WV?$istreambuf_iterator@_WU?$char_traits@_W@std@@@std@@@std@@MBE?AW4dateorder@time_base@2@XZ 1003dd52 f i libcpmt:wlocale.obj
 0001:0003cd56       ?do_decimal_point@?$_Mpunct@G@std@@MBEGXZ 1003dd56 f i libcpmt:wlocale.obj
 0001:0003cd5b       ?do_decimal_point@?$_Mpunct@_W@std@@MBE_WXZ 1003dd5b f i libcpmt:wlocale.obj
 0001:0003cd60       ?do_decimal_point@?$numpunct@G@std@@MBEGXZ 1003dd60 f i libcpmt:wlocale.obj
 0001:0003cd65       ?do_decimal_point@?$numpunct@_W@std@@MBE_WXZ 1003dd65 f i libcpmt:wlocale.obj
 0001:0003cd6a       ?do_encoding@?$codecvt@GDU_Mbstatet@@@std@@MBEHXZ 1003dd6a f i libcpmt:wlocale.obj
 0001:0003cd76       ?do_encoding@?$codecvt@_WDU_Mbstatet@@@std@@MBEHXZ 1003dd76 f i libcpmt:wlocale.obj
 0001:0003cd82       ?do_falsename@?$numpunct@G@std@@MBE?AV?$basic_string@GU?$char_traits@G@std@@V?$allocator@G@2@@2@XZ 1003dd82 f i libcpmt:wlocale.obj
 0001:0003cd9c       ?do_falsename@?$numpunct@_W@std@@MBE?AV?$basic_string@_WU?$char_traits@_W@std@@V?$allocator@_W@2@@2@XZ 1003dd9c f i libcpmt:wlocale.obj
 0001:0003cdb6       ?do_frac_digits@?$_Mpunct@G@std@@MBEHXZ 1003ddb6 f i libcpmt:wlocale.obj
 0001:0003cdba       ?do_frac_digits@?$_Mpunct@_W@std@@MBEHXZ 1003ddba f i libcpmt:wlocale.obj
 0001:0003cdbe       ?do_get@?$messages@G@std@@MBE?AV?$basic_string@GU?$char_traits@G@std@@V?$allocator@G@2@@2@HHHABV32@@Z 1003ddbe f i libcpmt:wlocale.obj
 0001:0003cde8       ?do_get@?$messages@_W@std@@MBE?AV?$basic_string@_WU?$char_traits@_W@std@@V?$allocator@_W@2@@2@HHHABV32@@Z 1003dde8 f i libcpmt:wlocale.obj
 0001:0003ce12       ?do_get@?$money_get@GV?$istreambuf_iterator@GU?$char_traits@G@std@@@std@@@std@@MBE?AV?$istreambuf_iterator@GU?$char_traits@G@std@@@2@V32@0_NAAVios_base@2@AAHAAO@Z 1003de12 f i libcpmt:wlocale.obj
 0001:0003cee4       ?do_get@?$money_get@GV?$istreambuf_iterator@GU?$char_traits@G@std@@@std@@@std@@MBE?AV?$istreambuf_iterator@GU?$char_traits@G@std@@@2@V32@0_NAAVios_base@2@AAHAAV?$basic_string@GU?$char_traits@G@std@@V?$allocator@G@2@@2@@Z 1003dee4 f i libcpmt:wlocale.obj
 0001:0003cff4       ?do_get@?$money_get@_WV?$istreambuf_iterator@_WU?$char_traits@_W@std@@@std@@@std@@MBE?AV?$istreambuf_iterator@_WU?$char_traits@_W@std@@@2@V32@0_NAAVios_base@2@AAHAAO@Z 1003dff4 f i libcpmt:wlocale.obj
 0001:0003d0c6       ?do_get@?$money_get@_WV?$istreambuf_iterator@_WU?$char_traits@_W@std@@@std@@@std@@MBE?AV?$istreambuf_iterator@_WU?$char_traits@_W@std@@@2@V32@0_NAAVios_base@2@AAHAAV?$basic_string@_WU?$char_traits@_W@std@@V?$allocator@_W@2@@2@@Z 1003e0c6 f i libcpmt:wlocale.obj
 0001:0003d1d6       ?do_get@?$num_get@GV?$istreambuf_iterator@GU?$char_traits@G@std@@@std@@@std@@MBE?AV?$istreambuf_iterator@GU?$char_traits@G@std@@@2@V32@0AAVios_base@2@AAHAAG@Z 1003e1d6 f i libcpmt:wlocale.obj
 0001:0003d2ff       ?do_get@?$num_get@GV?$istreambuf_iterator@GU?$char_traits@G@std@@@std@@@std@@MBE?AV?$istreambuf_iterator@GU?$char_traits@G@std@@@2@V32@0AAVios_base@2@AAHAAI@Z 1003e2ff f i libcpmt:wlocale.obj
 0001:0003d34f       ?do_get@?$num_get@GV?$istreambuf_iterator@GU?$char_traits@G@std@@@std@@@std@@MBE?AV?$istreambuf_iterator@GU?$char_traits@G@std@@@2@V32@0AAVios_base@2@AAHAAJ@Z 1003e34f f i libcpmt:wlocale.obj
 0001:0003d444       ?do_get@?$num_get@GV?$istreambuf_iterator@GU?$char_traits@G@std@@@std@@@std@@MBE?AV?$istreambuf_iterator@GU?$char_traits@G@std@@@2@V32@0AAVios_base@2@AAHAAK@Z 1003e444 f i libcpmt:wlocale.obj
 0001:0003d539       ?do_get@?$num_get@GV?$istreambuf_iterator@GU?$char_traits@G@std@@@std@@@std@@MBE?AV?$istreambuf_iterator@GU?$char_traits@G@std@@@2@V32@0AAVios_base@2@AAHAAM@Z 1003e539 f i libcpmt:wlocale.obj
 0001:0003d672       ?do_get@?$num_get@GV?$istreambuf_iterator@GU?$char_traits@G@std@@@std@@@std@@MBE?AV?$istreambuf_iterator@GU?$char_traits@G@std@@@2@V32@0AAVios_base@2@AAHAAN@Z 1003e672 f i libcpmt:wlocale.obj
 0001:0003d79f       ?do_get@?$num_get@GV?$istreambuf_iterator@GU?$char_traits@G@std@@@std@@@std@@MBE?AV?$istreambuf_iterator@GU?$char_traits@G@std@@@2@V32@0AAVios_base@2@AAHAAO@Z 1003e79f f i libcpmt:wlocale.obj
 0001:0003d7ec       ?do_get@?$num_get@GV?$istreambuf_iterator@GU?$char_traits@G@std@@@std@@@std@@MBE?AV?$istreambuf_iterator@GU?$char_traits@G@std@@@2@V32@0AAVios_base@2@AAHAAPAX@Z 1003e7ec f i libcpmt:wlocale.obj
 0001:0003d8d7       ?do_get@?$num_get@GV?$istreambuf_iterator@GU?$char_traits@G@std@@@std@@@std@@MBE?AV?$istreambuf_iterator@GU?$char_traits@G@std@@@2@V32@0AAVios_base@2@AAHAA_J@Z 1003e8d7 f i libcpmt:wlocale.obj
 0001:0003d9d4       ?do_get@?$num_get@GV?$istreambuf_iterator@GU?$char_traits@G@std@@@std@@@std@@MBE?AV?$istreambuf_iterator@GU?$char_traits@G@std@@@2@V32@0AAVios_base@2@AAHAA_K@Z 1003e9d4 f i libcpmt:wlocale.obj
 0001:0003dad1       ?do_get@?$num_get@GV?$istreambuf_iterator@GU?$char_traits@G@std@@@std@@@std@@MBE?AV?$istreambuf_iterator@GU?$char_traits@G@std@@@2@V32@0AAVios_base@2@AAHAA_N@Z 1003ead1 f i libcpmt:wlocale.obj
 0001:0003dda7       ?do_get@?$num_get@_WV?$istreambuf_iterator@_WU?$char_traits@_W@std@@@std@@@std@@MBE?AV?$istreambuf_iterator@_WU?$char_traits@_W@std@@@2@V32@0AAVios_base@2@AAHAAG@Z 1003eda7 f i libcpmt:wlocale.obj
 0001:0003ded0       ?do_get@?$num_get@_WV?$istreambuf_iterator@_WU?$char_traits@_W@std@@@std@@@std@@MBE?AV?$istreambuf_iterator@_WU?$char_traits@_W@std@@@2@V32@0AAVios_base@2@AAHAAI@Z 1003eed0 f i libcpmt:wlocale.obj
 0001:0003df20       ?do_get@?$num_get@_WV?$istreambuf_iterator@_WU?$char_traits@_W@std@@@std@@@std@@MBE?AV?$istreambuf_iterator@_WU?$char_traits@_W@std@@@2@V32@0AAVios_base@2@AAHAAJ@Z 1003ef20 f i libcpmt:wlocale.obj
 0001:0003e015       ?do_get@?$num_get@_WV?$istreambuf_iterator@_WU?$char_traits@_W@std@@@std@@@std@@MBE?AV?$istreambuf_iterator@_WU?$char_traits@_W@std@@@2@V32@0AAVios_base@2@AAHAAK@Z 1003f015 f i libcpmt:wlocale.obj
 0001:0003e10a       ?do_get@?$num_get@_WV?$istreambuf_iterator@_WU?$char_traits@_W@std@@@std@@@std@@MBE?AV?$istreambuf_iterator@_WU?$char_traits@_W@std@@@2@V32@0AAVios_base@2@AAHAAM@Z 1003f10a f i libcpmt:wlocale.obj
 0001:0003e243       ?do_get@?$num_get@_WV?$istreambuf_iterator@_WU?$char_traits@_W@std@@@std@@@std@@MBE?AV?$istreambuf_iterator@_WU?$char_traits@_W@std@@@2@V32@0AAVios_base@2@AAHAAN@Z 1003f243 f i libcpmt:wlocale.obj
 0001:0003e370       ?do_get@?$num_get@_WV?$istreambuf_iterator@_WU?$char_traits@_W@std@@@std@@@std@@MBE?AV?$istreambuf_iterator@_WU?$char_traits@_W@std@@@2@V32@0AAVios_base@2@AAHAAO@Z 1003f370 f i libcpmt:wlocale.obj
 0001:0003e3bd       ?do_get@?$num_get@_WV?$istreambuf_iterator@_WU?$char_traits@_W@std@@@std@@@std@@MBE?AV?$istreambuf_iterator@_WU?$char_traits@_W@std@@@2@V32@0AAVios_base@2@AAHAAPAX@Z 1003f3bd f i libcpmt:wlocale.obj
 0001:0003e4a8       ?do_get@?$num_get@_WV?$istreambuf_iterator@_WU?$char_traits@_W@std@@@std@@@std@@MBE?AV?$istreambuf_iterator@_WU?$char_traits@_W@std@@@2@V32@0AAVios_base@2@AAHAA_J@Z 1003f4a8 f i libcpmt:wlocale.obj
 0001:0003e5a5       ?do_get@?$num_get@_WV?$istreambuf_iterator@_WU?$char_traits@_W@std@@@std@@@std@@MBE?AV?$istreambuf_iterator@_WU?$char_traits@_W@std@@@2@V32@0AAVios_base@2@AAHAA_K@Z 1003f5a5 f i libcpmt:wlocale.obj
 0001:0003e6a2       ?do_get@?$num_get@_WV?$istreambuf_iterator@_WU?$char_traits@_W@std@@@std@@@std@@MBE?AV?$istreambuf_iterator@_WU?$char_traits@_W@std@@@2@V32@0AAVios_base@2@AAHAA_N@Z 1003f6a2 f i libcpmt:wlocale.obj
 0001:0003e978       ?do_get@?$time_get@GV?$istreambuf_iterator@GU?$char_traits@G@std@@@std@@@std@@MBE?AV?$istreambuf_iterator@GU?$char_traits@G@std@@@2@V32@0AAVios_base@2@AAHPAUtm@@DD@Z 1003f978 f i libcpmt:wlocale.obj
 0001:0003ee29       ?do_get@?$time_get@_WV?$istreambuf_iterator@_WU?$char_traits@_W@std@@@std@@@std@@MBE?AV?$istreambuf_iterator@_WU?$char_traits@_W@std@@@2@V32@0AAVios_base@2@AAHPAUtm@@DD@Z 1003fe29 f i libcpmt:wlocale.obj
 0001:0003f2da       ?do_get_date@?$time_get@GV?$istreambuf_iterator@GU?$char_traits@G@std@@@std@@@std@@MBE?AV?$istreambuf_iterator@GU?$char_traits@G@std@@@2@V32@0AAVios_base@2@AAHPAUtm@@@Z 100402da f i libcpmt:wlocale.obj
 0001:0003f8af       ?do_get_date@?$time_get@_WV?$istreambuf_iterator@_WU?$char_traits@_W@std@@@std@@@std@@MBE?AV?$istreambuf_iterator@_WU?$char_traits@_W@std@@@2@V32@0AAVios_base@2@AAHPAUtm@@@Z 100408af f i libcpmt:wlocale.obj
 0001:0003fe84       ?do_get_monthname@?$time_get@GV?$istreambuf_iterator@GU?$char_traits@G@std@@@std@@@std@@MBE?AV?$istreambuf_iterator@GU?$char_traits@G@std@@@2@V32@0AAVios_base@2@AAHPAUtm@@@Z 10040e84 f i libcpmt:wlocale.obj
 0001:0003fed6       ?do_get_monthname@?$time_get@_WV?$istreambuf_iterator@_WU?$char_traits@_W@std@@@std@@@std@@MBE?AV?$istreambuf_iterator@_WU?$char_traits@_W@std@@@2@V32@0AAVios_base@2@AAHPAUtm@@@Z 10040ed6 f i libcpmt:wlocale.obj
 0001:0003ff28       ?do_get_time@?$time_get@GV?$istreambuf_iterator@GU?$char_traits@G@std@@@std@@@std@@MBE?AV?$istreambuf_iterator@GU?$char_traits@G@std@@@2@V32@0AAVios_base@2@AAHPAUtm@@@Z 10040f28 f i libcpmt:wlocale.obj
 0001:00040092       ?do_get_time@?$time_get@_WV?$istreambuf_iterator@_WU?$char_traits@_W@std@@@std@@@std@@MBE?AV?$istreambuf_iterator@_WU?$char_traits@_W@std@@@2@V32@0AAVios_base@2@AAHPAUtm@@@Z 10041092 f i libcpmt:wlocale.obj
 0001:000401fc       ?do_get_weekday@?$time_get@GV?$istreambuf_iterator@GU?$char_traits@G@std@@@std@@@std@@MBE?AV?$istreambuf_iterator@GU?$char_traits@G@std@@@2@V32@0AAVios_base@2@AAHPAUtm@@@Z 100411fc f i libcpmt:wlocale.obj
 0001:0004024e       ?do_get_weekday@?$time_get@_WV?$istreambuf_iterator@_WU?$char_traits@_W@std@@@std@@@std@@MBE?AV?$istreambuf_iterator@_WU?$char_traits@_W@std@@@2@V32@0AAVios_base@2@AAHPAUtm@@@Z 1004124e f i libcpmt:wlocale.obj
 0001:000402a0       ?do_get_year@?$time_get@GV?$istreambuf_iterator@GU?$char_traits@G@std@@@std@@@std@@MBE?AV?$istreambuf_iterator@GU?$char_traits@G@std@@@2@V32@0AAVios_base@2@AAHPAUtm@@@Z 100412a0 f i libcpmt:wlocale.obj
 0001:0004035a       ?do_get_year@?$time_get@_WV?$istreambuf_iterator@_WU?$char_traits@_W@std@@@std@@@std@@MBE?AV?$istreambuf_iterator@_WU?$char_traits@_W@std@@@2@V32@0AAVios_base@2@AAHPAUtm@@@Z 1004135a f i libcpmt:wlocale.obj
 0001:00040414       ?do_grouping@?$_Mpunct@G@std@@MBE?AV?$basic_string@DU?$char_traits@D@std@@V?$allocator@D@2@@2@XZ 10041414 f i libcpmt:wlocale.obj
 0001:0004042e       ?do_grouping@?$_Mpunct@_W@std@@MBE?AV?$basic_string@DU?$char_traits@D@std@@V?$allocator@D@2@@2@XZ 1004142e f i libcpmt:wlocale.obj
 0001:00040448       ?do_grouping@?$numpunct@G@std@@MBE?AV?$basic_string@DU?$char_traits@D@std@@V?$allocator@D@2@@2@XZ 10041448 f i libcpmt:wlocale.obj
 0001:00040462       ?do_grouping@?$numpunct@_W@std@@MBE?AV?$basic_string@DU?$char_traits@D@std@@V?$allocator@D@2@@2@XZ 10041462 f i libcpmt:wlocale.obj
 0001:0004047c       ?do_hash@?$collate@G@std@@MBEJPBG0@Z 1004147c f i libcpmt:wlocale.obj
 0001:000404a5       ?do_hash@?$collate@_W@std@@MBEJPB_W0@Z 100414a5 f i libcpmt:wlocale.obj
 0001:000404ce       ?do_in@?$codecvt@GDU_Mbstatet@@@std@@MBEHAAU_Mbstatet@@PBD1AAPBDPAG3AAPAG@Z 100414ce f i libcpmt:wlocale.obj
 0001:0004055b       ?do_in@?$codecvt@_WDU_Mbstatet@@@std@@MBEHAAU_Mbstatet@@PBD1AAPBDPA_W3AAPA_W@Z 1004155b f i libcpmt:wlocale.obj
 0001:000405e8       ?do_is@?$ctype@G@std@@MBEPBGPBG0PAF@Z 100415e8 f i libcpmt:wlocale.obj
 0001:0004060b       ?do_is@?$ctype@G@std@@MBE_NFG@Z 1004160b f i libcpmt:wlocale.obj
 0001:0004062e       ?do_is@?$ctype@_W@std@@MBEPB_WPB_W0PAF@Z 1004162e f i libcpmt:wlocale.obj
 0001:00040651       ?do_is@?$ctype@_W@std@@MBE_NF_W@Z 10041651 f i libcpmt:wlocale.obj
 0001:00040674       ?do_length@?$codecvt@GDU_Mbstatet@@@std@@MBEHAAU_Mbstatet@@PBD1I@Z 10041674 f i libcpmt:wlocale.obj
 0001:000406df       ?do_length@?$codecvt@_WDU_Mbstatet@@@std@@MBEHAAU_Mbstatet@@PBD1I@Z 100416df f i libcpmt:wlocale.obj
 0001:0004074a       ?do_max_length@?$codecvt@GDU_Mbstatet@@@std@@MBEHXZ 1004174a f i libcpmt:wlocale.obj
 0001:0004074e       ?do_max_length@?$codecvt@_WDU_Mbstatet@@@std@@MBEHXZ 1004174e f i libcpmt:wlocale.obj
 0001:00040752       ?do_narrow@?$ctype@G@std@@MBEDGD@Z 10041752 f i libcpmt:wlocale.obj
 0001:0004075d       ?do_narrow@?$ctype@G@std@@MBEPBGPBG0DPAD@Z 1004175d f i libcpmt:wlocale.obj
 0001:0004079f       ?do_narrow@?$ctype@_W@std@@MBED_WD@Z 1004179f f i libcpmt:wlocale.obj
 0001:000407aa       ?do_narrow@?$ctype@_W@std@@MBEPB_WPB_W0DPAD@Z 100417aa f i libcpmt:wlocale.obj
 0001:000407ec       ?do_neg_format@?$_Mpunct@G@std@@MBE?AUpattern@money_base@2@XZ 100417ec f i libcpmt:wlocale.obj
 0001:000407fe       ?do_neg_format@?$_Mpunct@_W@std@@MBE?AUpattern@money_base@2@XZ 100417fe f i libcpmt:wlocale.obj
 0001:00040810       ?do_negative_sign@?$_Mpunct@G@std@@MBE?AV?$basic_string@GU?$char_traits@G@std@@V?$allocator@G@2@@2@XZ 10041810 f i libcpmt:wlocale.obj
 0001:0004082a       ?do_negative_sign@?$_Mpunct@_W@std@@MBE?AV?$basic_string@_WU?$char_traits@_W@std@@V?$allocator@_W@2@@2@XZ 1004182a f i libcpmt:wlocale.obj
 0001:00040844       ?do_open@?$messages@G@std@@MBEHABV?$basic_string@DU?$char_traits@D@std@@V?$allocator@D@2@@2@ABVlocale@2@@Z 10041844 f i libcpmt:wlocale.obj
 0001:0004084a       ?do_open@?$messages@_W@std@@MBEHABV?$basic_string@DU?$char_traits@D@std@@V?$allocator@D@2@@2@ABVlocale@2@@Z 1004184a f i libcpmt:wlocale.obj
 0001:00040850       ?do_out@?$codecvt@GDU_Mbstatet@@@std@@MBEHAAU_Mbstatet@@PBG1AAPBGPAD3AAPAD@Z 10041850 f i libcpmt:wlocale.obj
 0001:0004096f       ?do_out@?$codecvt@_WDU_Mbstatet@@@std@@MBEHAAU_Mbstatet@@PB_W1AAPB_WPAD3AAPAD@Z 1004196f f i libcpmt:wlocale.obj
 0001:00040a8e       ?do_pos_format@?$_Mpunct@G@std@@MBE?AUpattern@money_base@2@XZ 10041a8e f i libcpmt:wlocale.obj
 0001:00040aa0       ?do_pos_format@?$_Mpunct@_W@std@@MBE?AUpattern@money_base@2@XZ 10041aa0 f i libcpmt:wlocale.obj
 0001:00040ab2       ?do_positive_sign@?$_Mpunct@G@std@@MBE?AV?$basic_string@GU?$char_traits@G@std@@V?$allocator@G@2@@2@XZ 10041ab2 f i libcpmt:wlocale.obj
 0001:00040acc       ?do_positive_sign@?$_Mpunct@_W@std@@MBE?AV?$basic_string@_WU?$char_traits@_W@std@@V?$allocator@_W@2@@2@XZ 10041acc f i libcpmt:wlocale.obj
 0001:00040ae6       ?do_put@?$money_put@GV?$ostreambuf_iterator@GU?$char_traits@G@std@@@std@@@std@@MBE?AV?$ostreambuf_iterator@GU?$char_traits@G@std@@@2@V32@_NAAVios_base@2@GABV?$basic_string@GU?$char_traits@G@std@@V?$allocator@G@2@@2@@Z 10041ae6 f i libcpmt:wlocale.obj
 0001:00040c60       ?do_put@?$money_put@GV?$ostreambuf_iterator@GU?$char_traits@G@std@@@std@@@std@@MBE?AV?$ostreambuf_iterator@GU?$char_traits@G@std@@@2@V32@_NAAVios_base@2@GO@Z 10041c60 f i libcpmt:wlocale.obj
 0001:00040e32       ?do_put@?$money_put@_WV?$ostreambuf_iterator@_WU?$char_traits@_W@std@@@std@@@std@@MBE?AV?$ostreambuf_iterator@_WU?$char_traits@_W@std@@@2@V32@_NAAVios_base@2@_WABV?$basic_string@_WU?$char_traits@_W@std@@V?$allocator@_W@2@@2@@Z 10041e32 f i libcpmt:wlocale.obj
 0001:00040fac       ?do_put@?$money_put@_WV?$ostreambuf_iterator@_WU?$char_traits@_W@std@@@std@@@std@@MBE?AV?$ostreambuf_iterator@_WU?$char_traits@_W@std@@@2@V32@_NAAVios_base@2@_WO@Z 10041fac f i libcpmt:wlocale.obj
 0001:0004117e       ?do_put@?$num_put@GV?$ostreambuf_iterator@GU?$char_traits@G@std@@@std@@@std@@MBE?AV?$ostreambuf_iterator@GU?$char_traits@G@std@@@2@V32@AAVios_base@2@GJ@Z 1004217e f i libcpmt:wlocale.obj
 0001:00041203       ?do_put@?$num_put@GV?$ostreambuf_iterator@GU?$char_traits@G@std@@@std@@@std@@MBE?AV?$ostreambuf_iterator@GU?$char_traits@G@std@@@2@V32@AAVios_base@2@GK@Z 10042203 f i libcpmt:wlocale.obj
 0001:00041288       ?do_put@?$num_put@GV?$ostreambuf_iterator@GU?$char_traits@G@std@@@std@@@std@@MBE?AV?$ostreambuf_iterator@GU?$char_traits@G@std@@@2@V32@AAVios_base@2@GN@Z 10042288 f i libcpmt:wlocale.obj
 0001:00041433       ?do_put@?$num_put@GV?$ostreambuf_iterator@GU?$char_traits@G@std@@@std@@@std@@MBE?AV?$ostreambuf_iterator@GU?$char_traits@G@std@@@2@V32@AAVios_base@2@GO@Z 10042433 f i libcpmt:wlocale.obj
 0001:000415de       ?do_put@?$num_put@GV?$ostreambuf_iterator@GU?$char_traits@G@std@@@std@@@std@@MBE?AV?$ostreambuf_iterator@GU?$char_traits@G@std@@@2@V32@AAVios_base@2@GPBX@Z 100425de f i libcpmt:wlocale.obj
 0001:0004164f       ?do_put@?$num_put@GV?$ostreambuf_iterator@GU?$char_traits@G@std@@@std@@@std@@MBE?AV?$ostreambuf_iterator@GU?$char_traits@G@std@@@2@V32@AAVios_base@2@G_J@Z 1004264f f i libcpmt:wlocale.obj
 0001:000416d8       ?do_put@?$num_put@GV?$ostreambuf_iterator@GU?$char_traits@G@std@@@std@@@std@@MBE?AV?$ostreambuf_iterator@GU?$char_traits@G@std@@@2@V32@AAVios_base@2@G_K@Z 100426d8 f i libcpmt:wlocale.obj
 0001:00041761       ?do_put@?$num_put@GV?$ostreambuf_iterator@GU?$char_traits@G@std@@@std@@@std@@MBE?AV?$ostreambuf_iterator@GU?$char_traits@G@std@@@2@V32@AAVios_base@2@G_N@Z 10042761 f i libcpmt:wlocale.obj
 0001:00041994       ?do_put@?$num_put@_WV?$ostreambuf_iterator@_WU?$char_traits@_W@std@@@std@@@std@@MBE?AV?$ostreambuf_iterator@_WU?$char_traits@_W@std@@@2@V32@AAVios_base@2@_WJ@Z 10042994 f i libcpmt:wlocale.obj
 0001:00041a19       ?do_put@?$num_put@_WV?$ostreambuf_iterator@_WU?$char_traits@_W@std@@@std@@@std@@MBE?AV?$ostreambuf_iterator@_WU?$char_traits@_W@std@@@2@V32@AAVios_base@2@_WK@Z 10042a19 f i libcpmt:wlocale.obj
 0001:00041a9e       ?do_put@?$num_put@_WV?$ostreambuf_iterator@_WU?$char_traits@_W@std@@@std@@@std@@MBE?AV?$ostreambuf_iterator@_WU?$char_traits@_W@std@@@2@V32@AAVios_base@2@_WN@Z 10042a9e f i libcpmt:wlocale.obj
 0001:00041c49       ?do_put@?$num_put@_WV?$ostreambuf_iterator@_WU?$char_traits@_W@std@@@std@@@std@@MBE?AV?$ostreambuf_iterator@_WU?$char_traits@_W@std@@@2@V32@AAVios_base@2@_WO@Z 10042c49 f i libcpmt:wlocale.obj
 0001:00041df4       ?do_put@?$num_put@_WV?$ostreambuf_iterator@_WU?$char_traits@_W@std@@@std@@@std@@MBE?AV?$ostreambuf_iterator@_WU?$char_traits@_W@std@@@2@V32@AAVios_base@2@_WPBX@Z 10042df4 f i libcpmt:wlocale.obj
 0001:00041e65       ?do_put@?$num_put@_WV?$ostreambuf_iterator@_WU?$char_traits@_W@std@@@std@@@std@@MBE?AV?$ostreambuf_iterator@_WU?$char_traits@_W@std@@@2@V32@AAVios_base@2@_W_J@Z 10042e65 f i libcpmt:wlocale.obj
 0001:00041eee       ?do_put@?$num_put@_WV?$ostreambuf_iterator@_WU?$char_traits@_W@std@@@std@@@std@@MBE?AV?$ostreambuf_iterator@_WU?$char_traits@_W@std@@@2@V32@AAVios_base@2@_W_K@Z 10042eee f i libcpmt:wlocale.obj
 0001:00041f77       ?do_put@?$num_put@_WV?$ostreambuf_iterator@_WU?$char_traits@_W@std@@@std@@@std@@MBE?AV?$ostreambuf_iterator@_WU?$char_traits@_W@std@@@2@V32@AAVios_base@2@_W_N@Z 10042f77 f i libcpmt:wlocale.obj
 0001:000421aa       ?do_put@?$time_put@GV?$ostreambuf_iterator@GU?$char_traits@G@std@@@std@@@std@@MBE?AV?$ostreambuf_iterator@GU?$char_traits@G@std@@@2@V32@AAVios_base@2@GPBUtm@@DD@Z 100431aa f i libcpmt:wlocale.obj
 0001:0004230d       ?do_put@?$time_put@_WV?$ostreambuf_iterator@_WU?$char_traits@_W@std@@@std@@@std@@MBE?AV?$ostreambuf_iterator@_WU?$char_traits@_W@std@@@2@V32@AAVios_base@2@_WPBUtm@@DD@Z 1004330d f i libcpmt:wlocale.obj
 0001:00042470       ?do_scan_is@?$ctype@G@std@@MBEPBGFPBG0@Z 10043470 f i libcpmt:wlocale.obj
 0001:000424bc       ?do_scan_is@?$ctype@_W@std@@MBEPB_WFPB_W0@Z 100434bc f i libcpmt:wlocale.obj
 0001:00042508       ?do_scan_not@?$ctype@G@std@@MBEPBGFPBG0@Z 10043508 f i libcpmt:wlocale.obj
 0001:00042554       ?do_scan_not@?$ctype@_W@std@@MBEPB_WFPB_W0@Z 10043554 f i libcpmt:wlocale.obj
 0001:000425a0       ?do_thousands_sep@?$_Mpunct@G@std@@MBEGXZ 100435a0 f i libcpmt:wlocale.obj
 0001:000425a5       ?do_thousands_sep@?$_Mpunct@_W@std@@MBE_WXZ 100435a5 f i libcpmt:wlocale.obj
 0001:000425aa       ?do_thousands_sep@?$numpunct@G@std@@MBEGXZ 100435aa f i libcpmt:wlocale.obj
 0001:000425af       ?do_thousands_sep@?$numpunct@_W@std@@MBE_WXZ 100435af f i libcpmt:wlocale.obj
 0001:000425b4       ?do_tolower@?$ctype@G@std@@MBEGG@Z 100435b4 f i libcpmt:wlocale.obj
 0001:000425ce       ?do_tolower@?$ctype@G@std@@MBEPBGPAGPBG@Z 100435ce f i libcpmt:wlocale.obj
 0001:00042608       ?do_tolower@?$ctype@_W@std@@MBEPB_WPA_WPB_W@Z 10043608 f i libcpmt:wlocale.obj
 0001:00042642       ?do_tolower@?$ctype@_W@std@@MBE_W_W@Z 10043642 f i libcpmt:wlocale.obj
 0001:0004265c       ?do_toupper@?$ctype@G@std@@MBEGG@Z 1004365c f i libcpmt:wlocale.obj
 0001:00042676       ?do_toupper@?$ctype@G@std@@MBEPBGPAGPBG@Z 10043676 f i libcpmt:wlocale.obj
 0001:000426b0       ?do_toupper@?$ctype@_W@std@@MBEPB_WPA_WPB_W@Z 100436b0 f i libcpmt:wlocale.obj
 0001:000426ea       ?do_toupper@?$ctype@_W@std@@MBE_W_W@Z 100436ea f i libcpmt:wlocale.obj
 0001:00042704       ?do_transform@?$collate@G@std@@MBE?AV?$basic_string@GU?$char_traits@G@std@@V?$allocator@G@2@@2@PBG0@Z 10043704 f i libcpmt:wlocale.obj
 0001:000427ae       ?do_transform@?$collate@_W@std@@MBE?AV?$basic_string@_WU?$char_traits@_W@std@@V?$allocator@_W@2@@2@PB_W0@Z 100437ae f i libcpmt:wlocale.obj
 0001:00042858       ?do_truename@?$numpunct@G@std@@MBE?AV?$basic_string@GU?$char_traits@G@std@@V?$allocator@G@2@@2@XZ 10043858 f i libcpmt:wlocale.obj
 0001:00042872       ?do_truename@?$numpunct@_W@std@@MBE?AV?$basic_string@_WU?$char_traits@_W@std@@V?$allocator@_W@2@@2@XZ 10043872 f i libcpmt:wlocale.obj
 0001:0004288c       ?do_unshift@?$codecvt@GDU_Mbstatet@@@std@@MBEHAAU_Mbstatet@@PAD1AAPAD@Z 1004388c f i libcpmt:wlocale.obj
 0001:00042940       ?do_unshift@?$codecvt@_WDU_Mbstatet@@@std@@MBEHAAU_Mbstatet@@PAD1AAPAD@Z 10043940 f i libcpmt:wlocale.obj
 0001:000429f4       ?do_widen@?$ctype@G@std@@MBEGD@Z 100439f4 f i libcpmt:wlocale.obj
 0001:000429ff       ?do_widen@?$ctype@G@std@@MBEPBDPBD0PAG@Z 100439ff f i libcpmt:wlocale.obj
 0001:00042a3e       ?do_widen@?$ctype@_W@std@@MBEPBDPBD0PA_W@Z 10043a3e f i libcpmt:wlocale.obj
 0001:00042a7d       ?do_widen@?$ctype@_W@std@@MBE_WD@Z 10043a7d f i libcpmt:wlocale.obj
 0001:00042a88       ?empty@?$basic_string@GU?$char_traits@G@std@@V?$allocator@G@2@@std@@QBE_NXZ 10043a88 f i libcpmt:wlocale.obj
 0001:00042a92       ?empty@?$basic_string@_WU?$char_traits@_W@std@@V?$allocator@_W@2@@std@@QBE_NXZ 10043a92 f i libcpmt:wlocale.obj
 0001:00042a9c       ?end@?$basic_string@GU?$char_traits@G@std@@V?$allocator@G@2@@std@@QAE?AV?$_String_iterator@V?$_String_val@U?$_Simple_types@G@std@@@std@@@2@XZ 10043a9c f i libcpmt:wlocale.obj
 0001:00042abf       ?end@?$basic_string@_WU?$char_traits@_W@std@@V?$allocator@_W@2@@std@@QAE?AV?$_String_iterator@V?$_String_val@U?$_Simple_types@_W@std@@@std@@@2@XZ 10043abf f i libcpmt:wlocale.obj
 0001:00042ae2       ?eof@?$_WChar_traits@G@std@@SAGXZ 10043ae2 f i libcpmt:wlocale.obj
 0001:00042ae8       ?eof@?$_WChar_traits@_W@std@@SAGXZ 10043ae8 f i libcpmt:wlocale.obj
 0001:00042aee       ?eq_int_type@?$_WChar_traits@G@std@@SA_NABG0@Z 10043aee f i libcpmt:wlocale.obj
 0001:00042b07       ?eq_int_type@?$_WChar_traits@_W@std@@SA_NABG0@Z 10043b07 f i libcpmt:wlocale.obj
 0001:00042b20       ?equal@?$istreambuf_iterator@GU?$char_traits@G@std@@@std@@QBE_NABV12@@Z 10043b20 f i libcpmt:wlocale.obj
 0001:00042b68       ?equal@?$istreambuf_iterator@_WU?$char_traits@_W@std@@@std@@QBE_NABV12@@Z 10043b68 f i libcpmt:wlocale.obj
 0001:00042bb0       ?erase@?$basic_string@DU?$char_traits@D@std@@V?$allocator@D@2@@std@@QAEAAV12@I@Z 10043bb0 f i libcpmt:wlocale.obj
 0001:00042be2       ?erase@?$basic_string@GU?$char_traits@G@std@@V?$allocator@G@2@@std@@QAEAAV12@I@Z 10043be2 f i libcpmt:wlocale.obj
 0001:00042c0b       ?erase@?$basic_string@_WU?$char_traits@_W@std@@V?$allocator@_W@2@@std@@QAEAAV12@I@Z 10043c0b f i libcpmt:wlocale.obj
 0001:00042c34       ?falsename@?$numpunct@G@std@@QBE?AV?$basic_string@GU?$char_traits@G@std@@V?$allocator@G@2@@2@XZ 10043c34 f i libcpmt:wlocale.obj
 0001:00042c61       ?falsename@?$numpunct@_W@std@@QBE?AV?$basic_string@_WU?$char_traits@_W@std@@V?$allocator@_W@2@@2@XZ 10043c61 f i libcpmt:wlocale.obj
 0001:00042c8e       ?frac_digits@?$_Mpunct@G@std@@QBEHXZ 10043c8e f i libcpmt:wlocale.obj
 0001:00042cac       ?frac_digits@?$_Mpunct@_W@std@@QBEHXZ 10043cac f i libcpmt:wlocale.obj
 0001:00042cca       ?get_monthname@?$time_get@GV?$istreambuf_iterator@GU?$char_traits@G@std@@@std@@@std@@QBE?AV?$istreambuf_iterator@GU?$char_traits@G@std@@@2@V32@0AAVios_base@2@AAHPAUtm@@@Z 10043cca f i libcpmt:wlocale.obj
 0001:00042d10       ?get_monthname@?$time_get@_WV?$istreambuf_iterator@_WU?$char_traits@_W@std@@@std@@@std@@QBE?AV?$istreambuf_iterator@_WU?$char_traits@_W@std@@@2@V32@0AAVios_base@2@AAHPAUtm@@@Z 10043d10 f i libcpmt:wlocale.obj
 0001:00042d56       ?get_weekday@?$time_get@GV?$istreambuf_iterator@GU?$char_traits@G@std@@@std@@@std@@QBE?AV?$istreambuf_iterator@GU?$char_traits@G@std@@@2@V32@0AAVios_base@2@AAHPAUtm@@@Z 10043d56 f i libcpmt:wlocale.obj
 0001:00042d9c       ?get_weekday@?$time_get@_WV?$istreambuf_iterator@_WU?$char_traits@_W@std@@@std@@@std@@QBE?AV?$istreambuf_iterator@_WU?$char_traits@_W@std@@@2@V32@0AAVios_base@2@AAHPAUtm@@@Z 10043d9c f i libcpmt:wlocale.obj
 0001:00042de2       ?get_year@?$time_get@GV?$istreambuf_iterator@GU?$char_traits@G@std@@@std@@@std@@QBE?AV?$istreambuf_iterator@GU?$char_traits@G@std@@@2@V32@0AAVios_base@2@AAHPAUtm@@@Z 10043de2 f i libcpmt:wlocale.obj
 0001:00042e28       ?get_year@?$time_get@_WV?$istreambuf_iterator@_WU?$char_traits@_W@std@@@std@@@std@@QBE?AV?$istreambuf_iterator@_WU?$char_traits@_W@std@@@2@V32@0AAVios_base@2@AAHPAUtm@@@Z 10043e28 f i libcpmt:wlocale.obj
 0001:00042e6e       ?gptr@?$basic_streambuf@GU?$char_traits@G@std@@@std@@IBEPAGXZ 10043e6e f i libcpmt:wlocale.obj
 0001:00042e74       ?gptr@?$basic_streambuf@_WU?$char_traits@_W@std@@@std@@IBEPA_WXZ 10043e74 f i libcpmt:wlocale.obj
 0001:00042e7a       ?grouping@?$_Mpunct@G@std@@QBE?AV?$basic_string@DU?$char_traits@D@std@@V?$allocator@D@2@@2@XZ 10043e7a f i libcpmt:wlocale.obj
 0001:00042ea7       ?grouping@?$_Mpunct@_W@std@@QBE?AV?$basic_string@DU?$char_traits@D@std@@V?$allocator@D@2@@2@XZ 10043ea7 f i libcpmt:wlocale.obj
 0001:00042ed4       ?grouping@?$numpunct@G@std@@QBE?AV?$basic_string@DU?$char_traits@D@std@@V?$allocator@D@2@@2@XZ 10043ed4 f i libcpmt:wlocale.obj
 0001:00042f01       ?grouping@?$numpunct@_W@std@@QBE?AV?$basic_string@DU?$char_traits@D@std@@V?$allocator@D@2@@2@XZ 10043f01 f i libcpmt:wlocale.obj
 0001:00042f2e       ?insert@?$basic_string@GU?$char_traits@G@std@@V?$allocator@G@2@@std@@QAEAAV12@IIG@Z 10043f2e f i libcpmt:wlocale.obj
 0001:00042fc1       ?insert@?$basic_string@_WU?$char_traits@_W@std@@V?$allocator@_W@2@@std@@QAEAAV12@II_W@Z 10043fc1 f i libcpmt:wlocale.obj
 0001:00043054       ?is@?$ctype@G@std@@QBE_NFG@Z 10044054 f i libcpmt:wlocale.obj
 0001:00043081       ?is@?$ctype@_W@std@@QBE_NF_W@Z 10044081 f i libcpmt:wlocale.obj
 0001:000430ae       ?length@?$_Char_traits@GG@std@@SAIPBG@Z 100440ae f i libcpmt:wlocale.obj
 0001:000430ca       ?length@?$_WChar_traits@G@std@@SAIPBG@Z 100440ca f i libcpmt:wlocale.obj
 0001:000430e6       ?length@?$_WChar_traits@_W@std@@SAIPB_W@Z 100440e6 f i libcpmt:wlocale.obj
 0001:00043106       ?max_size@?$_Default_allocator_traits@V?$allocator@G@std@@@std@@SAIABV?$allocator@G@2@@Z 10044106 f i libcpmt:wlocale.obj
 0001:0004310c       ?max_size@?$_Default_allocator_traits@V?$allocator@_W@std@@@std@@SAIABV?$allocator@_W@2@@Z 1004410c f i libcpmt:wlocale.obj
 0001:00043112       ?max_size@?$basic_string@GU?$char_traits@G@std@@V?$allocator@G@2@@std@@QBEIXZ 10044112 f i libcpmt:wlocale.obj
 0001:00043118       ?max_size@?$basic_string@_WU?$char_traits@_W@std@@V?$allocator@_W@2@@std@@QBEIXZ 10044118 f i libcpmt:wlocale.obj
 0001:0004311e       ?move@?$_Char_traits@GG@std@@SAPAGQAGQBGI@Z 1004411e f i libcpmt:wlocale.obj
 0001:00043141       ?move@?$_Char_traits@_WG@std@@SAPA_WQA_WQB_WI@Z 10044141 f i libcpmt:wlocale.obj
 0001:00043164       ?name@locale@std@@QBE?AV?$basic_string@DU?$char_traits@D@std@@V?$allocator@D@2@@2@XZ 10044164 f i libcpmt:wlocale.obj
 0001:00043239       ?narrow@?$ctype@G@std@@QBEDGD@Z 10044239 f i libcpmt:wlocale.obj
 0001:00043266       ?narrow@?$ctype@_W@std@@QBED_WD@Z 10044266 f i libcpmt:wlocale.obj
 0001:00043293       ?neg_format@?$_Mpunct@G@std@@QBE?AUpattern@money_base@2@XZ 10044293 f i libcpmt:wlocale.obj
 0001:000432c0       ?neg_format@?$_Mpunct@_W@std@@QBE?AUpattern@money_base@2@XZ 100442c0 f i libcpmt:wlocale.obj
 0001:000432ed       ?negative_sign@?$_Mpunct@G@std@@QBE?AV?$basic_string@GU?$char_traits@G@std@@V?$allocator@G@2@@2@XZ 100442ed f i libcpmt:wlocale.obj
 0001:0004331a       ?negative_sign@?$_Mpunct@_W@std@@QBE?AV?$basic_string@_WU?$char_traits@_W@std@@V?$allocator@_W@2@@2@XZ 1004431a f i libcpmt:wlocale.obj
 0001:00043347       ?pos_format@?$_Mpunct@G@std@@QBE?AUpattern@money_base@2@XZ 10044347 f i libcpmt:wlocale.obj
 0001:00043374       ?pos_format@?$_Mpunct@_W@std@@QBE?AUpattern@money_base@2@XZ 10044374 f i libcpmt:wlocale.obj
 0001:000433a1       ?positive_sign@?$_Mpunct@G@std@@QBE?AV?$basic_string@GU?$char_traits@G@std@@V?$allocator@G@2@@2@XZ 100443a1 f i libcpmt:wlocale.obj
 0001:000433ce       ?positive_sign@?$_Mpunct@_W@std@@QBE?AV?$basic_string@_WU?$char_traits@_W@std@@V?$allocator@_W@2@@2@XZ 100443ce f i libcpmt:wlocale.obj
 0001:000433fb       ?push_back@?$basic_string@GU?$char_traits@G@std@@V?$allocator@G@2@@std@@QAEXG@Z 100443fb f i libcpmt:wlocale.obj
 0001:00043446       ?push_back@?$basic_string@_WU?$char_traits@_W@std@@V?$allocator@_W@2@@std@@QAEX_W@Z 10044446 f i libcpmt:wlocale.obj
 0001:00043491       ?resize@?$basic_string@GU?$char_traits@G@std@@V?$allocator@G@2@@std@@QAEXIG@Z 10044491 f i libcpmt:wlocale.obj
 0001:000434bc       ?resize@?$basic_string@_WU?$char_traits@_W@std@@V?$allocator@_W@2@@std@@QAEXI_W@Z 100444bc f i libcpmt:wlocale.obj
 0001:000434e7       ?sbumpc@?$basic_streambuf@GU?$char_traits@G@std@@@std@@QAEGXZ 100444e7 f i libcpmt:wlocale.obj
 0001:00043532       ?sbumpc@?$basic_streambuf@_WU?$char_traits@_W@std@@@std@@QAEGXZ 10044532 f i libcpmt:wlocale.obj
 0001:0004357d       ?select_on_container_copy_construction@?$_Default_allocator_traits@V?$allocator@G@std@@@std@@SA?AV?$allocator@G@2@ABV32@@Z 1004457d f i libcpmt:wlocale.obj
 0001:00043587       ?select_on_container_copy_construction@?$_Default_allocator_traits@V?$allocator@_W@std@@@std@@SA?AV?$allocator@_W@2@ABV32@@Z 10044587 f i libcpmt:wlocale.obj
 0001:00043591       ?sgetc@?$basic_streambuf@GU?$char_traits@G@std@@@std@@QAEGXZ 10044591 f i libcpmt:wlocale.obj
 0001:000435ce       ?sgetc@?$basic_streambuf@_WU?$char_traits@_W@std@@@std@@QAEGXZ 100445ce f i libcpmt:wlocale.obj
 0001:0004360b       ?size@?$basic_string@GU?$char_traits@G@std@@V?$allocator@G@2@@std@@QBEIXZ 1004460b f i libcpmt:wlocale.obj
 0001:0004360f       ?size@?$basic_string@_WU?$char_traits@_W@std@@V?$allocator@_W@2@@std@@QBEIXZ 1004460f f i libcpmt:wlocale.obj
 0001:00043613       ?sputc@?$basic_streambuf@GU?$char_traits@G@std@@@std@@QAEGG@Z 10044613 f i libcpmt:wlocale.obj
 0001:0004366d       ?sputc@?$basic_streambuf@_WU?$char_traits@_W@std@@@std@@QAEG_W@Z 1004466d f i libcpmt:wlocale.obj
 0001:000436c7       ?thousands_sep@?$_Mpunct@G@std@@QBEGXZ 100446c7 f i libcpmt:wlocale.obj
 0001:000436e5       ?thousands_sep@?$_Mpunct@_W@std@@QBE_WXZ 100446e5 f i libcpmt:wlocale.obj
 0001:00043703       ?thousands_sep@?$numpunct@G@std@@QBEGXZ 10044703 f i libcpmt:wlocale.obj
 0001:00043721       ?thousands_sep@?$numpunct@_W@std@@QBE_WXZ 10044721 f i libcpmt:wlocale.obj
 0001:0004373f       ?to_char_type@?$_WChar_traits@G@std@@SAGABG@Z 1004473f f i libcpmt:wlocale.obj
 0001:0004374c       ?to_char_type@?$_WChar_traits@_W@std@@SA_WABG@Z 1004474c f i libcpmt:wlocale.obj
 0001:00043759       ?to_int_type@?$_WChar_traits@G@std@@SAGABG@Z 10044759 f i libcpmt:wlocale.obj
 0001:00043766       ?to_int_type@?$_WChar_traits@_W@std@@SAGAB_W@Z 10044766 f i libcpmt:wlocale.obj
 0001:00043773       ?tolower@?$ctype@G@std@@QBEGG@Z 10044773 f i libcpmt:wlocale.obj
 0001:0004379c       ?tolower@?$ctype@_W@std@@QBE_W_W@Z 1004479c f i libcpmt:wlocale.obj
 0001:000437c5       ?truename@?$numpunct@G@std@@QBE?AV?$basic_string@GU?$char_traits@G@std@@V?$allocator@G@2@@2@XZ 100447c5 f i libcpmt:wlocale.obj
 0001:000437f2       ?truename@?$numpunct@_W@std@@QBE?AV?$basic_string@_WU?$char_traits@_W@std@@V?$allocator@_W@2@@2@XZ 100447f2 f i libcpmt:wlocale.obj
 0001:0004381f       ?widen@?$ctype@G@std@@QBEGD@Z 1004481f f i libcpmt:wlocale.obj
 0001:00043848       ?widen@?$ctype@G@std@@QBEPBDPBD0PAG@Z 10044848 f i libcpmt:wlocale.obj
 0001:00043878       ?widen@?$ctype@_W@std@@QBEPBDPBD0PA_W@Z 10044878 f i libcpmt:wlocale.obj
 0001:000438a8       ?widen@?$ctype@_W@std@@QBE_WD@Z 100448a8 f i libcpmt:wlocale.obj
 0001:000438d1       _wmemcpy                   100448d1 f i libcpmt:wlocale.obj
 0001:000438f0       _wmemset                   100448f0 f i libcpmt:wlocale.obj
 0001:00043924       ??$_Copy_unchecked@PADV?$ostreambuf_iterator@DU?$char_traits@D@std@@@std@@@std@@YA?AV?$ostreambuf_iterator@DU?$char_traits@D@std@@@0@PAD0V10@@Z 10044924 f i libcpmt:xlocale.obj
 0001:0004395b       ??$_Find_elem@D$0M@@std@@YAIAAY0M@$$CBDD@Z 1004495b f i libcpmt:xlocale.obj
 0001:00043989       ??$_Get_unwrapped@AAPAD@std@@YA?A_TAAPAD@Z 10044989 f i libcpmt:xlocale.obj
 0001:00043995       ??$_Get_unwrapped_n@AAV?$ostreambuf_iterator@DU?$char_traits@D@std@@@std@@H@std@@YA?A_TAAV?$ostreambuf_iterator@DU?$char_traits@D@std@@@0@H@Z 10044995 f i libcpmt:xlocale.obj
 0001:0004399f       ??$_Getvals@D@?$_Mpunct@D@std@@IAEXDPBUlconv@@@Z 1004499f f i libcpmt:xlocale.obj
 0001:00043a3a       ??$_Getvals@D@?$time_get@DV?$istreambuf_iterator@DU?$char_traits@D@std@@@std@@@std@@IAEXDABV_Locinfo@1@@Z 10044a3a f i libcpmt:xlocale.obj
 0001:00043abf       ??$_Hash_array_representation@D@std@@YAIQBDI@Z 10044abf f i libcpmt:xlocale.obj
 0001:00043add       ??$_Idl_distance@PADPAD@std@@YA?A_PABQAD0@Z 10044add f i libcpmt:xlocale.obj
 0001:00043aef       ??$_LStrcoll@D@std@@YAHPBD000PBU_Collvec@@@Z 10044aef f i libcpmt:xlocale.obj
 0001:00043afa       ??$_LStrxfrm@D@std@@YAIPAD0PBD1PBU_Collvec@@@Z 10044afa f i libcpmt:xlocale.obj
 0001:00043b05       ??$_Refancy@PAD$0A@@std@@YAPADPAD@Z 10044b05 f i libcpmt:xlocale.obj
 0001:00043b0f       ??$_Seek_wrapped@V?$ostreambuf_iterator@DU?$char_traits@D@std@@@std@@V12@@std@@YAXAAV?$ostreambuf_iterator@DU?$char_traits@D@std@@@0@$$QAV10@@Z 10044b0f f i libcpmt:xlocale.obj
 0001:00043b29       ??$addressof@$$CBV?$moneypunct@D$00@std@@@std@@YAPBV?$moneypunct@D$00@0@ABV10@@Z 10044b29 f i libcpmt:xlocale.obj
 0001:00043b33       ??$addressof@$$CBV?$moneypunct@D$0A@@std@@@std@@YAPBV?$moneypunct@D$0A@@0@ABV10@@Z 10044b33 f i libcpmt:xlocale.obj
 0001:00043b3d       ??$copy@PADV?$ostreambuf_iterator@DU?$char_traits@D@std@@@std@@@std@@YA?AV?$ostreambuf_iterator@DU?$char_traits@D@std@@@0@PAD0V10@@Z 10044b3d f i libcpmt:xlocale.obj
 0001:00043b74       ??$forward@V?$ostreambuf_iterator@DU?$char_traits@D@std@@@std@@@std@@YA$$QAV?$ostreambuf_iterator@DU?$char_traits@D@std@@@0@AAV10@@Z 10044b74 f i libcpmt:xlocale.obj
 0001:00043b7e       ??$use_facet@V?$collate@D@std@@@std@@YAABV?$collate@D@0@ABVlocale@0@@Z 10044b7e f i libcpmt:xlocale.obj
 0001:00043c38       ??$use_facet@V?$messages@D@std@@@std@@YAABV?$messages@D@0@ABVlocale@0@@Z 10044c38 f i libcpmt:xlocale.obj
 0001:00043cf2       ??$use_facet@V?$money_get@DV?$istreambuf_iterator@DU?$char_traits@D@std@@@std@@@std@@@std@@YAABV?$money_get@DV?$istreambuf_iterator@DU?$char_traits@D@std@@@std@@@0@ABVlocale@0@@Z 10044cf2 f i libcpmt:xlocale.obj
 0001:00043dac       ??$use_facet@V?$money_put@DV?$ostreambuf_iterator@DU?$char_traits@D@std@@@std@@@std@@@std@@YAABV?$money_put@DV?$ostreambuf_iterator@DU?$char_traits@D@std@@@std@@@0@ABVlocale@0@@Z 10044dac f i libcpmt:xlocale.obj
 0001:00043e66       ??$use_facet@V?$moneypunct@D$00@std@@@std@@YAABV?$moneypunct@D$00@0@ABVlocale@0@@Z 10044e66 f i libcpmt:xlocale.obj
 0001:00043f20       ??$use_facet@V?$moneypunct@D$0A@@std@@@std@@YAABV?$moneypunct@D$0A@@0@ABVlocale@0@@Z 10044f20 f i libcpmt:xlocale.obj
 0001:00043fda       ??$use_facet@V?$time_get@DV?$istreambuf_iterator@DU?$char_traits@D@std@@@std@@@std@@@std@@YAABV?$time_get@DV?$istreambuf_iterator@DU?$char_traits@D@std@@@std@@@0@ABVlocale@0@@Z 10044fda f i libcpmt:xlocale.obj
 0001:00044094       ??$use_facet@V?$time_put@DV?$ostreambuf_iterator@DU?$char_traits@D@std@@@std@@@std@@@std@@YAABV?$time_put@DV?$ostreambuf_iterator@DU?$char_traits@D@std@@@std@@@0@ABVlocale@0@@Z 10045094 f i libcpmt:xlocale.obj
 0001:0004414e       ??0?$_Mpunct@D@std@@QAE@ABV_Locinfo@1@I_N1@Z 1004514e f i libcpmt:xlocale.obj
 0001:00044199       ??0?$_String_const_iterator@V?$_String_val@U?$_Simple_types@D@std@@@std@@@std@@QAE@PBDPBU_Container_base0@1@@Z 10045199 f i libcpmt:xlocale.obj
 0001:000441aa       ??0?$_String_const_iterator@V?$_String_val@U?$_Simple_types@D@std@@@std@@@std@@QAE@XZ 100451aa f i libcpmt:xlocale.obj
 0001:000441b0       ??0?$_String_iterator@V?$_String_val@U?$_Simple_types@D@std@@@std@@@std@@QAE@PBDPBU_Container_base0@1@@Z 100451b0 f i libcpmt:xlocale.obj
 0001:000441c1       ??0?$basic_string@DU?$char_traits@D@std@@V?$allocator@D@2@@std@@QAE@ABV01@@Z 100451c1 f i libcpmt:xlocale.obj
 0001:000441e7       ??0?$basic_string@DU?$char_traits@D@std@@V?$allocator@D@2@@std@@QAE@QBDI@Z 100451e7 f i libcpmt:xlocale.obj
 0001:0004422f       ??0?$collate@D@std@@QAE@ABV_Locinfo@1@I@Z 1004522f f i libcpmt:xlocale.obj
 0001:00044261       ??0?$messages@D@std@@QAE@ABV_Locinfo@1@I@Z 10045261 f i libcpmt:xlocale.obj
 0001:00044280       ??0?$money_get@DV?$istreambuf_iterator@DU?$char_traits@D@std@@@std@@@std@@QAE@ABV_Locinfo@1@I@Z 10045280 f i libcpmt:xlocale.obj
 0001:0004429f       ??0?$money_put@DV?$ostreambuf_iterator@DU?$char_traits@D@std@@@std@@@std@@QAE@ABV_Locinfo@1@I@Z 1004529f f i libcpmt:xlocale.obj
 0001:000442be       ??0?$moneypunct@D$00@std@@QAE@ABV_Locinfo@1@I_N@Z 100452be f i libcpmt:xlocale.obj
 0001:000442ee       ??0?$moneypunct@D$0A@@std@@QAE@ABV_Locinfo@1@I_N@Z 100452ee f i libcpmt:xlocale.obj
 0001:0004431e       ??0?$time_get@DV?$istreambuf_iterator@DU?$char_traits@D@std@@@std@@@std@@QAE@ABV_Locinfo@1@I@Z 1004531e f i libcpmt:xlocale.obj
 0001:0004435d       ??0?$time_put@DV?$ostreambuf_iterator@DU?$char_traits@D@std@@@std@@@std@@QAE@ABV_Locinfo@1@I@Z 1004535d f i libcpmt:xlocale.obj
 0001:00044390       ??1?$_Mpunct@D@std@@MAE@XZ 10045390 f i libcpmt:xlocale.obj
 0001:000443ab       ??1?$_Tidy_guard@V?$_Mpunct@D@std@@@std@@QAE@XZ 100453ab f i libcpmt:xlocale.obj
 0001:000443b8       ??1?$_Tidy_guard@V?$time_get@DV?$istreambuf_iterator@DU?$char_traits@D@std@@@std@@@std@@@std@@QAE@XZ 100453b8 f i libcpmt:xlocale.obj
 0001:000443c5       ??1?$collate@D@std@@MAE@XZ 100453c5 f i libcpmt:xlocale.obj
 0001:000443e5       ??1?$messages@D@std@@MAE@XZ 100453e5 f i libcpmt:xlocale.obj
 0001:000443ec       ??1?$money_get@DV?$istreambuf_iterator@DU?$char_traits@D@std@@@std@@@std@@MAE@XZ 100453ec f i libcpmt:xlocale.obj
 0001:000443f3       ??1?$money_put@DV?$ostreambuf_iterator@DU?$char_traits@D@std@@@std@@@std@@MAE@XZ 100453f3 f i libcpmt:xlocale.obj
 0001:000443fa       ??1?$moneypunct@D$00@std@@MAE@XZ 100453fa f i libcpmt:xlocale.obj
 0001:00044415       ??1?$moneypunct@D$0A@@std@@MAE@XZ 10045415 f i libcpmt:xlocale.obj
 0001:00044430       ??1?$time_get@DV?$istreambuf_iterator@DU?$char_traits@D@std@@@std@@@std@@MAE@XZ 10045430 f i libcpmt:xlocale.obj
 0001:0004444b       ??1?$time_put@DV?$ostreambuf_iterator@DU?$char_traits@D@std@@@std@@@std@@MAE@XZ 1004544b f i libcpmt:xlocale.obj
 0001:0004446b       ??8?$_String_const_iterator@V?$_String_val@U?$_Simple_types@D@std@@@std@@@std@@QBE_NABV01@@Z 1004546b f i libcpmt:xlocale.obj
 0001:00044480       ??D?$_String_const_iterator@V?$_String_val@U?$_Simple_types@D@std@@@std@@@std@@QBEABDXZ 10045480 f i libcpmt:xlocale.obj
 0001:00044483       ??D?$_String_iterator@V?$_String_val@U?$_Simple_types@D@std@@@std@@@std@@QBEAADXZ 10045483 f i libcpmt:xlocale.obj
 0001:00044486       ??E?$_String_const_iterator@V?$_String_val@U?$_Simple_types@D@std@@@std@@@std@@QAEAAV01@XZ 10045486 f i libcpmt:xlocale.obj
 0001:0004448b       ??E?$_String_iterator@V?$_String_val@U?$_Simple_types@D@std@@@std@@@std@@QAEAAV01@XZ 1004548b f i libcpmt:xlocale.obj
 0001:00044490       ??E?$ostreambuf_iterator@DU?$char_traits@D@std@@@std@@QAEAAV01@H@Z 10045490 f i libcpmt:xlocale.obj
 0001:00044495       ??G?$_String_iterator@V?$_String_val@U?$_Simple_types@D@std@@@std@@@std@@QBE?AV01@H@Z 10045495 f i libcpmt:xlocale.obj
 0001:000444aa       ??H?$_String_iterator@V?$_String_val@U?$_Simple_types@D@std@@@std@@@std@@QBE?AV01@H@Z 100454aa f i libcpmt:xlocale.obj
 0001:000444bf       ??Y?$_String_const_iterator@V?$_String_val@U?$_Simple_types@D@std@@@std@@@std@@QAEAAV01@H@Z 100454bf f i libcpmt:xlocale.obj
 0001:000444d0       ??Y?$_String_iterator@V?$_String_val@U?$_Simple_types@D@std@@@std@@@std@@QAEAAV01@H@Z 100454d0 f i libcpmt:xlocale.obj
 0001:000444e1       ??Z?$_String_const_iterator@V?$_String_val@U?$_Simple_types@D@std@@@std@@@std@@QAEAAV01@H@Z 100454e1 f i libcpmt:xlocale.obj
 0001:000444f2       ??Z?$_String_iterator@V?$_String_val@U?$_Simple_types@D@std@@@std@@@std@@QAEAAV01@H@Z 100454f2 f i libcpmt:xlocale.obj
 0001:00044503       ??_G?$_Mpunct@D@std@@MAEPAXI@Z 10045503 f i libcpmt:xlocale.obj
 0001:00044503       ??_E?$_Mpunct@D@std@@MAEPAXI@Z 10045503 f i libcpmt:xlocale.obj
 0001:0004453c       ??_G?$collate@D@std@@MAEPAXI@Z 1004553c f i libcpmt:xlocale.obj
 0001:0004453c       ??_E?$collate@D@std@@MAEPAXI@Z 1004553c f i libcpmt:xlocale.obj
 0001:00044566       ??_E?$messages@D@std@@MAEPAXI@Z 10045566 f i libcpmt:xlocale.obj
 0001:00044566       ??_G?$messages@D@std@@MAEPAXI@Z 10045566 f i libcpmt:xlocale.obj
 0001:00044591       ??_E?$money_get@DV?$istreambuf_iterator@DU?$char_traits@D@std@@@std@@@std@@MAEPAXI@Z 10045591 f i libcpmt:xlocale.obj
 0001:00044591       ??_G?$money_get@DV?$istreambuf_iterator@DU?$char_traits@D@std@@@std@@@std@@MAEPAXI@Z 10045591 f i libcpmt:xlocale.obj
 0001:000445bc       ??_E?$money_put@DV?$ostreambuf_iterator@DU?$char_traits@D@std@@@std@@@std@@MAEPAXI@Z 100455bc f i libcpmt:xlocale.obj
 0001:000445bc       ??_G?$money_put@DV?$ostreambuf_iterator@DU?$char_traits@D@std@@@std@@@std@@MAEPAXI@Z 100455bc f i libcpmt:xlocale.obj
 0001:000445e7       ??_G?$moneypunct@D$00@std@@MAEPAXI@Z 100455e7 f i libcpmt:xlocale.obj
 0001:000445e7       ??_E?$moneypunct@D$00@std@@MAEPAXI@Z 100455e7 f i libcpmt:xlocale.obj
 0001:00044620       ??_G?$moneypunct@D$0A@@std@@MAEPAXI@Z 10045620 f i libcpmt:xlocale.obj
 0001:00044620       ??_E?$moneypunct@D$0A@@std@@MAEPAXI@Z 10045620 f i libcpmt:xlocale.obj
 0001:00044659       ??_G?$time_get@DV?$istreambuf_iterator@DU?$char_traits@D@std@@@std@@@std@@MAEPAXI@Z 10045659 f i libcpmt:xlocale.obj
 0001:00044659       ??_E?$time_get@DV?$istreambuf_iterator@DU?$char_traits@D@std@@@std@@@std@@MAEPAXI@Z 10045659 f i libcpmt:xlocale.obj
 0001:00044692       ??_E?$time_put@DV?$ostreambuf_iterator@DU?$char_traits@D@std@@@std@@@std@@MAEPAXI@Z 10045692 f i libcpmt:xlocale.obj
 0001:00044692       ??_G?$time_put@DV?$ostreambuf_iterator@DU?$char_traits@D@std@@@std@@@std@@MAEPAXI@Z 10045692 f i libcpmt:xlocale.obj
 0001:000446bc       ?_Compat@?$_String_const_iterator@V?$_String_val@U?$_Simple_types@D@std@@@std@@@std@@QBEXABV12@@Z 100456bc f i libcpmt:xlocale.obj
 0001:000446bf       ?_Construct_lv_contents@?$basic_string@DU?$char_traits@D@std@@V?$allocator@D@2@@std@@AAEXABV12@@Z 100456bf f i libcpmt:xlocale.obj
 0001:00044741       ?_Getcat@?$collate@D@std@@SAIPAPBVfacet@locale@2@PBV42@@Z 10045741 f i libcpmt:xlocale.obj
 0001:0004480b       ?_Getcat@?$messages@D@std@@SAIPAPBVfacet@locale@2@PBV42@@Z 1004580b f i libcpmt:xlocale.obj
 0001:0004488d       ?_Getcat@?$money_get@DV?$istreambuf_iterator@DU?$char_traits@D@std@@@std@@@std@@SAIPAPBVfacet@locale@2@PBV42@@Z 1004588d f i libcpmt:xlocale.obj
 0001:0004490f       ?_Getcat@?$money_put@DV?$ostreambuf_iterator@DU?$char_traits@D@std@@@std@@@std@@SAIPAPBVfacet@locale@2@PBV42@@Z 1004590f f i libcpmt:xlocale.obj
 0001:00044991       ?_Getcat@?$moneypunct@D$00@std@@SAIPAPBVfacet@locale@2@PBV42@@Z 10045991 f i libcpmt:xlocale.obj
 0001:00044a36       ?_Getcat@?$moneypunct@D$0A@@std@@SAIPAPBVfacet@locale@2@PBV42@@Z 10045a36 f i libcpmt:xlocale.obj
 0001:00044adc       ?_Getcat@?$time_get@DV?$istreambuf_iterator@DU?$char_traits@D@std@@@std@@@std@@SAIPAPBVfacet@locale@2@PBV42@@Z 10045adc f i libcpmt:xlocale.obj
 0001:00044b63       ?_Getcat@?$time_put@DV?$ostreambuf_iterator@DU?$char_traits@D@std@@@std@@@std@@SAIPAPBVfacet@locale@2@PBV42@@Z 10045b63 f i libcpmt:xlocale.obj
 0001:00044bf4       ?_Getfmt@?$time_get@DV?$istreambuf_iterator@DU?$char_traits@D@std@@@std@@@std@@IBE?AV?$istreambuf_iterator@DU?$char_traits@D@std@@@2@V32@0AAVios_base@2@AAHPAUtm@@PBD@Z 10045bf4 f i libcpmt:xlocale.obj
 0001:00044d70       ?_Getint@?$time_get@DV?$istreambuf_iterator@DU?$char_traits@D@std@@@std@@@std@@ABAHAAV?$istreambuf_iterator@DU?$char_traits@D@std@@@2@0HHAAHABV?$ctype@D@2@@Z 10045d70 f i libcpmt:xlocale.obj
 0001:0004500f       ?_Getmfld@?$money_get@DV?$istreambuf_iterator@DU?$char_traits@D@std@@@std@@@std@@ABE?AV?$basic_string@DU?$char_traits@D@std@@V?$allocator@D@2@@2@AAV?$istreambuf_iterator@DU?$char_traits@D@std@@@2@0_NAAVios_base@2@AAY0M@D@Z 1004600f f i libcpmt:xlocale.obj
 0001:00045db6       ?_Gettnames@_Locinfo@std@@QBE?AV_Timevec@2@XZ 10046db6 f i libcpmt:xlocale.obj
 0001:00045dcd       ?_Init@?$_Mpunct@D@std@@IAEXABV_Locinfo@2@_N@Z 10046dcd f i libcpmt:xlocale.obj
 0001:00045eca       ?_Init@?$collate@D@std@@IAEXABV_Locinfo@2@@Z 10046eca f i libcpmt:xlocale.obj
 0001:00045ee0       ?_Init@?$messages@D@std@@IAEXABV_Locinfo@2@@Z 10046ee0 f i libcpmt:xlocale.obj
 0001:00045ee3       ?_Init@?$money_get@DV?$istreambuf_iterator@DU?$char_traits@D@std@@@std@@@std@@IAEXABV_Locinfo@2@@Z 10046ee3 f i libcpmt:xlocale.obj
 0001:00045ee6       ?_Init@?$money_put@DV?$ostreambuf_iterator@DU?$char_traits@D@std@@@std@@@std@@IAEXABV_Locinfo@2@@Z 10046ee6 f i libcpmt:xlocale.obj
 0001:00045ee9       ?_Init@?$time_get@DV?$istreambuf_iterator@DU?$char_traits@D@std@@@std@@@std@@IAEXABV_Locinfo@2@@Z 10046ee9 f i libcpmt:xlocale.obj
 0001:00045f2f       ?_Init@?$time_put@DV?$ostreambuf_iterator@DU?$char_traits@D@std@@@std@@@std@@IAEXABV_Locinfo@2@@Z 10046f2f f i libcpmt:xlocale.obj
 0001:00045f62       ?_Makexloc@_Locimp@locale@std@@CAXABV_Locinfo@3@HPAV123@PBV23@@Z 10046f62 f   libcpmt:xlocale.obj
 0001:00046372       ?_Makpat@?$_Mpunct@D@std@@AAEXAAUpattern@money_base@2@III@Z 10047372 f i libcpmt:xlocale.obj
 0001:000463c3       ?_Put@?$money_put@DV?$ostreambuf_iterator@DU?$char_traits@D@std@@@std@@@std@@CA?AV?$ostreambuf_iterator@DU?$char_traits@D@std@@@2@V32@V?$_String_const_iterator@V?$_String_val@U?$_Simple_types@D@std@@@std@@@2@I@Z 100473c3 f i libcpmt:xlocale.obj
 0001:00046407       ?_Putmfld@?$money_put@DV?$ostreambuf_iterator@DU?$char_traits@D@std@@@std@@@std@@ABE?AV?$ostreambuf_iterator@DU?$char_traits@D@std@@@2@V32@_NAAVios_base@2@D1V?$basic_string@DU?$char_traits@D@std@@V?$allocator@D@2@@2@D@Z 10047407 f i libcpmt:xlocale.obj
 0001:00046ba2       ?_Rep@?$money_put@DV?$ostreambuf_iterator@DU?$char_traits@D@std@@@std@@@std@@CA?AV?$ostreambuf_iterator@DU?$char_traits@D@std@@@2@V32@DI@Z 10047ba2 f i libcpmt:xlocale.obj
 0001:00046bd9       ?_Tidy@?$_Mpunct@D@std@@AAEXXZ 10047bd9 f i libcpmt:xlocale.obj
 0001:00046c0b       ?_Tidy@?$time_get@DV?$istreambuf_iterator@DU?$char_traits@D@std@@@std@@@std@@AAEXXZ 10047c0b f i libcpmt:xlocale.obj
 0001:00046c33       ?begin@?$basic_string@DU?$char_traits@D@std@@V?$allocator@D@2@@std@@QAE?AV?$_String_iterator@V?$_String_val@U?$_Simple_types@D@std@@@std@@@2@XZ 10047c33 f i libcpmt:xlocale.obj
 0001:00046c4c       ?curr_symbol@?$_Mpunct@D@std@@QBE?AV?$basic_string@DU?$char_traits@D@std@@V?$allocator@D@2@@2@XZ 10047c4c f i libcpmt:xlocale.obj
 0001:00046c79       ?date_order@?$time_get@DV?$istreambuf_iterator@DU?$char_traits@D@std@@@std@@@std@@QBE?AW4dateorder@time_base@2@XZ 10047c79 f i libcpmt:xlocale.obj
 0001:00046c97       ?decimal_point@?$_Mpunct@D@std@@QBEDXZ 10047c97 f i libcpmt:xlocale.obj
 0001:00046cb5       ?do_close@?$messages@D@std@@MBEXH@Z 10047cb5 f i libcpmt:xlocale.obj
 0001:00046cb8       ?do_compare@?$collate@D@std@@MBEHPBD000@Z 10047cb8 f i libcpmt:xlocale.obj
 0001:00046cf5       ?do_curr_symbol@?$_Mpunct@D@std@@MBE?AV?$basic_string@DU?$char_traits@D@std@@V?$allocator@D@2@@2@XZ 10047cf5 f i libcpmt:xlocale.obj
 0001:00046d0f       ?do_date_order@?$time_get@DV?$istreambuf_iterator@DU?$char_traits@D@std@@@std@@@std@@MBE?AW4dateorder@time_base@2@XZ 10047d0f f i libcpmt:xlocale.obj
 0001:00046d13       ?do_decimal_point@?$_Mpunct@D@std@@MBEDXZ 10047d13 f i libcpmt:xlocale.obj
 0001:00046d17       ?do_frac_digits@?$_Mpunct@D@std@@MBEHXZ 10047d17 f i libcpmt:xlocale.obj
 0001:00046d1b       ?do_get@?$messages@D@std@@MBE?AV?$basic_string@DU?$char_traits@D@std@@V?$allocator@D@2@@2@HHHABV32@@Z 10047d1b f i libcpmt:xlocale.obj
 0001:00046d45       ?do_get@?$money_get@DV?$istreambuf_iterator@DU?$char_traits@D@std@@@std@@@std@@MBE?AV?$istreambuf_iterator@DU?$char_traits@D@std@@@2@V32@0_NAAVios_base@2@AAHAAO@Z 10047d45 f i libcpmt:xlocale.obj
 0001:00046e17       ?do_get@?$money_get@DV?$istreambuf_iterator@DU?$char_traits@D@std@@@std@@@std@@MBE?AV?$istreambuf_iterator@DU?$char_traits@D@std@@@2@V32@0_NAAVios_base@2@AAHAAV?$basic_string@DU?$char_traits@D@std@@V?$allocator@D@2@@2@@Z 10047e17 f i libcpmt:xlocale.obj
 0001:00046f1d       ?do_get@?$time_get@DV?$istreambuf_iterator@DU?$char_traits@D@std@@@std@@@std@@MBE?AV?$istreambuf_iterator@DU?$char_traits@D@std@@@2@V32@0AAVios_base@2@AAHPAUtm@@DD@Z 10047f1d f i libcpmt:xlocale.obj
 0001:000473ce       ?do_get_date@?$time_get@DV?$istreambuf_iterator@DU?$char_traits@D@std@@@std@@@std@@MBE?AV?$istreambuf_iterator@DU?$char_traits@D@std@@@2@V32@0AAVios_base@2@AAHPAUtm@@@Z 100483ce f i libcpmt:xlocale.obj
 0001:0004797f       ?do_get_monthname@?$time_get@DV?$istreambuf_iterator@DU?$char_traits@D@std@@@std@@@std@@MBE?AV?$istreambuf_iterator@DU?$char_traits@D@std@@@2@V32@0AAVios_base@2@AAHPAUtm@@@Z 1004897f f i libcpmt:xlocale.obj
 0001:000479d1       ?do_get_time@?$time_get@DV?$istreambuf_iterator@DU?$char_traits@D@std@@@std@@@std@@MBE?AV?$istreambuf_iterator@DU?$char_traits@D@std@@@2@V32@0AAVios_base@2@AAHPAUtm@@@Z 100489d1 f i libcpmt:xlocale.obj
 0001:00047b3b       ?do_get_weekday@?$time_get@DV?$istreambuf_iterator@DU?$char_traits@D@std@@@std@@@std@@MBE?AV?$istreambuf_iterator@DU?$char_traits@D@std@@@2@V32@0AAVios_base@2@AAHPAUtm@@@Z 10048b3b f i libcpmt:xlocale.obj
 0001:00047b8d       ?do_get_year@?$time_get@DV?$istreambuf_iterator@DU?$char_traits@D@std@@@std@@@std@@MBE?AV?$istreambuf_iterator@DU?$char_traits@D@std@@@2@V32@0AAVios_base@2@AAHPAUtm@@@Z 10048b8d f i libcpmt:xlocale.obj
 0001:00047c47       ?do_grouping@?$_Mpunct@D@std@@MBE?AV?$basic_string@DU?$char_traits@D@std@@V?$allocator@D@2@@2@XZ 10048c47 f i libcpmt:xlocale.obj
 0001:00047c61       ?do_hash@?$collate@D@std@@MBEJPBD0@Z 10048c61 f i libcpmt:xlocale.obj
 0001:00047c86       ?do_neg_format@?$_Mpunct@D@std@@MBE?AUpattern@money_base@2@XZ 10048c86 f i libcpmt:xlocale.obj
 0001:00047c98       ?do_negative_sign@?$_Mpunct@D@std@@MBE?AV?$basic_string@DU?$char_traits@D@std@@V?$allocator@D@2@@2@XZ 10048c98 f i libcpmt:xlocale.obj
 0001:00047cb2       ?do_open@?$messages@D@std@@MBEHABV?$basic_string@DU?$char_traits@D@std@@V?$allocator@D@2@@2@ABVlocale@2@@Z 10048cb2 f i libcpmt:xlocale.obj
 0001:00047cb8       ?do_pos_format@?$_Mpunct@D@std@@MBE?AUpattern@money_base@2@XZ 10048cb8 f i libcpmt:xlocale.obj
 0001:00047cca       ?do_positive_sign@?$_Mpunct@D@std@@MBE?AV?$basic_string@DU?$char_traits@D@std@@V?$allocator@D@2@@2@XZ 10048cca f i libcpmt:xlocale.obj
 0001:00047ce4       ?do_put@?$money_put@DV?$ostreambuf_iterator@DU?$char_traits@D@std@@@std@@@std@@MBE?AV?$ostreambuf_iterator@DU?$char_traits@D@std@@@2@V32@_NAAVios_base@2@DABV?$basic_string@DU?$char_traits@D@std@@V?$allocator@D@2@@2@@Z 10048ce4 f i libcpmt:xlocale.obj
 0001:00047e5c       ?do_put@?$money_put@DV?$ostreambuf_iterator@DU?$char_traits@D@std@@@std@@@std@@MBE?AV?$ostreambuf_iterator@DU?$char_traits@D@std@@@2@V32@_NAAVios_base@2@DO@Z 10048e5c f i libcpmt:xlocale.obj
 0001:0004802b       ?do_put@?$time_put@DV?$ostreambuf_iterator@DU?$char_traits@D@std@@@std@@@std@@MBE?AV?$ostreambuf_iterator@DU?$char_traits@D@std@@@2@V32@AAVios_base@2@DPBUtm@@DD@Z 1004902b f i libcpmt:xlocale.obj
 0001:0004817d       ?do_thousands_sep@?$_Mpunct@D@std@@MBEDXZ 1004917d f i libcpmt:xlocale.obj
 0001:00048181       ?do_transform@?$collate@D@std@@MBE?AV?$basic_string@DU?$char_traits@D@std@@V?$allocator@D@2@@2@PBD0@Z 10049181 f i libcpmt:xlocale.obj
 0001:00048228       ?empty@?$basic_string@DU?$char_traits@D@std@@V?$allocator@D@2@@std@@QBE_NXZ 10049228 f i libcpmt:xlocale.obj
 0001:00048232       ?end@?$basic_string@DU?$char_traits@D@std@@V?$allocator@D@2@@std@@QAE?AV?$_String_iterator@V?$_String_val@U?$_Simple_types@D@std@@@std@@@2@XZ 10049232 f i libcpmt:xlocale.obj
 0001:00048253       ?frac_digits@?$_Mpunct@D@std@@QBEHXZ 10049253 f i libcpmt:xlocale.obj
 0001:00048271       ?get_monthname@?$time_get@DV?$istreambuf_iterator@DU?$char_traits@D@std@@@std@@@std@@QBE?AV?$istreambuf_iterator@DU?$char_traits@D@std@@@2@V32@0AAVios_base@2@AAHPAUtm@@@Z 10049271 f i libcpmt:xlocale.obj
 0001:000482b7       ?get_weekday@?$time_get@DV?$istreambuf_iterator@DU?$char_traits@D@std@@@std@@@std@@QBE?AV?$istreambuf_iterator@DU?$char_traits@D@std@@@2@V32@0AAVios_base@2@AAHPAUtm@@@Z 100492b7 f i libcpmt:xlocale.obj
 0001:000482fd       ?get_year@?$time_get@DV?$istreambuf_iterator@DU?$char_traits@D@std@@@std@@@std@@QBE?AV?$istreambuf_iterator@DU?$char_traits@D@std@@@2@V32@0AAVios_base@2@AAHPAUtm@@@Z 100492fd f i libcpmt:xlocale.obj
 0001:00048343       ?grouping@?$_Mpunct@D@std@@QBE?AV?$basic_string@DU?$char_traits@D@std@@V?$allocator@D@2@@2@XZ 10049343 f i libcpmt:xlocale.obj
 0001:00048370       ?is@?$ctype@D@std@@QBE_NFD@Z 10049370 f i libcpmt:xlocale.obj
 0001:0004838f       ?narrow@?$ctype@D@std@@QBEDDD@Z 1004938f f i libcpmt:xlocale.obj
 0001:000483bc       ?neg_format@?$_Mpunct@D@std@@QBE?AUpattern@money_base@2@XZ 100493bc f i libcpmt:xlocale.obj
 0001:000483e9       ?negative_sign@?$_Mpunct@D@std@@QBE?AV?$basic_string@DU?$char_traits@D@std@@V?$allocator@D@2@@2@XZ 100493e9 f i libcpmt:xlocale.obj
 0001:00048416       ?pos_format@?$_Mpunct@D@std@@QBE?AUpattern@money_base@2@XZ 10049416 f i libcpmt:xlocale.obj
 0001:00048443       ?positive_sign@?$_Mpunct@D@std@@QBE?AV?$basic_string@DU?$char_traits@D@std@@V?$allocator@D@2@@2@XZ 10049443 f i libcpmt:xlocale.obj
 0001:00048470       ?select_on_container_copy_construction@?$_Default_allocator_traits@V?$allocator@D@std@@@std@@SA?AV?$allocator@D@2@ABV32@@Z 10049470 f i libcpmt:xlocale.obj
 0001:0004847a       ?thousands_sep@?$_Mpunct@D@std@@QBEDXZ 1004947a f i libcpmt:xlocale.obj
 0001:00048498       ?widen@?$ctype@D@std@@QBEDD@Z 10049498 f i libcpmt:xlocale.obj
 0001:000484c1       __Stolx                    100494c1 f   libcpmt:xstol.obj
 0001:0004858e       __Stoul                    1004958e f   libcpmt:xstoul.obj
 0001:000485ac       __Stoulx                   100495ac f   libcpmt:xstoul.obj
 0001:0004877a       __Stoll                    1004977a f   libcpmt:xstoll.obj
 0001:00048798       __Stollx                   10049798 f   libcpmt:xstoll.obj
 0001:00048895       __Stoull                   10049895 f   libcpmt:xstoull.obj
 0001:000488b3       __Stoullx                  100498b3 f   libcpmt:xstoull.obj
 0001:00048ae0       __Getcoll                  10049ae0 f   libcpmt:xstrcoll.obj
 0001:00048b09       __Strcoll                  10049b09 f   libcpmt:xstrcoll.obj
 0001:00048bc0       __Getdateorder             10049bc0 f   libcpmt:xdateord.obj
 0001:00048c46       __Mbrtowc                  10049c46 f   libcpmt:xmbtowc.obj
 0001:00048e30       __Wcscoll                  10049e30 f   libcpmt:xwcscoll.obj
 0001:00048eda       _wmemcmp                   10049eda f i libcpmt:xwcscoll.obj
 0001:00048f1d       ??$?RE@__crt_internal_free_policy@@QBEXQBE@Z 10049f1d f i libcpmt:xwcsxfrm.obj
 0001:00048f31       ??0?$__crt_unique_heap_ptr@EU__crt_internal_free_policy@@@@QAE@QAE@Z 10049f31 f i libcpmt:xwcsxfrm.obj
 0001:00048f42       ??1?$__crt_unique_heap_ptr@EU__crt_internal_free_policy@@@@QAE@XZ 10049f42 f i libcpmt:xwcsxfrm.obj
 0001:00048f56       ??B?$__crt_unique_heap_ptr@EU__crt_internal_free_policy@@@@QBE_NXZ 10049f56 f i libcpmt:xwcsxfrm.obj
 0001:00048f5d       ?get@?$__crt_unique_heap_ptr@EU__crt_internal_free_policy@@@@QBEPAEXZ 10049f5d f i libcpmt:xwcsxfrm.obj
 0001:00048f60       ?is_valid@?$__crt_unique_heap_ptr@EU__crt_internal_free_policy@@@@QBE_NXZ 10049f60 f i libcpmt:xwcsxfrm.obj
 0001:00048f67       ?release@?$__crt_unique_heap_ptr@EU__crt_internal_free_policy@@@@QAEXXZ 10049f67 f i libcpmt:xwcsxfrm.obj
 0001:00048f7b       __Wcsxfrm                  10049f7b f   libcpmt:xwcsxfrm.obj
 0001:00049077       __Getwctype                1004a077 f   libcpmt:xgetwctype.obj
 0001:0004909f       __Getwctypes               1004a09f f   libcpmt:xgetwctype.obj
 0001:000490c5       __Towlower                 1004a0c5 f   libcpmt:xtowlower.obj
 0001:0004913d       __Towupper                 1004a13d f   libcpmt:xtowupper.obj
 0001:000491ba       __Strxfrm                  1004a1ba f   libcpmt:xstrxfrm.obj
 0001:0004928e       ___crtCompareStringA       1004a28e f   libcpmt:StlCompareStringA.obj
 0001:0004958d       ___crtCompareStringW       1004a58d f   libcpmt:StlCompareStringW.obj
 0001:0004960a       ___crtLCMapStringW         1004a60a f   libcpmt:StlLCMapStringW.obj
 0001:00049656       _GetModuleHandleA@4        1004a656 f   kernel32:KERNEL32.dll
 0001:0004965c       _GetProcAddress@8          1004a65c f   kernel32:KERNEL32.dll
 0001:00049662       _FindFirstFileA@8          1004a662 f   kernel32:KERNEL32.dll
 0001:00049668       _FindNextFileA@8           1004a668 f   kernel32:KERNEL32.dll
 0001:0004966e       _CloseHandle@4             1004a66e f   kernel32:KERNEL32.dll
 0001:00049674       _ReleaseSemaphore@12       1004a674 f   kernel32:KERNEL32.dll
 0001:0004967a       _ReleaseMutex@4            1004a67a f   kernel32:KERNEL32.dll
 0001:00049680       _WaitForSingleObject@8     1004a680 f   kernel32:KERNEL32.dll
 0001:00049686       _CreateMutexA@12           1004a686 f   kernel32:KERNEL32.dll
 0001:0004968c       _CreateThread@24           1004a68c f   kernel32:KERNEL32.dll
 0001:00049692       _TerminateThread@8         1004a692 f   kernel32:KERNEL32.dll
 0001:00049698       _CreateSemaphoreA@16       1004a698 f   kernel32:KERNEL32.dll
 0001:0004969e       _UnhandledExceptionFilter@4 1004a69e f   kernel32:KERNEL32.dll
 0001:000496a4       _SetUnhandledExceptionFilter@4 1004a6a4 f   kernel32:KERNEL32.dll
 0001:000496aa       _GetCurrentProcess@0       1004a6aa f   kernel32:KERNEL32.dll
 0001:000496b0       _TerminateProcess@8        1004a6b0 f   kernel32:KERNEL32.dll
 0001:000496b6       _IsProcessorFeaturePresent@4 1004a6b6 f   kernel32:KERNEL32.dll
 0001:000496bc       _QueryPerformanceCounter@4 1004a6bc f   kernel32:KERNEL32.dll
 0001:000496c2       _GetCurrentProcessId@0     1004a6c2 f   kernel32:KERNEL32.dll
 0001:000496c8       _GetCurrentThreadId@0      1004a6c8 f   kernel32:KERNEL32.dll
 0001:000496ce       _GetSystemTimeAsFileTime@4 1004a6ce f   kernel32:KERNEL32.dll
 0001:000496d4       _InitializeSListHead@4     1004a6d4 f   kernel32:KERNEL32.dll
 0001:000496da       _IsDebuggerPresent@0       1004a6da f   kernel32:KERNEL32.dll
 0001:000496e0       _GetStartupInfoW@4         1004a6e0 f   kernel32:KERNEL32.dll
 0001:000496e6       _GetModuleHandleW@4        1004a6e6 f   kernel32:KERNEL32.dll
 0001:000496ec       _FormatMessageA@28         1004a6ec f   kernel32:KERNEL32.dll
 0001:000496f2       _WideCharToMultiByte@32    1004a6f2 f   kernel32:KERNEL32.dll
 0001:000496f8       _EnterCriticalSection@4    1004a6f8 f   kernel32:KERNEL32.dll
 0001:000496fe       _LeaveCriticalSection@4    1004a6fe f   kernel32:KERNEL32.dll
 0001:00049704       _InitializeCriticalSectionEx@12 1004a704 f   kernel32:KERNEL32.dll
 0001:0004970a       _DeleteCriticalSection@4   1004a70a f   kernel32:KERNEL32.dll
 0001:00049710       _LocalFree@4               1004a710 f   kernel32:KERNEL32.dll
 0001:00049716       _EncodePointer@4           1004a716 f   kernel32:KERNEL32.dll
 0001:0004971c       _DecodePointer@4           1004a71c f   kernel32:KERNEL32.dll
 0001:00049722       _MultiByteToWideChar@24    1004a722 f   kernel32:KERNEL32.dll
 0001:00049728       _LCMapStringEx@36          1004a728 f   kernel32:KERNEL32.dll
 0001:0004972e       _GetLocaleInfoEx@16        1004a72e f   kernel32:KERNEL32.dll
 0001:00049734       _GetStringTypeW@16         1004a734 f   kernel32:KERNEL32.dll
 0001:0004973a       _CompareStringEx@36        1004a73a f   kernel32:KERNEL32.dll
 0001:00049740       _GetCPInfo@8               1004a740 f   kernel32:KERNEL32.dll
 0001:00049750       _memcpy                    1004a750 f   libvcruntime:memcpy.obj
 0001:00049e30       _strchr                    1004ae30 f   libvcruntime:strchr.obj
 0001:00049e9e       ___from_strstr_to_strchr   1004ae9e     libvcruntime:strchr.obj
 0001:00049fb0       _memmove                   1004afb0 f   libvcruntime:memmove.obj
 0001:0004a690       _memset                    1004b690 f   libvcruntime:memset.obj
 0001:0004a840       ??$__crt_interlocked_exchange_pointer@$$A6AXXZP6AXXZ@@YAP6AXXZPDS6AXXZQ6AXXZ@Z 1004b840 f i libvcruntime:purevirt.obj
 0001:0004a850       ??$__crt_interlocked_read_pointer@$$A6AXXZ@@YAP6AXXZPDS6AXXZ@Z 1004b850 f i libvcruntime:purevirt.obj
 0001:0004a85c       ?__crt_interlocked_read_32@@YAHPDH@Z 1004b85c f i libvcruntime:purevirt.obj
 0001:0004a868       __get_purecall_handler     1004b868 f   libvcruntime:purevirt.obj
 0001:0004a86e       __purecall                 1004b86e f   libvcruntime:purevirt.obj
 0001:0004a891       __set_purecall_handler     1004b891 f   libvcruntime:purevirt.obj
 0001:0004a8a3       ___DestructExceptionObject 1004b8a3 f   libvcruntime:ehhelpers.obj
 0001:0004a96c       ?_CallMemberFunction0@@YGXQAX0@Z 1004b96c f i libvcruntime:ehhelpers.obj
 0001:0004a9ea       ?raw_name@type_info@@QBEPBDXZ 1004b9ea f i libvcruntime:ehhelpers.obj
 0001:0004a9ee       __IsExceptionObjectToBeDestroyed 1004b9ee f   libvcruntime:ehhelpers.obj
 0001:0004aa1d       __SetWinRTOutOfMemoryExceptionCallback 1004ba1d f   libvcruntime:ehhelpers.obj
 0001:0004aa2d       ___AdjustPointer           1004ba2d f   libvcruntime:ehhelpers.obj
 0001:0004aa5b       ___FrameUnwindFilter       1004ba5b f   libvcruntime:ehhelpers.obj
 0001:0004aac6       ___GetPlatformExceptionInfo 1004bac6 f   libvcruntime:ehhelpers.obj
 0001:0004ab25       ___current_exception       1004bb25 f   libvcruntime:ehhelpers.obj
 0001:0004ab30       ___current_exception_context 1004bb30 f   libvcruntime:ehhelpers.obj
 0001:0004ab3b       ___processing_throw        1004bb3b f   libvcruntime:ehhelpers.obj
 0001:0004ab46       ___std_terminate           1004bb46 f   libvcruntime:ehhelpers.obj
 0001:0004ab4b       __is_exception_typeof      1004bb4b f   libvcruntime:ehhelpers.obj
 0001:0004ac18       ??$?RD@__crt_public_free_policy@@QBEXQBD@Z 1004bc18 f i libvcruntime:std_exception.obj
 0001:0004ac2c       ??0?$__crt_unique_heap_ptr@DU__crt_public_free_policy@@@@QAE@QAD@Z 1004bc2c f i libvcruntime:std_exception.obj
 0001:0004ac3d       ??1?$__crt_unique_heap_ptr@DU__crt_public_free_policy@@@@QAE@XZ 1004bc3d f i libvcruntime:std_exception.obj
 0001:0004ac51       ??B?$__crt_unique_heap_ptr@DU__crt_public_free_policy@@@@QBE_NXZ 1004bc51 f i libvcruntime:std_exception.obj
 0001:0004ac58       ?detach@?$__crt_unique_heap_ptr@DU__crt_public_free_policy@@@@QAEPADXZ 1004bc58 f i libvcruntime:std_exception.obj
 0001:0004ac5e       ?get@?$__crt_unique_heap_ptr@DU__crt_public_free_policy@@@@QBEPADXZ 1004bc5e f i libvcruntime:std_exception.obj
 0001:0004ac61       ?is_valid@?$__crt_unique_heap_ptr@DU__crt_public_free_policy@@@@QBE_NXZ 1004bc61 f i libvcruntime:std_exception.obj
 0001:0004ac68       ?release@?$__crt_unique_heap_ptr@DU__crt_public_free_policy@@@@QAEXXZ 1004bc68 f i libvcruntime:std_exception.obj
 0001:0004ac7c       ___std_exception_copy      1004bc7c f   libvcruntime:std_exception.obj
 0001:0004acf7       ___std_exception_destroy   1004bcf7 f   libvcruntime:std_exception.obj
 0001:0004ad1d       __CxxThrowException@8      1004bd1d f   libvcruntime:throw.obj
 0001:0004ada4       ??$?0AAViterator@TryBlockMap@__FrameHandler3@@AAV012@$0A@@?$pair@Viterator@TryBlockMap@__FrameHandler3@@V123@@std@@QAE@AAViterator@TryBlockMap@__FrameHandler3@@0@Z 1004bda4 f i libvcruntime:trnsctrl.obj
 0001:0004add1       ??$forward@AAViterator@TryBlockMap@__FrameHandler3@@@std@@YAAAViterator@TryBlockMap@__FrameHandler3@@AAV123@@Z 1004bdd1 f i libvcruntime:trnsctrl.obj
 0001:0004addb       ??0iterator@TryBlockMap@__FrameHandler3@@QAE@AAV12@I@Z 1004bddb f i libvcruntime:trnsctrl.obj
 0001:0004adf4       ?GetRangeOfTrysToCheck@__FrameHandler3@@SA?AU?$pair@Viterator@TryBlockMap@__FrameHandler3@@V123@@std@@AAVTryBlockMap@1@HPAXPBU_s_FuncInfo@@H@Z 1004bdf4 f   libvcruntime:trnsctrl.obj
 0001:0004ae80       ?_CallCatchBlock2@@YAPAXPAUEHRegistrationNode@@PBU_s_FuncInfo@@PAXHK@Z 1004be80 f   libvcruntime:trnsctrl.obj
 0001:0004aef4       ?_CallSETranslator@@YAHPAUEHExceptionRecord@@PAUEHRegistrationNode@@PAX2PBU_s_FuncInfo@@H1@Z 1004bef4 f   libvcruntime:trnsctrl.obj
 0001:0004b027       ?_JumpToContinuation@@YGXPAXPAUEHRegistrationNode@@@Z 1004c027 f   libvcruntime:trnsctrl.obj
 0001:0004b063       ?_UnwindNestedFrames@@YGXPAUEHRegistrationNode@@PAUEHExceptionRecord@@@Z 1004c063 f   libvcruntime:trnsctrl.obj
 0001:0004b0ca       __CatchGuardHandler        1004c0ca f   libvcruntime:trnsctrl.obj
 0001:0004b107       __CreateFrameInfo          1004c107 f   libvcruntime:trnsctrl.obj
 0001:0004b134       __FindAndUnlinkFrame       1004c134 f   libvcruntime:trnsctrl.obj
 0001:0004b18e       __TranslatorGuardHandler   1004c18e f   libvcruntime:trnsctrl.obj
 0001:0004b252       ___CxxFrameHandler         1004c252 f   libvcruntime:trnsctrl.obj
 0001:0004b295       ___CxxFrameHandler2        1004c295 f   libvcruntime:trnsctrl.obj
 0001:0004b2d8       ___CxxFrameHandler3        1004c2d8 f   libvcruntime:trnsctrl.obj
 0001:0004b31b       ___CxxLongjmpUnwind@4      1004c31b f   libvcruntime:trnsctrl.obj
 0001:0004b350       _memchr                    1004c350 f   libvcruntime:memchr.obj
 0001:0004b470       __except_handler4          1004c470 f   libvcruntime:chandler4.obj
 0001:0004b635       ??$?RD@__crt_internal_free_policy@@QBEXQBD@Z 1004c635 f i libvcruntime:std_type_info.obj
 0001:0004b649       ??$?RX@__crt_internal_free_policy@@QBEXQBX@Z 1004c649 f i libvcruntime:std_type_info.obj
 0001:0004b65d       ??$__crt_interlocked_compare_exchange_pointer@$$CBDPAD$$T@@YAPBDPDSBDQAD$$T@Z 1004c65d f i libvcruntime:std_type_info.obj
 0001:0004b673       ??$__crt_interlocked_read_pointer@$$CBD@@YAPBDPDSBD@Z 1004c673 f i libvcruntime:std_type_info.obj
 0001:0004b67f       ??0?$__crt_unique_heap_ptr@DU__crt_internal_free_policy@@@@QAE@QAD@Z 1004c67f f i libvcruntime:std_type_info.obj
 0001:0004b690       ??0?$__crt_unique_heap_ptr@XU__crt_internal_free_policy@@@@QAE@QAX@Z 1004c690 f i libvcruntime:std_type_info.obj
 0001:0004b6a1       ??1?$__crt_unique_heap_ptr@DU__crt_internal_free_policy@@@@QAE@XZ 1004c6a1 f i libvcruntime:std_type_info.obj
 0001:0004b6b5       ??1?$__crt_unique_heap_ptr@XU__crt_internal_free_policy@@@@QAE@XZ 1004c6b5 f i libvcruntime:std_type_info.obj
 0001:0004b6c9       ??B?$__crt_unique_heap_ptr@DU__crt_internal_free_policy@@@@QBE_NXZ 1004c6c9 f i libvcruntime:std_type_info.obj
 0001:0004b6d0       ??B?$__crt_unique_heap_ptr@XU__crt_internal_free_policy@@@@QBE_NXZ 1004c6d0 f i libvcruntime:std_type_info.obj
 0001:0004b70b       ?detach@?$__crt_unique_heap_ptr@XU__crt_internal_free_policy@@@@QAEPAXXZ 1004c70b f i libvcruntime:std_type_info.obj
 0001:0004b711       ?get@?$__crt_unique_heap_ptr@DU__crt_internal_free_policy@@@@QBEPADXZ 1004c711 f i libvcruntime:std_type_info.obj
 0001:0004b714       ?get@?$__crt_unique_heap_ptr@XU__crt_internal_free_policy@@@@QBEPAXXZ 1004c714 f i libvcruntime:std_type_info.obj
 0001:0004b717       ?is_valid@?$__crt_unique_heap_ptr@DU__crt_internal_free_policy@@@@QBE_NXZ 1004c717 f i libvcruntime:std_type_info.obj
 0001:0004b71e       ?is_valid@?$__crt_unique_heap_ptr@XU__crt_internal_free_policy@@@@QBE_NXZ 1004c71e f i libvcruntime:std_type_info.obj
 0001:0004b725       ?release@?$__crt_unique_heap_ptr@DU__crt_internal_free_policy@@@@QAEXXZ 1004c725 f i libvcruntime:std_type_info.obj
 0001:0004b739       ?release@?$__crt_unique_heap_ptr@XU__crt_internal_free_policy@@@@QAEXXZ 1004c739 f i libvcruntime:std_type_info.obj
 0001:0004b74d       ___std_type_info_compare   1004c74d f   libvcruntime:std_type_info.obj
 0001:0004b798       ___std_type_info_destroy_list 1004c798 f   libvcruntime:std_type_info.obj
 0001:0004b7c3       ___std_type_info_hash      1004c7c3 f   libvcruntime:std_type_info.obj
 0001:0004b7f2       ___std_type_info_name      1004c7f2 f   libvcruntime:std_type_info.obj
 0001:0004b8e8       ___vcrt_initialize         1004c8e8 f   libvcruntime:initialization.obj
 0001:0004b90e       ___vcrt_thread_attach      1004c90e f   libvcruntime:initialization.obj
 0001:0004b91b       ___vcrt_thread_detach      1004c91b f   libvcruntime:initialization.obj
 0001:0004b928       ___vcrt_uninitialize       1004c928 f   libvcruntime:initialization.obj
 0001:0004b944       ___vcrt_uninitialize_critical 1004c944 f   libvcruntime:initialization.obj
 0001:0004b951       ___uncaught_exception      1004c951 f   libvcruntime:uncaught_exception.obj
 0001:0004ba9b       _memcmp                    1004ca9b f   libvcruntime:memcmp.obj
 0001:0004df3f       ??$?RU__vcrt_ptd@@@__crt_internal_free_policy@@QBEXQBU__vcrt_ptd@@@Z 1004ef3f f i libvcruntime:per_thread_data.obj
 0001:0004df53       ??0?$__crt_unique_heap_ptr@U__vcrt_ptd@@U__crt_internal_free_policy@@@@QAE@QAU__vcrt_ptd@@@Z 1004ef53 f i libvcruntime:per_thread_data.obj
 0001:0004df76       ??1?$__crt_unique_heap_ptr@U__vcrt_ptd@@U__crt_internal_free_policy@@@@QAE@XZ 1004ef76 f i libvcruntime:per_thread_data.obj
 0001:0004df95       ??B?$__crt_unique_heap_ptr@U__vcrt_ptd@@U__crt_internal_free_policy@@@@QBE_NXZ 1004ef95 f i libvcruntime:per_thread_data.obj
 0001:0004df9c       ?detach@?$__crt_unique_heap_ptr@U__vcrt_ptd@@U__crt_internal_free_policy@@@@QAEPAU__vcrt_ptd@@XZ 1004ef9c f i libvcruntime:per_thread_data.obj
 0001:0004dfa2       ?get@?$__crt_unique_heap_ptr@U__vcrt_ptd@@U__crt_internal_free_policy@@@@QBEPAU__vcrt_ptd@@XZ 1004efa2 f i libvcruntime:per_thread_data.obj
 0001:0004dfa5       ?is_valid@?$__crt_unique_heap_ptr@U__vcrt_ptd@@U__crt_internal_free_policy@@@@QBE_NXZ 1004efa5 f i libvcruntime:per_thread_data.obj
 0001:0004dfac       ?release@?$__crt_unique_heap_ptr@U__vcrt_ptd@@U__crt_internal_free_policy@@@@QAEXXZ 1004efac f i libvcruntime:per_thread_data.obj
 0001:0004dfe0       ___vcrt_freefls@4          1004efe0 f   libvcruntime:per_thread_data.obj
 0001:0004e003       ___vcrt_freeptd            1004f003 f   libvcruntime:per_thread_data.obj
 0001:0004e046       ___vcrt_getptd             1004f046 f   libvcruntime:per_thread_data.obj
 0001:0004e057       ___vcrt_getptd_noexit      1004f057 f   libvcruntime:per_thread_data.obj
 0001:0004e10d       ___vcrt_getptd_noinit      1004f10d f   libvcruntime:per_thread_data.obj
 0001:0004e151       ___vcrt_initialize_ptd     1004f151 f   libvcruntime:per_thread_data.obj
 0001:0004e190       ___vcrt_uninitialize_ptd   1004f190 f   libvcruntime:per_thread_data.obj
 0001:0004eab4       ??$TypeMatchHelper@V__FrameHandler3@@@@YAHPBU_s_HandlerType@@PBU_s_CatchableType@@PBU_s_ThrowInfo@@@Z 1004fab4 f i libvcruntime:frame.obj
 0001:0004eb65       ??$__InternalCxxFrameHandler@V__FrameHandler3@@@@YA?AW4_EXCEPTION_DISPOSITION@@PAUEHExceptionRecord@@PAUEHRegistrationNode@@PAU_CONTEXT@@PAXPBU_s_FuncInfo@@H1E@Z 1004fb65 f i libvcruntime:frame.obj
 0001:0004eca7       ??0HandlerMap@__FrameHandler3@@QAE@PBU_s_TryBlockMapEntry@@II@Z 1004fca7 f i libvcruntime:frame.obj
 0001:0004ecc3       ??0TryBlockMap@__FrameHandler3@@QAE@PBU_s_FuncInfo@@I@Z 1004fcc3 f i libvcruntime:frame.obj
 0001:0004ecdc       ??0bad_exception@std@@QAE@ABV01@@Z 1004fcdc f i libvcruntime:frame.obj
 0001:0004ecfd       ??0bad_exception@std@@QAE@XZ 1004fcfd f i libvcruntime:frame.obj
 0001:0004ed1b       ??0iterator@HandlerMap@__FrameHandler3@@QAE@AAV12@I@Z 1004fd1b f i libvcruntime:frame.obj
 0001:0004ed34       ??1bad_exception@std@@UAE@XZ 1004fd34 f i libvcruntime:frame.obj
 0001:0004ed49       ??8iterator@HandlerMap@__FrameHandler3@@QBE_NABV012@@Z 1004fd49 f i libvcruntime:frame.obj
 0001:0004ed60       ??8type_info@@QBE_NABV0@@Z 1004fd60 f i libvcruntime:frame.obj
 0001:0004ed86       ??9iterator@HandlerMap@__FrameHandler3@@QBE_NABV012@@Z 1004fd86 f i libvcruntime:frame.obj
 0001:0004ed9d       ??Diterator@HandlerMap@__FrameHandler3@@QAE?BU_s_HandlerType@@XZ 1004fd9d f i libvcruntime:frame.obj
 0001:0004edc3       ??Diterator@TryBlockMap@__FrameHandler3@@QAE?BU_s_TryBlockMapEntry@@XZ 1004fdc3 f i libvcruntime:frame.obj
 0001:0004eded       ??Eiterator@HandlerMap@__FrameHandler3@@QAEAAV012@XZ 1004fded f i libvcruntime:frame.obj
 0001:0004edf3       ??Eiterator@TryBlockMap@__FrameHandler3@@QAEAAV012@XZ 1004fdf3 f i libvcruntime:frame.obj
 0001:0004edf9       ??Miterator@TryBlockMap@__FrameHandler3@@QBE_NABV012@@Z 1004fdf9 f i libvcruntime:frame.obj
 0001:0004ee10       ??_Ebad_exception@std@@UAEPAXI@Z 1004fe10 f i libvcruntime:frame.obj
 0001:0004ee10       ??_Gbad_exception@std@@UAEPAXI@Z 1004fe10 f i libvcruntime:frame.obj
 0001:0004ee48       ?BuildCatchObject@__FrameHandler3@@SAXPAUEHExceptionRecord@@PAXPBU_s_HandlerType@@PBU_s_CatchableType@@@Z 1004fe48 f   libvcruntime:frame.obj
 0001:0004ee4d       ?BuildCatchObjectHelper@__FrameHandler3@@SAHPAUEHExceptionRecord@@PAXPBU_s_HandlerType@@PBU_s_CatchableType@@@Z 1004fe4d f   libvcruntime:frame.obj
 0001:0004f137       ?FrameUnwindToEmptyState@__FrameHandler3@@SAXPAUEHRegistrationNode@@PAXPBU_s_FuncInfo@@@Z 10050137 f   libvcruntime:frame.obj
 0001:0004f155       ?FrameUnwindToState@__FrameHandler3@@SAXPAUEHRegistrationNode@@PAXPBU_s_FuncInfo@@H@Z 10050155 f   libvcruntime:frame.obj
 0001:0004f277       ?GetMaxState@__FrameHandler3@@SAHPAXPBU_s_FuncInfo@@@Z 10050277 f i libvcruntime:frame.obj
 0001:0004f38b       ?TypeMatch@__FrameHandler3@@SAHPBU_s_HandlerType@@PBU_s_CatchableType@@PBU_s_ThrowInfo@@@Z 1005038b f   libvcruntime:frame.obj
 0001:0004f396       ?_CallMemberFunction1@@YGXQAX00@Z 10050396 f i libvcruntime:frame.obj
 0001:0004f3aa       ?_CallMemberFunction2@@YGXQAX00H@Z 100503aa f i libvcruntime:frame.obj
 0001:0004f3c1       ?begin@HandlerMap@__FrameHandler3@@QAE?AViterator@12@XZ 100503c1 f i libvcruntime:frame.obj
 0001:0004f3d5       ?end@HandlerMap@__FrameHandler3@@QAE?AViterator@12@XZ 100503d5 f i libvcruntime:frame.obj
 0001:0004f3ea       ?getESTypes@__FrameHandler3@@SAPBU_s_ESTypeList@@PBU_s_FuncInfo@@@Z 100503ea f i libvcruntime:frame.obj
 0001:0004f3f7       ?getLastEntry@HandlerMap@__FrameHandler3@@QAEPBU_s_HandlerType@@XZ 100503f7 f i libvcruntime:frame.obj
 0001:0004f408       ?getMagicNum@__FrameHandler3@@SAIPBU_s_FuncInfo@@@Z 10050408 f i libvcruntime:frame.obj
 0001:0004f41a       ?getNumTryBlocks@TryBlockMap@__FrameHandler3@@QAEIXZ 1005041a f i libvcruntime:frame.obj
 0001:0004f420       ?isEHs@__FrameHandler3@@SA_NPBU_s_FuncInfo@@@Z 10050420 f i libvcruntime:frame.obj
 0001:0004f430       ?isNoExcept@__FrameHandler3@@SA_NPBU_s_FuncInfo@@@Z 10050430 f i libvcruntime:frame.obj
 0001:0004f444       ___BuildCatchObject        10050444 f   libvcruntime:frame.obj
 0001:0004f449       ___BuildCatchObjectHelper  10050449 f   libvcruntime:frame.obj
 0001:0004f454       ___TypeMatch               10050454 f   libvcruntime:frame.obj
 0001:0004f45f       ___vcrt_EncodePointer      1005045f f i libvcruntime:frame.obj
 0001:0004f470       __CallSettingFrame@12      10050470 f   libvcruntime:lowhelpr.obj
 0001:0004f497       __NLG_Return               10050497     libvcruntime:lowhelpr.obj
 0001:0004f4dc       ___except_validate_context_record 100504dc f   libvcruntime:jbcxrval.obj
 0001:0004f518       ___except_validate_jump_buffer 10050518 f   libvcruntime:jbcxrval.obj
 0001:0004f550       ___except_validate_jump_buffer_common 10050550 f i libvcruntime:jbcxrval.obj
 0001:0004f5a0       __local_unwind4            100505a0 f   libvcruntime:exsup4.obj
 0001:0004f6d0       __seh_longjmp_unwind4@4    100506d0 f   libvcruntime:exsup4.obj
 0001:0004f710       @_EH4_CallFilterFunc@8     10050710 f   libvcruntime:exsup4.obj
 0001:0004f730       @_EH4_TransferToHandler@8  10050730 f   libvcruntime:exsup4.obj
 0001:0004f750       @_EH4_GlobalUnwind2@8      10050750 f   libvcruntime:exsup4.obj
 0001:0004f770       @_EH4_LocalUnwind@16       10050770 f   libvcruntime:exsup4.obj
 0001:0004f78c       ??$?0$00@DName@@QAE@PBDU?$StringLifeSelector@$00@@@Z 1005078c f i libvcruntime:undname.obj
 0001:0004f7cb       ??$?0$00@pcharNode@@QAE@PBDHU?$StringLifeSelector@$00@@@Z 100507cb f i libvcruntime:undname.obj
 0001:0004f7ec       ??$?0$01@DName@@QAE@PBDU?$StringLifeSelector@$01@@@Z 100507ec f i libvcruntime:undname.obj
 0001:0004f82b       ??$?0$01@pcharNode@@QAE@PBDHU?$StringLifeSelector@$01@@@Z 1005082b f i libvcruntime:undname.obj
 0001:0004f87b       ??$?0$0A@@DName@@QAE@PBDU?$StringLifeSelector@$0A@@@@Z 1005087b f i libvcruntime:undname.obj
 0001:0004f8ba       ??$?0$0A@@pcharNode@@QAE@PBDHU?$StringLifeSelector@$0A@@@@Z 100508ba f i libvcruntime:undname.obj
 0001:0004f90a       ??$?0_K$0A@@?$optional@_K@std@@QAE@$$QA_K@Z 1005090a f i libvcruntime:undname.obj
 0001:0004f92a       ??$?0_K@?$_Optional_construct_base@_K@std@@QAE@Uin_place_t@1@$$QA_K@Z 1005092a f i libvcruntime:undname.obj
 0001:0004f94a       ??$?0_K@?$_Optional_destruct_base@_K$00@std@@QAE@Uin_place_t@1@$$QA_K@Z 1005094a f i libvcruntime:undname.obj
 0001:0004f96a       ??$append@VDNameNode@@@DName@@AAEXPBVDNameNode@@@Z 1005096a f i libvcruntime:undname.obj
 0001:0004f9bb       ??$append@VDNameStatusNode@@@DName@@AAEXPBVDNameStatusNode@@@Z 100509bb f i libvcruntime:undname.obj
 0001:0004fa0c       ??$append@VcharNode@@@DName@@AAEXPBVcharNode@@@Z 10050a0c f i libvcruntime:undname.obj
 0001:0004fa5d       ??$append@VpDNameNode@@@DName@@AAEXPBVpDNameNode@@@Z 10050a5d f i libvcruntime:undname.obj
 0001:0004faae       ??$append@VpcharNode@@@DName@@AAEXPBVpcharNode@@@Z 10050aae f i libvcruntime:undname.obj
 0001:0004faff       ??$doPchar@$00@DName@@AAEXPBDH@Z 10050aff f i libvcruntime:undname.obj
 0001:0004fb84       ??$doPchar@$01@DName@@AAEXPBDH@Z 10050b84 f i libvcruntime:undname.obj
 0001:0004fc11       ??$doPchar@$0A@@DName@@AAEXPBDH@Z 10050c11 f i libvcruntime:undname.obj
 0001:0004fc9e       ??$forward@_K@std@@YA$$QA_KAA_K@Z 10050c9e f i libvcruntime:undname.obj
 0001:0004fca8       ??$size@D$04@std@@YAIAAY04$$CBD@Z 10050ca8 f i libvcruntime:undname.obj
 0001:0004fcac       ??$size@D$0EB@@std@@YAIAAY0EB@$$CBD@Z 10050cac f i libvcruntime:undname.obj
 0001:0004fcb0       ??0?$_Optional_construct_base@_K@std@@QAE@XZ 10050cb0 f i libvcruntime:undname.obj
 0001:0004fcb7       ??0?$_Optional_destruct_base@_K$00@std@@QAE@XZ 10050cb7 f i libvcruntime:undname.obj
 0001:0004fcbe       ??0?$optional@_K@std@@QAE@XZ 10050cbe f i libvcruntime:undname.obj
 0001:0004fcc5       ??0Block@_HeapManager@@QAE@XZ 10050cc5 f i libvcruntime:undname.obj
 0001:0004fccb       ??0DName@@QAE@AAPBDD@Z     10050ccb f   libvcruntime:undname.obj
 0001:0004fd6b       ??0DName@@QAE@ABUStringLiteral@@@Z 10050d6b f   libvcruntime:undname.obj
 0001:0004fd9b       ??0DName@@QAE@ABV0@@Z      10050d9b f i libvcruntime:undname.obj
 0001:0004fdb6       ??0DName@@QAE@D@Z          10050db6 f   libvcruntime:undname.obj
 0001:0004fdd9       ??0DName@@QAE@PAV0@@Z      10050dd9 f   libvcruntime:undname.obj
 0001:0004fe31       ??0DName@@QAE@W4DNameStatus@@@Z 10050e31 f   libvcruntime:undname.obj
 0001:0004fe81       ??0DName@@QAE@XZ           10050e81 f i libvcruntime:undname.obj
 0001:0004fe8d       ??0DName@@QAE@_J@Z         10050e8d f   libvcruntime:undname.obj
 0001:0004ff3c       ??0DName@@QAE@_K@Z         10050f3c f   libvcruntime:undname.obj
 0001:0004ffbb       ??0DNameNode@@IAE@XZ       10050fbb f i libvcruntime:undname.obj
 0001:0004ffc6       ??0Replicator@@QAE@XZ      10050fc6 f i libvcruntime:undname.obj
 0001:0004ffd7       ??0UnDecorator@@QAE@PBDP6APADJ@ZK@Z 10050fd7 f i libvcruntime:undname.obj
 0001:00050036       ??0_Nontrivial_dummy_type@std@@QAE@XZ 10051036 f i libvcruntime:undname.obj
 0001:00050039       ??0charNode@@QAE@D@Z       10051039 f i libvcruntime:undname.obj
 0001:00050053       ??0pDNameNode@@QAE@PAVDName@@@Z 10051053 f   libvcruntime:undname.obj
 0001:00050085       ??0pairNode@@QAE@PBVDNameNode@@0@Z 10051085 f i libvcruntime:undname.obj
 0001:000500b2       ??2@YAPAXIAAV_HeapManager@@H@Z 100510b2 f   libvcruntime:undname.obj
 0001:000500d8       ??4DName@@QAEAAV0@ABUStringLiteral@@@Z 100510d8 f   libvcruntime:undname.obj
 0001:00050101       ??4DName@@QAEAAV0@ABV0@@Z  10051101 f   libvcruntime:undname.obj
 0001:0005011c       ??4DName@@QAEAAV0@D@Z      1005111c f i libvcruntime:undname.obj
 0001:0005013f       ??4DName@@QAEAAV0@PAV0@@Z  1005113f f   libvcruntime:undname.obj
 0001:00050192       ??4DName@@QAEAAV0@W4DNameStatus@@@Z 10051192 f   libvcruntime:undname.obj
 0001:000501d0       ??AReplicator@@QBE?AVDName@@H@Z 100511d0 f   libvcruntime:undname.obj
 0001:00050227       ??B?$optional@_K@std@@QBE_NXZ 10051227 f i libvcruntime:undname.obj
 0001:0005022b       ??D?$optional@_K@std@@QGAEAA_KXZ 1005122b f i libvcruntime:undname.obj
 0001:0005022e       ??H@YA?AVDName@@ABUStringLiteral@@ABV0@@Z 1005122e f i libvcruntime:undname.obj
 0001:00050258       ??H@YA?AVDName@@DABV0@@Z   10051258 f i libvcruntime:undname.obj
 0001:0005028d       ??H@YA?AVDName@@W4DNameStatus@@ABV0@@Z 1005128d f i libvcruntime:undname.obj
 0001:000502b7       ??HDName@@QBE?AV0@ABUStringLiteral@@@Z 100512b7 f   libvcruntime:undname.obj
 0001:000502e1       ??HDName@@QBE?AV0@ABV0@@Z  100512e1 f   libvcruntime:undname.obj
 0001:0005030b       ??HDName@@QBE?AV0@D@Z      1005130b f   libvcruntime:undname.obj
 0001:00050335       ??HDName@@QBE?AV0@PAV0@@Z  10051335 f   libvcruntime:undname.obj
 0001:0005035f       ??HDName@@QBE?AV0@W4DNameStatus@@@Z 1005135f f   libvcruntime:undname.obj
 0001:00050389       ??HStringLiteral@@QBE?AU0@H@Z 10051389 f i libvcruntime:undname.obj
 0001:000503a9       ??YDName@@QAEAAV0@ABUStringLiteral@@@Z 100513a9 f   libvcruntime:undname.obj
 0001:00050417       ??YDName@@QAEAAV0@ABV0@@Z  10051417 f   libvcruntime:undname.obj
 0001:00050483       ??YDName@@QAEAAV0@D@Z      10051483 f   libvcruntime:undname.obj
 0001:000504ed       ??YDName@@QAEAAV0@PAV0@@Z  100514ed f   libvcruntime:undname.obj
 0001:0005056a       ??YDName@@QAEAAV0@W4DNameStatus@@@Z 1005156a f   libvcruntime:undname.obj
 0001:000505ba       ??YReplicator@@QAEAAV0@ABVDName@@@Z 100515ba f   libvcruntime:undname.obj
 0001:00050607       ??_5DName@@QAEAAV0@ABV0@@Z 10051607 f   libvcruntime:undname.obj
 0001:0005062a       ??__K_l@@YA?AUStringLiteral@@PBDI@Z 1005162a f i libvcruntime:undname.obj
 0001:00050637       ?Constructor@_HeapManager@@QAEXP6APAXI@ZP6AXPAX@Z@Z 10051637 f i libvcruntime:undname.obj
 0001:0005065b       ?Destructor@_HeapManager@@QAEXXZ 1005165b f i libvcruntime:undname.obj
 0001:000506b3       ?UScore@UnDecorator@@SA?AUStringLiteral@@W4Tokens@@@Z 100516b3 f   libvcruntime:undname.obj
 0001:000506e3       ?composeDeclaration@UnDecorator@@CA?AVDName@@ABV2@@Z 100516e3 f i libvcruntime:undname.obj
 0001:00051762       ?doAccessSpecifiers@UnDecorator@@SAHXZ 10052762 f i libvcruntime:undname.obj
 0001:00051773       ?doAllocationLanguage@UnDecorator@@SAHXZ 10052773 f i libvcruntime:undname.obj
 0001:00051784       ?doAllocationModel@UnDecorator@@SAHXZ 10052784 f i libvcruntime:undname.obj
 0001:00051795       ?doEcsu@UnDecorator@@SAHXZ 10052795 f i libvcruntime:undname.obj
 0001:000517a6       ?doEllipsis@UnDecorator@@SAHXZ 100527a6 f i libvcruntime:undname.obj
 0001:000517b7       ?doFunctionReturns@UnDecorator@@SAHXZ 100527b7 f i libvcruntime:undname.obj
 0001:000517c8       ?doMSKeywords@UnDecorator@@SAHXZ 100527c8 f i libvcruntime:undname.obj
 0001:000517d8       ?doMemberTypes@UnDecorator@@SAHXZ 100527d8 f i libvcruntime:undname.obj
 0001:000517e9       ?doNameOnly@UnDecorator@@SAHXZ 100527e9 f i libvcruntime:undname.obj
 0001:000517f6       ?doNoIdentCharCheck@UnDecorator@@SAHXZ 100527f6 f i libvcruntime:undname.obj
 0001:00051803       ?doPchar@DName@@AAEXD@Z    10052803 f   libvcruntime:undname.obj
 0001:00051849       ?doPtr64@UnDecorator@@SAHXZ 10052849 f i libvcruntime:undname.obj
 0001:0005185a       ?doRestrictionSpec@UnDecorator@@SAHXZ 1005285a f i libvcruntime:undname.obj
 0001:0005186b       ?doThisTypes@UnDecorator@@SAHXZ 1005286b f i libvcruntime:undname.obj
 0001:00051881       ?doThrowTypes@UnDecorator@@SAHXZ 10052881 f i libvcruntime:undname.obj
 0001:00051892       ?doTypeOnly@UnDecorator@@SAHXZ 10052892 f i libvcruntime:undname.obj
 0001:0005189f       ?doUnderScore@UnDecorator@@SAHXZ 1005289f f i libvcruntime:undname.obj
 0001:000518ac       ?getAddressOf@UnDecorator@@CA?AVDName@@XZ 100528ac f   libvcruntime:undname.obj
 0001:0005193b       ?getArgumentList@UnDecorator@@CA?AVDName@@XZ 1005293b f   libvcruntime:undname.obj
 0001:00051a8b       ?getArgumentTypes@UnDecorator@@CA?AVDName@@XZ 10052a8b f   libvcruntime:undname.obj
 0001:00051bd6       ?getArrayAccess@UnDecorator@@CA?AVDName@@XZ 10052bd6 f   libvcruntime:undname.obj
 0001:00051c74       ?getArrayObject@UnDecorator@@CA?AVDName@@XZ 10052c74 f   libvcruntime:undname.obj
 0001:00051d4e       ?getArrayType@UnDecorator@@CA?AVDName@@ABV2@@Z 10052d4e f i libvcruntime:undname.obj
 0001:00051f52       ?getBasedType@UnDecorator@@CA?AVDName@@XZ 10052f52 f   libvcruntime:undname.obj
 0001:00052030       ?getBasicDataType@UnDecorator@@CA?AVDName@@ABV2@@Z 10053030 f   libvcruntime:undname.obj
 0001:000526a7       ?getCHPEName@UnDecorator@@QAEPADPADH@Z 100536a7 f i libvcruntime:undname.obj
 0001:000527bb       ?getCallIndex@UnDecorator@@CA?AVDName@@XZ 100537bb f i libvcruntime:undname.obj
 0001:000527d4       ?getCallingConvention@UnDecorator@@CA?AVDName@@XZ 100537d4 f   libvcruntime:undname.obj
 0001:000528e8       ?getDataIndirectType@UnDecorator@@CA?AVDName@@ABV2@W4IndirectionKind@@0H@Z 100538e8 f   libvcruntime:undname.obj
 0001:0005312e       ?getDataIndirectType@UnDecorator@@CA?AVDName@@XZ 1005412e f i libvcruntime:undname.obj
 0001:00053167       ?getDataType@UnDecorator@@CA?AVDName@@PAV2@@Z 10054167 f   libvcruntime:undname.obj
 0001:00053273       ?getDecoratedName@UnDecorator@@CA?AVDName@@XZ 10054273 f   libvcruntime:undname.obj
 0001:00053577       ?getDimension@UnDecorator@@CA?AVDName@@_N@Z 10054577 f   libvcruntime:undname.obj
 0001:000536bf       ?getDispatchTarget@UnDecorator@@CA?AVDName@@XZ 100546bf f   libvcruntime:undname.obj
 0001:00053733       ?getDisplacement@UnDecorator@@CA?AVDName@@XZ 10054733 f i libvcruntime:undname.obj
 0001:0005374c       ?getECSUDataType@UnDecorator@@CA?AVDName@@XZ 1005474c f   libvcruntime:undname.obj
 0001:0005395e       ?getECSUName@UnDecorator@@CA?AVDName@@XZ 1005495e f i libvcruntime:undname.obj
 0001:00053973       ?getEnumType@UnDecorator@@CA?AVDName@@XZ 10054973 f i libvcruntime:undname.obj
 0001:00053aea       ?getExtendedDataIndirectType@UnDecorator@@CA?AVDName@@AAW4IndirectionKind@@AA_NH@Z 10054aea f   libvcruntime:undname.obj
 0001:00053d09       ?getExternalDataType@UnDecorator@@CA?AVDName@@ABV2@@Z 10054d09 f i libvcruntime:undname.obj
 0001:00053d87       ?getFloatingPoint@UnDecorator@@CA?AVDName@@H@Z 10054d87 f   libvcruntime:undname.obj
 0001:00053eb8       ?getFunctionIndirectType@UnDecorator@@CA?AVDName@@ABV2@@Z 10054eb8 f   libvcruntime:undname.obj
 0001:0005435f       ?getGuardNumber@UnDecorator@@CA?AVDName@@XZ 1005535f f i libvcruntime:undname.obj
 0001:00054378       ?getLastChar@DName@@QBEDXZ 10055378 f i libvcruntime:undname.obj
 0001:000543a0       ?getLastChar@DNameStatusNode@@UBEDXZ 100553a0 f i libvcruntime:undname.obj
 0001:000543af       ?getLastChar@charNode@@UBEDXZ 100553af f i libvcruntime:undname.obj
 0001:000543b3       ?getLastChar@pDNameNode@@UBEDXZ 100553b3 f i libvcruntime:undname.obj
 0001:000543c4       ?getLastChar@pairNode@@UBEDXZ 100553c4 f i libvcruntime:undname.obj
 0001:00054406       ?getLastChar@pcharNode@@UBEDXZ 10055406 f i libvcruntime:undname.obj
 0001:0005441c       ?getLexicalFrame@UnDecorator@@CA?AVDName@@XZ 1005541c f i libvcruntime:undname.obj
 0001:00054459       ?getMemberAccess@UnDecorator@@CA?AVDName@@XZ 10055459 f   libvcruntime:undname.obj
 0001:000544f2       ?getMemoryWithBuffer@_HeapManager@@QAEPAXI@Z 100554f2 f   libvcruntime:undname.obj
 0001:00054576       ?getMemoryWithoutBuffer@_HeapManager@@QAEPAXI@Z 10055576 f   libvcruntime:undname.obj
 0001:0005459e       ?getNoexcept@UnDecorator@@CA?AVDName@@XZ 1005559e f   libvcruntime:undname.obj
 0001:000545f8       ?getNumberOfDimensions@UnDecorator@@CAHXZ 100555f8 f   libvcruntime:undname.obj
 0001:00054662       ?getOperatorName@UnDecorator@@CA?AVDName@@_NPA_N@Z 10055662 f i libvcruntime:undname.obj
 0001:00054fce       ?getPointerToMember@UnDecorator@@CA?AVDName@@XZ 10055fce f   libvcruntime:undname.obj
 0001:000550b7       ?getPointerType@UnDecorator@@CA?AVDName@@ABV2@0@Z 100560b7 f i libvcruntime:undname.obj
 0001:000550d8       ?getPointerTypeArray@UnDecorator@@CA?AVDName@@ABV2@0@Z 100560d8 f i libvcruntime:undname.obj
 0001:000550f9       ?getPrimaryDataType@UnDecorator@@CA?AVDName@@ABV2@@Z 100560f9 f   libvcruntime:undname.obj
 0001:000553db       ?getPtrRefDataType@UnDecorator@@CA?AVDName@@ABV2@H@Z 100563db f   libvcruntime:undname.obj
 0001:000555a3       ?getPtrRefType@UnDecorator@@CA?AVDName@@ABV2@0W4IndirectionKind@@@Z 100565a3 f   libvcruntime:undname.obj
 0001:000556f8       ?getReferenceType@UnDecorator@@CA?AVDName@@ABV2@0W4IndirectionKind@@@Z 100566f8 f i libvcruntime:undname.obj
 0001:0005571b       ?getRestrictionSpec@UnDecorator@@CA?AVDName@@XZ 1005671b f   libvcruntime:undname.obj
 0001:0005587e       ?getReturnType@UnDecorator@@CA?AVDName@@PAV2@@Z 1005687e f   libvcruntime:undname.obj
 0001:000558b8       ?getScope@UnDecorator@@CA?AVDName@@XZ 100568b8 f   libvcruntime:undname.obj
 0001:00055d56       ?getScopedName@UnDecorator@@CA?AVDName@@XZ 10056d56 f   libvcruntime:undname.obj
 0001:00055e7b       ?getSignedDimension@UnDecorator@@CA?AVDName@@XZ 10056e7b f   libvcruntime:undname.obj
 0001:00055ee0       ?getStorageConvention@UnDecorator@@CA?AVDName@@XZ 10056ee0 f i libvcruntime:undname.obj
 0001:00055ef5       ?getString@DName@@QBEPADPAD0@Z 10056ef5 f i libvcruntime:undname.obj
 0001:00055f2d       ?getString@DName@@QBEPADPADH@Z 10056f2d f i libvcruntime:undname.obj
 0001:00055f97       ?getString@DNameStatusNode@@UBEPADPAD0@Z 10056f97 f i libvcruntime:undname.obj
 0001:00055fee       ?getString@charNode@@UBEPADPAD0@Z 10056fee f i libvcruntime:undname.obj
 0001:00056008       ?getString@pDNameNode@@UBEPADPAD0@Z 10057008 f i libvcruntime:undname.obj
 0001:00056024       ?getString@pairNode@@UBEPADPAD0@Z 10057024 f i libvcruntime:undname.obj
 0001:0005607b       ?getString@pcharNode@@UBEPADPAD0@Z 1005707b f i libvcruntime:undname.obj
 0001:0005609c       ?getStringEncoding@UnDecorator@@CA?AVDName@@W4PrefixKind@@H@Z 1005709c f   libvcruntime:undname.obj
 0001:00056175       ?getStringHelper@@YAPADPADPBD1H@Z 10057175 f i libvcruntime:undname.obj
 0001:000561a9       ?getStringObject@UnDecorator@@CA?AVDName@@XZ 100571a9 f   libvcruntime:undname.obj
 0001:00056215       ?getSymbolName@UnDecorator@@CA?AVDName@@XZ 10057215 f i libvcruntime:undname.obj
 0001:0005626f       ?getTemplateArgumentList@UnDecorator@@CA?AVDName@@XZ 1005726f f   libvcruntime:undname.obj
 0001:0005649a       ?getTemplateName@UnDecorator@@CA?AVDName@@_N@Z 1005749a f   libvcruntime:undname.obj
 0001:00056653       ?getTemplateNonTypeArgument@UnDecorator@@CA?AVDName@@XZ 10057653 f   libvcruntime:undname.obj
 0001:00056ae0       ?getTemplateTypeArgument@UnDecorator@@CA?AVDName@@XZ 10057ae0 f   libvcruntime:undname.obj
 0001:00056c27       ?getThisType@UnDecorator@@CA?AVDName@@XZ 10057c27 f i libvcruntime:undname.obj
 0001:00056c61       ?getThrowTypes@UnDecorator@@CA?AVDName@@XZ 10057c61 f   libvcruntime:undname.obj
 0001:00056c87       ?getTypeEncoding@UnDecorator@@CAHXZ 10057c87 f i libvcruntime:undname.obj
 0001:000570c4       ?getUndecoratedName@UnDecorator@@QAEPADPADH@Z 100580c4 f i libvcruntime:undname.obj
 0001:0005722a       ?getUnionObject@UnDecorator@@CA?AVDName@@XZ 1005822a f   libvcruntime:undname.obj
 0001:00057304       ?getVCallThunkType@UnDecorator@@CA?AVDName@@XZ 10058304 f i libvcruntime:undname.obj
 0001:0005736f       ?getValue@UnDecorator@@CA?AV?$optional@_K@std@@XZ 1005836f f   libvcruntime:undname.obj
 0001:000573f8       ?getValueObject@UnDecorator@@CA?AVDName@@XZ 100583f8 f   libvcruntime:undname.obj
 0001:00057566       ?getVbTableType@UnDecorator@@CA?AVDName@@ABV2@@Z 10058566 f i libvcruntime:undname.obj
 0001:00057580       ?getVdispMapType@UnDecorator@@CA?AVDName@@ABV2@@Z 10058580 f i libvcruntime:undname.obj
 0001:000575f9       ?getVfTableType@UnDecorator@@CA?AVDName@@ABV2@@Z 100585f9 f i libvcruntime:undname.obj
 0001:000577a4       ?getZName@UnDecorator@@CA?AVDName@@_N0@Z 100587a4 f   libvcruntime:undname.obj
 0001:00057a38       ?get_current_character_and_increment_buffer@UnDecorator@@CADXZ 10058a38 f i libvcruntime:undname.obj
 0001:00057a51       ?haveTemplateParameters@UnDecorator@@SAHXZ 10058a51 f i libvcruntime:undname.obj
 0001:00057a5e       ?increment_buffer@UnDecorator@@CA_NI@Z 10058a5e f i libvcruntime:undname.obj
 0001:00057a90       ?increment_buffer_no_check@UnDecorator@@CAXI@Z 10058a90 f i libvcruntime:undname.obj
 0001:00057aa1       ?increment_buffer_no_check@UnDecorator@@CAXXZ 10058aa1 f i libvcruntime:undname.obj
 0001:00057aa8       ?isArray@DName@@QBEHXZ     10058aa8 f i libvcruntime:undname.obj
 0001:00057ab4       ?isComArray@DName@@QBEHXZ  10058ab4 f i libvcruntime:undname.obj
 0001:00057ac0       ?isEmpty@DName@@QBEHXZ     10058ac0 f i libvcruntime:undname.obj
 0001:00057aca       ?isFull@Replicator@@QBEHXZ 10058aca f i libvcruntime:undname.obj
 0001:00057ad5       ?isNoTE@DName@@QBEHXZ      10058ad5 f i libvcruntime:undname.obj
 0001:00057ae1       ?isPinPtr@DName@@QBEHXZ    10058ae1 f i libvcruntime:undname.obj
 0001:00057aed       ?isPtrRef@DName@@QBEHXZ    10058aed f i libvcruntime:undname.obj
 0001:00057af9       ?isUDC@DName@@QBEHXZ       10058af9 f i libvcruntime:undname.obj
 0001:00057b0e       ?isUDTThunk@DName@@QBEHXZ  10058b0e f i libvcruntime:undname.obj
 0001:00057b23       ?isVCallThunk@DName@@QBEHXZ 10058b23 f i libvcruntime:undname.obj
 0001:00057b2f       ?isValid@DName@@QBEHXZ     10058b2f f i libvcruntime:undname.obj
 0001:00057b3b       ?length@DName@@QBEHXZ      10058b3b f i libvcruntime:undname.obj
 0001:00057b61       ?length@DNameStatusNode@@UBEHXZ 10058b61 f i libvcruntime:undname.obj
 0001:00057b65       ?length@charNode@@UBEHXZ   10058b65 f i libvcruntime:undname.obj
 0001:00057b69       ?length@pDNameNode@@UBEHXZ 10058b69 f i libvcruntime:undname.obj
 0001:00057b7a       ?length@pairNode@@UBEHXZ   10058b7a f i libvcruntime:undname.obj
 0001:00057bd5       ?length@pcharNode@@UBEHXZ  10058bd5 f i libvcruntime:undname.obj
 0001:00057bd9       ?make@DNameStatusNode@@SAPBV1@W4DNameStatus@@@Z 10058bd9 f i libvcruntime:undname.obj
 0001:00057bfc       ?parseDecoratedName@UnDecorator@@CA?AVDName@@XZ 10058bfc f   libvcruntime:undname.obj
 0001:00057d35       ?raw_length@DNameStatusNode@@UBEHXZ 10058d35 f i libvcruntime:undname.obj
 0001:00057d39       ?raw_length@charNode@@UBEHXZ 10058d39 f i libvcruntime:undname.obj
 0001:00057d3d       ?raw_length@pDNameNode@@UBEHXZ 10058d3d f i libvcruntime:undname.obj
 0001:00057d41       ?raw_length@pairNode@@UBEHXZ 10058d41 f i libvcruntime:undname.obj
 0001:00057d45       ?raw_length@pcharNode@@UBEHXZ 10058d45 f i libvcruntime:undname.obj
 0001:00057d49       ?setIsArray@DName@@QAEXXZ  10058d49 f i libvcruntime:undname.obj
 0001:00057d53       ?setIsComArray@DName@@QAEXXZ 10058d53 f i libvcruntime:undname.obj
 0001:00057d5d       ?setIsNoTE@DName@@QAEXXZ   10058d5d f i libvcruntime:undname.obj
 0001:00057d67       ?setIsPinPtr@DName@@QAEXXZ 10058d67 f i libvcruntime:undname.obj
 0001:00057d71       ?setIsUDC@DName@@QAEXXZ    10058d71 f i libvcruntime:undname.obj
 0001:00057d81       ?setIsVCallThunk@DName@@QAEXXZ 10058d81 f i libvcruntime:undname.obj
 0001:00057d8b       ?setPtrRef@DName@@QAEAAV1@XZ 10058d8b f i libvcruntime:undname.obj
 0001:00057d97       ?status@DName@@QBE?AW4DNameStatus@@XZ 10058d97 f i libvcruntime:undname.obj
 0001:00057e1c       ___unDName                 10058e1c f   libvcruntime:undname.obj
 0001:00057e47       ___unDNameEx               10058e47 f   libvcruntime:undname.obj
 0001:00057f0d       _unDNameGenerateCHPE       10058f0d f   libvcruntime:undname.obj
 0001:00057fd1       ___vcrt_initialize_locks   10058fd1 f   libvcruntime:locks.obj
 0001:0005801c       ___vcrt_lock               1005901c f   libvcruntime:locks.obj
 0001:00058036       ___vcrt_uninitialize_locks 10059036 f   libvcruntime:locks.obj
 0001:00058070       ___vcrt_unlock             10059070 f   libvcruntime:locks.obj
 0001:0005808a       ??$__crt_interlocked_exchange_pointer@UHINSTANCE__@@PAU1@@@YAPAUHINSTANCE__@@PDSAU0@QAU0@@Z 1005908a f i libvcruntime:winapi_downlevel.obj
 0001:0005809a       ??$__crt_interlocked_exchange_pointer@UHINSTANCE__@@PAX@@YAPAUHINSTANCE__@@PDSAU0@QAX@Z 1005909a f i libvcruntime:winapi_downlevel.obj
 0001:000580aa       ??$__crt_interlocked_exchange_pointer@XPAX@@YAPAXPDSAXQAX@Z 100590aa f i libvcruntime:winapi_downlevel.obj
 0001:000580ba       ??$__crt_interlocked_read_pointer@UHINSTANCE__@@@@YAPAUHINSTANCE__@@PDSAU0@@Z 100590ba f i libvcruntime:winapi_downlevel.obj
 0001:000580c6       ??$__crt_interlocked_read_pointer@X@@YAPAXPDSAX@Z 100590c6 f i libvcruntime:winapi_downlevel.obj
 0001:0005837a       ___vcrt_FlsAlloc           1005937a f   libvcruntime:winapi_downlevel.obj
 0001:000583c3       ___vcrt_FlsFree            100593c3 f   libvcruntime:winapi_downlevel.obj
 0001:0005840c       ___vcrt_FlsGetValue        1005940c f   libvcruntime:winapi_downlevel.obj
 0001:00058455       ___vcrt_FlsSetValue        10059455 f   libvcruntime:winapi_downlevel.obj
 0001:000584a2       ___vcrt_InitializeCriticalSectionEx 100594a2 f   libvcruntime:winapi_downlevel.obj
 0001:00058513       __get_unexpected           10059513 f   libvcruntime:unexpected.obj
 0001:00058529       _set_unexpected            10059529 f   libvcruntime:unexpected.obj
 0001:0005854e       _unexpected                1005954e f   libvcruntime:unexpected.obj
 0001:00058572       ?GetCurrentState@__FrameHandler3@@SAHPAUEHRegistrationNode@@PAXPBU_s_FuncInfo@@@Z 10059572 f   libvcruntime:ehstate.obj
 0001:00058596       ?SetState@__FrameHandler3@@SAXPAUEHRegistrationNode@@PBU_s_FuncInfo@@H@Z 10059596 f   libvcruntime:ehstate.obj
 0001:000585b0       __global_unwind2           100595b0 f   libvcruntime:exsup.obj
 0001:00058640       __local_unwind2            10059640 f   libvcruntime:exsup.obj
 0001:00058700       __abnormal_termination     10059700 f   libvcruntime:exsup.obj
 0001:00058740       __NLG_Notify1              10059740 f   libvcruntime:exsup.obj
 0001:00058750       __NLG_Notify               10059750 f   libvcruntime:exsup.obj
 0001:00058767       __NLG_Dispatch             10059767     libvcruntime:exsup.obj
 0001:00058767       __NLG_Dispatch2            10059767     libvcruntime:exsup.obj
 0001:00058780       __NLG_Call                 10059780 f   libvcruntime:exsup.obj
 0001:00058782       __NLG_Return2              10059782     libvcruntime:exsup.obj
 0001:00058783       _malloc                    10059783 f   libucrt:malloc.obj
 0001:00058790       _free                      10059790 f   libucrt:free.obj
 0001:000587b1       ??$?RPAU__crt_stdio_stream_data@@@__crt_internal_free_policy@@QBEXQBQAU__crt_stdio_stream_data@@@Z 100597b1 f i libucrt:_file.obj
 0001:000587c7       ??0?$__crt_unique_heap_ptr@PAU__crt_stdio_stream_data@@U__crt_internal_free_policy@@@@QAE@QAPAU__crt_stdio_stream_data@@@Z 100597c7 f i libucrt:_file.obj
 0001:000587db       ??0__crt_stdio_stream@@QAE@QAU_iobuf@@@Z 100597db f i libucrt:_file.obj
 0001:000587ef       ??1?$__crt_unique_heap_ptr@PAU__crt_stdio_stream_data@@U__crt_internal_free_policy@@@@QAE@XZ 100597ef f i libucrt:_file.obj
 0001:00058805       ??C__crt_stdio_stream@@QBEPAU__crt_stdio_stream_data@@XZ 10059805 f i libucrt:_file.obj
 0001:00058808       ?detach@?$__crt_unique_heap_ptr@PAU__crt_stdio_stream_data@@U__crt_internal_free_policy@@@@QAEPAPAU__crt_stdio_stream_data@@XZ 10059808 f i libucrt:_file.obj
 0001:0005880e       ?release@?$__crt_unique_heap_ptr@PAU__crt_stdio_stream_data@@U__crt_internal_free_policy@@@@QAEXXZ 1005980e f i libucrt:_file.obj
 0001:00058824       ___acrt_initialize_stdio   10059824 f   libucrt:_file.obj
 0001:0005891e       ___acrt_iob_func           1005991e f   libucrt:_file.obj
 0001:00058932       ___acrt_uninitialize_stdio 10059932 f   libucrt:_file.obj
 0001:00058991       __get_stream_buffer_pointers 10059991 f   libucrt:_file.obj
 0001:000589e8       __lock_file                100599e8 f   libucrt:_file.obj
 0001:00058a01       __unlock_file              10059a01 f   libucrt:_file.obj
 0001:00058a1a       ??$?0ABV?$stream_output_adapter@D@__crt_stdio_output@@AB_KABQBDAAV__crt_cached_ptd_host@@ABQAD@?$format_validation_base@DV?$stream_output_adapter@D@__crt_stdio_output@@@__crt_stdio_output@@IAE@ABV?$stream_output_adapter@D@1@AB_KABQBDAAV__crt_cached_ptd_host@@ABQAD@Z 10059a1a f i libucrt:output.obj
 0001:00058a45       ??$?0ABV?$stream_output_adapter@D@__crt_stdio_output@@AB_KABQBDAAV__crt_cached_ptd_host@@ABQAD@?$positional_parameter_base@DV?$stream_output_adapter@D@__crt_stdio_output@@@__crt_stdio_output@@IAE@ABV?$stream_output_adapter@D@1@AB_KABQBDAAV__crt_cached_ptd_host@@ABQAD@Z 10059a45 f i libucrt:output.obj
 0001:00058a9f       ??$?0ABV?$stream_output_adapter@D@__crt_stdio_output@@AB_KABQBDAAV__crt_cached_ptd_host@@ABQAD@?$standard_base@DV?$stream_output_adapter@D@__crt_stdio_output@@@__crt_stdio_output@@IAE@ABV?$stream_output_adapter@D@1@AB_KABQBDAAV__crt_cached_ptd_host@@ABQAD@Z 10059a9f f i libucrt:output.obj
 0001:00058ade       ??$?0ABV?$stream_output_adapter@_W@__crt_stdio_output@@AB_KABQB_WAAV__crt_cached_ptd_host@@ABQAD@?$format_validation_base@_WV?$stream_output_adapter@_W@__crt_stdio_output@@@__crt_stdio_output@@IAE@ABV?$stream_output_adapter@_W@1@AB_KABQB_WAAV__crt_cached_ptd_host@@ABQAD@Z 10059ade f i libucrt:output.obj
 0001:00058b09       ??$?0ABV?$stream_output_adapter@_W@__crt_stdio_output@@AB_KABQB_WAAV__crt_cached_ptd_host@@ABQAD@?$positional_parameter_base@_WV?$stream_output_adapter@_W@__crt_stdio_output@@@__crt_stdio_output@@IAE@ABV?$stream_output_adapter@_W@1@AB_KABQB_WAAV__crt_cached_ptd_host@@ABQAD@Z 10059b09 f i libucrt:output.obj
 0001:00058b63       ??$?0ABV?$stream_output_adapter@_W@__crt_stdio_output@@AB_KABQB_WAAV__crt_cached_ptd_host@@ABQAD@?$standard_base@_WV?$stream_output_adapter@_W@__crt_stdio_output@@@__crt_stdio_output@@IAE@ABV?$stream_output_adapter@_W@1@AB_KABQB_WAAV__crt_cached_ptd_host@@ABQAD@Z 10059b63 f i libucrt:output.obj
 0001:00058ba2       ??$?0ABV?$string_output_adapter@D@__crt_stdio_output@@AB_KABQBDAAV__crt_cached_ptd_host@@ABQAD@?$format_validation_base@DV?$string_output_adapter@D@__crt_stdio_output@@@__crt_stdio_output@@IAE@ABV?$string_output_adapter@D@1@AB_KABQBDAAV__crt_cached_ptd_host@@ABQAD@Z 10059ba2 f i libucrt:output.obj
 0001:00058bcd       ??$?0ABV?$string_output_adapter@D@__crt_stdio_output@@AB_KABQBDAAV__crt_cached_ptd_host@@ABQAD@?$positional_parameter_base@DV?$string_output_adapter@D@__crt_stdio_output@@@__crt_stdio_output@@IAE@ABV?$string_output_adapter@D@1@AB_KABQBDAAV__crt_cached_ptd_host@@ABQAD@Z 10059bcd f i libucrt:output.obj
 0001:00058c27       ??$?0ABV?$string_output_adapter@D@__crt_stdio_output@@AB_KABQBDAAV__crt_cached_ptd_host@@ABQAD@?$standard_base@DV?$string_output_adapter@D@__crt_stdio_output@@@__crt_stdio_output@@IAE@ABV?$string_output_adapter@D@1@AB_KABQBDAAV__crt_cached_ptd_host@@ABQAD@Z 10059c27 f i libucrt:output.obj
 0001:00058c66       ??$?0ABV?$string_output_adapter@_W@__crt_stdio_output@@AB_KABQB_WAAV__crt_cached_ptd_host@@ABQAD@?$format_validation_base@_WV?$string_output_adapter@_W@__crt_stdio_output@@@__crt_stdio_output@@IAE@ABV?$string_output_adapter@_W@1@AB_KABQB_WAAV__crt_cached_ptd_host@@ABQAD@Z 10059c66 f i libucrt:output.obj
 0001:00058c91       ??$?0ABV?$string_output_adapter@_W@__crt_stdio_output@@AB_KABQB_WAAV__crt_cached_ptd_host@@ABQAD@?$positional_parameter_base@_WV?$string_output_adapter@_W@__crt_stdio_output@@@__crt_stdio_output@@IAE@ABV?$string_output_adapter@_W@1@AB_KABQB_WAAV__crt_cached_ptd_host@@ABQAD@Z 10059c91 f i libucrt:output.obj
 0001:00058ceb       ??$?0ABV?$string_output_adapter@_W@__crt_stdio_output@@AB_KABQB_WAAV__crt_cached_ptd_host@@ABQAD@?$standard_base@_WV?$string_output_adapter@_W@__crt_stdio_output@@@__crt_stdio_output@@IAE@ABV?$string_output_adapter@_W@1@AB_KABQB_WAAV__crt_cached_ptd_host@@ABQAD@Z 10059ceb f i libucrt:output.obj
 0001:000590ea       ??$__crt_interlocked_read@J@@YAJPDJ@Z 1005a0ea f i libucrt:output.obj
 0001:000590fa       ??$_tcstol_internal@DPAPAD$0A@@@YAJAAV__crt_cached_ptd_host@@QBDQAPADH@Z 1005a0fa f i libucrt:output.obj
 0001:0005912f       ??$_tcstol_internal@_WPAPA_W$0A@@@YAJAAV__crt_cached_ptd_host@@QB_WQAPA_WH@Z 1005a12f f i libucrt:output.obj
 0001:0005a458       ??$count@D@formatting_buffer@__crt_stdio_output@@QBEIXZ 1005b458 f i libucrt:output.obj
 0001:0005a476       ??$count@_W@formatting_buffer@__crt_stdio_output@@QBEIXZ 1005b476 f i libucrt:output.obj
 0001:0005a495       ??$data@D@formatting_buffer@__crt_stdio_output@@QAEPADXZ 1005b495 f i libucrt:output.obj
 0001:0005a4a5       ??$data@_W@formatting_buffer@__crt_stdio_output@@QAEPA_WXZ 1005b4a5 f i libucrt:output.obj
 0001:0005a4b5       ??$ensure_buffer_is_big_enough@D@formatting_buffer@__crt_stdio_output@@QAE_NIAAV__crt_cached_ptd_host@@@Z 1005b4b5 f i libucrt:output.obj
 0001:0005a556       ??$ensure_buffer_is_big_enough@_W@formatting_buffer@__crt_stdio_output@@QAE_NIAAV__crt_cached_ptd_host@@@Z 1005b556 f i libucrt:output.obj
 0001:0005a5f8       ??$extract_argument_from_va_list@C_J@?$positional_parameter_base@DV?$stream_output_adapter@D@__crt_stdio_output@@@__crt_stdio_output@@IAE_NAA_J@Z 1005b5f8 f i libucrt:output.obj
 0001:0005a6aa       ??$extract_argument_from_va_list@C_J@?$positional_parameter_base@DV?$string_output_adapter@D@__crt_stdio_output@@@__crt_stdio_output@@IAE_NAA_J@Z 1005b6aa f i libucrt:output.obj
 0001:0005a75c       ??$extract_argument_from_va_list@C_J@?$positional_parameter_base@_WV?$stream_output_adapter@_W@__crt_stdio_output@@@__crt_stdio_output@@IAE_NAA_J@Z 1005b75c f i libucrt:output.obj
 0001:0005a810       ??$extract_argument_from_va_list@C_J@?$positional_parameter_base@_WV?$string_output_adapter@_W@__crt_stdio_output@@@__crt_stdio_output@@IAE_NAA_J@Z 1005b810 f i libucrt:output.obj
 0001:0005a8c4       ??$extract_argument_from_va_list@C_J@?$standard_base@DV?$stream_output_adapter@D@__crt_stdio_output@@@__crt_stdio_output@@IAE_NAA_J@Z 1005b8c4 f i libucrt:output.obj
 0001:0005a8ec       ??$extract_argument_from_va_list@C_J@?$standard_base@DV?$string_output_adapter@D@__crt_stdio_output@@@__crt_stdio_output@@IAE_NAA_J@Z 1005b8ec f i libucrt:output.obj
 0001:0005a914       ??$extract_argument_from_va_list@C_J@?$standard_base@_WV?$stream_output_adapter@_W@__crt_stdio_output@@@__crt_stdio_output@@IAE_NAA_J@Z 1005b914 f i libucrt:output.obj
 0001:0005a93c       ??$extract_argument_from_va_list@C_J@?$standard_base@_WV?$string_output_adapter@_W@__crt_stdio_output@@@__crt_stdio_output@@IAE_NAA_J@Z 1005b93c f i libucrt:output.obj
 0001:0005a964       ??$extract_argument_from_va_list@E_J@?$positional_parameter_base@DV?$stream_output_adapter@D@__crt_stdio_output@@@__crt_stdio_output@@IAE_NAA_J@Z 1005b964 f i libucrt:output.obj
 0001:0005aa16       ??$extract_argument_from_va_list@E_J@?$positional_parameter_base@DV?$string_output_adapter@D@__crt_stdio_output@@@__crt_stdio_output@@IAE_NAA_J@Z 1005ba16 f i libucrt:output.obj
 0001:0005aac8       ??$extract_argument_from_va_list@E_J@?$positional_parameter_base@_WV?$stream_output_adapter@_W@__crt_stdio_output@@@__crt_stdio_output@@IAE_NAA_J@Z 1005bac8 f i libucrt:output.obj
 0001:0005ab7c       ??$extract_argument_from_va_list@E_J@?$positional_parameter_base@_WV?$string_output_adapter@_W@__crt_stdio_output@@@__crt_stdio_output@@IAE_NAA_J@Z 1005bb7c f i libucrt:output.obj
 0001:0005ac30       ??$extract_argument_from_va_list@E_J@?$standard_base@DV?$stream_output_adapter@D@__crt_stdio_output@@@__crt_stdio_output@@IAE_NAA_J@Z 1005bc30 f i libucrt:output.obj
 0001:0005ac58       ??$extract_argument_from_va_list@E_J@?$standard_base@DV?$string_output_adapter@D@__crt_stdio_output@@@__crt_stdio_output@@IAE_NAA_J@Z 1005bc58 f i libucrt:output.obj
 0001:0005ac80       ??$extract_argument_from_va_list@E_J@?$standard_base@_WV?$stream_output_adapter@_W@__crt_stdio_output@@@__crt_stdio_output@@IAE_NAA_J@Z 1005bc80 f i libucrt:output.obj
 0001:0005aca8       ??$extract_argument_from_va_list@E_J@?$standard_base@_WV?$string_output_adapter@_W@__crt_stdio_output@@@__crt_stdio_output@@IAE_NAA_J@Z 1005bca8 f i libucrt:output.obj
 0001:0005acd0       ??$extract_argument_from_va_list@F_J@?$positional_parameter_base@DV?$stream_output_adapter@D@__crt_stdio_output@@@__crt_stdio_output@@IAE_NAA_J@Z 1005bcd0 f i libucrt:output.obj
 0001:0005ad82       ??$extract_argument_from_va_list@F_J@?$positional_parameter_base@DV?$string_output_adapter@D@__crt_stdio_output@@@__crt_stdio_output@@IAE_NAA_J@Z 1005bd82 f i libucrt:output.obj
 0001:0005ae34       ??$extract_argument_from_va_list@F_J@?$positional_parameter_base@_WV?$stream_output_adapter@_W@__crt_stdio_output@@@__crt_stdio_output@@IAE_NAA_J@Z 1005be34 f i libucrt:output.obj
 0001:0005aee8       ??$extract_argument_from_va_list@F_J@?$positional_parameter_base@_WV?$string_output_adapter@_W@__crt_stdio_output@@@__crt_stdio_output@@IAE_NAA_J@Z 1005bee8 f i libucrt:output.obj
 0001:0005af9c       ??$extract_argument_from_va_list@F_J@?$standard_base@DV?$stream_output_adapter@D@__crt_stdio_output@@@__crt_stdio_output@@IAE_NAA_J@Z 1005bf9c f i libucrt:output.obj
 0001:0005afc4       ??$extract_argument_from_va_list@F_J@?$standard_base@DV?$string_output_adapter@D@__crt_stdio_output@@@__crt_stdio_output@@IAE_NAA_J@Z 1005bfc4 f i libucrt:output.obj
 0001:0005afec       ??$extract_argument_from_va_list@F_J@?$standard_base@_WV?$stream_output_adapter@_W@__crt_stdio_output@@@__crt_stdio_output@@IAE_NAA_J@Z 1005bfec f i libucrt:output.obj
 0001:0005b014       ??$extract_argument_from_va_list@F_J@?$standard_base@_WV?$string_output_adapter@_W@__crt_stdio_output@@@__crt_stdio_output@@IAE_NAA_J@Z 1005c014 f i libucrt:output.obj
 0001:0005b03c       ??$extract_argument_from_va_list@GD@?$positional_parameter_base@DV?$stream_output_adapter@D@__crt_stdio_output@@@__crt_stdio_output@@IAE_NAAD@Z 1005c03c f i libucrt:output.obj
 0001:0005b0ed       ??$extract_argument_from_va_list@GD@?$positional_parameter_base@DV?$string_output_adapter@D@__crt_stdio_output@@@__crt_stdio_output@@IAE_NAAD@Z 1005c0ed f i libucrt:output.obj
 0001:0005b19e       ??$extract_argument_from_va_list@GD@?$standard_base@DV?$stream_output_adapter@D@__crt_stdio_output@@@__crt_stdio_output@@IAE_NAAD@Z 1005c19e f i libucrt:output.obj
 0001:0005b1bf       ??$extract_argument_from_va_list@GD@?$standard_base@DV?$string_output_adapter@D@__crt_stdio_output@@@__crt_stdio_output@@IAE_NAAD@Z 1005c1bf f i libucrt:output.obj
 0001:0005b1e0       ??$extract_argument_from_va_list@G_J@?$positional_parameter_base@DV?$stream_output_adapter@D@__crt_stdio_output@@@__crt_stdio_output@@IAE_NAA_J@Z 1005c1e0 f i libucrt:output.obj
 0001:0005b292       ??$extract_argument_from_va_list@G_J@?$positional_parameter_base@DV?$string_output_adapter@D@__crt_stdio_output@@@__crt_stdio_output@@IAE_NAA_J@Z 1005c292 f i libucrt:output.obj
 0001:0005b344       ??$extract_argument_from_va_list@G_J@?$positional_parameter_base@_WV?$stream_output_adapter@_W@__crt_stdio_output@@@__crt_stdio_output@@IAE_NAA_J@Z 1005c344 f i libucrt:output.obj
 0001:0005b3f8       ??$extract_argument_from_va_list@G_J@?$positional_parameter_base@_WV?$string_output_adapter@_W@__crt_stdio_output@@@__crt_stdio_output@@IAE_NAA_J@Z 1005c3f8 f i libucrt:output.obj
 0001:0005b4ac       ??$extract_argument_from_va_list@G_J@?$standard_base@DV?$stream_output_adapter@D@__crt_stdio_output@@@__crt_stdio_output@@IAE_NAA_J@Z 1005c4ac f i libucrt:output.obj
 0001:0005b4d4       ??$extract_argument_from_va_list@G_J@?$standard_base@DV?$string_output_adapter@D@__crt_stdio_output@@@__crt_stdio_output@@IAE_NAA_J@Z 1005c4d4 f i libucrt:output.obj
 0001:0005b4fc       ??$extract_argument_from_va_list@G_J@?$standard_base@_WV?$stream_output_adapter@_W@__crt_stdio_output@@@__crt_stdio_output@@IAE_NAA_J@Z 1005c4fc f i libucrt:output.obj
 0001:0005b524       ??$extract_argument_from_va_list@G_J@?$standard_base@_WV?$string_output_adapter@_W@__crt_stdio_output@@@__crt_stdio_output@@IAE_NAA_J@Z 1005c524 f i libucrt:output.obj
 0001:0005b54c       ??$extract_argument_from_va_list@H_J@?$positional_parameter_base@DV?$stream_output_adapter@D@__crt_stdio_output@@@__crt_stdio_output@@IAE_NAA_J@Z 1005c54c f i libucrt:output.obj
 0001:0005b5f7       ??$extract_argument_from_va_list@H_J@?$positional_parameter_base@DV?$string_output_adapter@D@__crt_stdio_output@@@__crt_stdio_output@@IAE_NAA_J@Z 1005c5f7 f i libucrt:output.obj
 0001:0005b6a2       ??$extract_argument_from_va_list@H_J@?$positional_parameter_base@_WV?$stream_output_adapter@_W@__crt_stdio_output@@@__crt_stdio_output@@IAE_NAA_J@Z 1005c6a2 f i libucrt:output.obj
 0001:0005b74e       ??$extract_argument_from_va_list@H_J@?$positional_parameter_base@_WV?$string_output_adapter@_W@__crt_stdio_output@@@__crt_stdio_output@@IAE_NAA_J@Z 1005c74e f i libucrt:output.obj
 0001:0005b7fa       ??$extract_argument_from_va_list@H_J@?$standard_base@DV?$stream_output_adapter@D@__crt_stdio_output@@@__crt_stdio_output@@IAE_NAA_J@Z 1005c7fa f i libucrt:output.obj
 0001:0005b820       ??$extract_argument_from_va_list@H_J@?$standard_base@DV?$string_output_adapter@D@__crt_stdio_output@@@__crt_stdio_output@@IAE_NAA_J@Z 1005c820 f i libucrt:output.obj
 0001:0005b846       ??$extract_argument_from_va_list@H_J@?$standard_base@_WV?$stream_output_adapter@_W@__crt_stdio_output@@@__crt_stdio_output@@IAE_NAA_J@Z 1005c846 f i libucrt:output.obj
 0001:0005b86c       ??$extract_argument_from_va_list@H_J@?$standard_base@_WV?$string_output_adapter@_W@__crt_stdio_output@@@__crt_stdio_output@@IAE_NAA_J@Z 1005c86c f i libucrt:output.obj
 0001:0005b892       ??$extract_argument_from_va_list@I_J@?$positional_parameter_base@DV?$stream_output_adapter@D@__crt_stdio_output@@@__crt_stdio_output@@IAE_NAA_J@Z 1005c892 f i libucrt:output.obj
 0001:0005b94d       ??$extract_argument_from_va_list@I_J@?$positional_parameter_base@DV?$string_output_adapter@D@__crt_stdio_output@@@__crt_stdio_output@@IAE_NAA_J@Z 1005c94d f i libucrt:output.obj
 0001:0005ba08       ??$extract_argument_from_va_list@I_J@?$positional_parameter_base@_WV?$stream_output_adapter@_W@__crt_stdio_output@@@__crt_stdio_output@@IAE_NAA_J@Z 1005ca08 f i libucrt:output.obj
 0001:0005bac4       ??$extract_argument_from_va_list@I_J@?$positional_parameter_base@_WV?$string_output_adapter@_W@__crt_stdio_output@@@__crt_stdio_output@@IAE_NAA_J@Z 1005cac4 f i libucrt:output.obj
 0001:0005bb80       ??$extract_argument_from_va_list@I_J@?$standard_base@DV?$stream_output_adapter@D@__crt_stdio_output@@@__crt_stdio_output@@IAE_NAA_J@Z 1005cb80 f i libucrt:output.obj
 0001:0005bba6       ??$extract_argument_from_va_list@I_J@?$standard_base@DV?$string_output_adapter@D@__crt_stdio_output@@@__crt_stdio_output@@IAE_NAA_J@Z 1005cba6 f i libucrt:output.obj
 0001:0005bbcc       ??$extract_argument_from_va_list@I_J@?$standard_base@_WV?$stream_output_adapter@_W@__crt_stdio_output@@@__crt_stdio_output@@IAE_NAA_J@Z 1005cbcc f i libucrt:output.obj
 0001:0005bbf2       ??$extract_argument_from_va_list@I_J@?$standard_base@_WV?$string_output_adapter@_W@__crt_stdio_output@@@__crt_stdio_output@@IAE_NAA_J@Z 1005cbf2 f i libucrt:output.obj
 0001:0005bc18       ??$extract_argument_from_va_list@PADPAD@?$positional_parameter_base@DV?$stream_output_adapter@D@__crt_stdio_output@@@__crt_stdio_output@@IAE_NAAPAD@Z 1005cc18 f i libucrt:output.obj
 0001:0005bcc9       ??$extract_argument_from_va_list@PADPAD@?$positional_parameter_base@DV?$string_output_adapter@D@__crt_stdio_output@@@__crt_stdio_output@@IAE_NAAPAD@Z 1005ccc9 f i libucrt:output.obj
 0001:0005bd7a       ??$extract_argument_from_va_list@PADPAD@?$positional_parameter_base@_WV?$stream_output_adapter@_W@__crt_stdio_output@@@__crt_stdio_output@@IAE_NAAPAD@Z 1005cd7a f i libucrt:output.obj
 0001:0005be2c       ??$extract_argument_from_va_list@PADPAD@?$positional_parameter_base@_WV?$string_output_adapter@_W@__crt_stdio_output@@@__crt_stdio_output@@IAE_NAAPAD@Z 1005ce2c f i libucrt:output.obj
 0001:0005bede       ??$extract_argument_from_va_list@PADPAD@?$standard_base@DV?$stream_output_adapter@D@__crt_stdio_output@@@__crt_stdio_output@@IAE_NAAPAD@Z 1005cede f i libucrt:output.obj
 0001:0005bf02       ??$extract_argument_from_va_list@PADPAD@?$standard_base@DV?$string_output_adapter@D@__crt_stdio_output@@@__crt_stdio_output@@IAE_NAAPAD@Z 1005cf02 f i libucrt:output.obj
 0001:0005bf26       ??$extract_argument_from_va_list@PADPAD@?$standard_base@_WV?$stream_output_adapter@_W@__crt_stdio_output@@@__crt_stdio_output@@IAE_NAAPAD@Z 1005cf26 f i libucrt:output.obj
 0001:0005bf4a       ??$extract_argument_from_va_list@PADPAD@?$standard_base@_WV?$string_output_adapter@_W@__crt_stdio_output@@@__crt_stdio_output@@IAE_NAAPAD@Z 1005cf4a f i libucrt:output.obj
 0001:0005bf6e       ??$extract_argument_from_va_list@PAUansi_string@?1??type_case_Z@?$output_processor@DV?$stream_output_adapter@D@__crt_stdio_output@@V?$format_validation_base@DV?$stream_output_adapter@D@__crt_stdio_output@@@2@@__crt_stdio_output@@AAE_NXZ@PAU1?1??234@AAE_NXZ@@?$standard_base@DV?$stream_output_adapter@D@__crt_stdio_output@@@__crt_stdio_output@@IAE_NAAPAUansi_string@?1??type_case_Z@?$output_processor@DV?$stream_output_adapter@D@__crt_stdio_output@@V?$format_validation_base@DV?$stream_output_adapter@D@__crt_stdio_output@@@2@@1@AAE_NXZ@@Z 1005cf6e f i libucrt:output.obj
 0001:0005bf92       ??$extract_argument_from_va_list@PAUansi_string@?1??type_case_Z@?$output_processor@DV?$stream_output_adapter@D@__crt_stdio_output@@V?$positional_parameter_base@DV?$stream_output_adapter@D@__crt_stdio_output@@@2@@__crt_stdio_output@@AAE_NXZ@PAU1?1??234@AAE_NXZ@@?$positional_parameter_base@DV?$stream_output_adapter@D@__crt_stdio_output@@@__crt_stdio_output@@IAE_NAAPAUansi_string@?1??type_case_Z@?$output_processor@DV?$stream_output_adapter@D@__crt_stdio_output@@V?$positional_parameter_base@DV?$stream_output_adapter@D@__crt_stdio_output@@@2@@1@AAE_NXZ@@Z 1005cf92 f i libucrt:output.obj
 0001:0005c043       ??$extract_argument_from_va_list@PAUansi_string@?1??type_case_Z@?$output_processor@DV?$stream_output_adapter@D@__crt_stdio_output@@V?$positional_parameter_base@DV?$stream_output_adapter@D@__crt_stdio_output@@@2@@__crt_stdio_output@@AAE_NXZ@PAU1?1??234@AAE_NXZ@@?$standard_base@DV?$stream_output_adapter@D@__crt_stdio_output@@@__crt_stdio_output@@IAE_NAAPAUansi_string@?1??type_case_Z@?$output_processor@DV?$stream_output_adapter@D@__crt_stdio_output@@V?$positional_parameter_base@DV?$stream_output_adapter@D@__crt_stdio_output@@@2@@1@AAE_NXZ@@Z 1005d043 f i libucrt:output.obj
 0001:0005c067       ??$extract_argument_from_va_list@PAUansi_string@?1??type_case_Z@?$output_processor@DV?$stream_output_adapter@D@__crt_stdio_output@@V?$standard_base@DV?$stream_output_adapter@D@__crt_stdio_output@@@2@@__crt_stdio_output@@AAE_NXZ@PAU1?1??234@AAE_NXZ@@?$standard_base@DV?$stream_output_adapter@D@__crt_stdio_output@@@__crt_stdio_output@@IAE_NAAPAUansi_string@?1??type_case_Z@?$output_processor@DV?$stream_output_adapter@D@__crt_stdio_output@@V?$standard_base@DV?$stream_output_adapter@D@__crt_stdio_output@@@2@@1@AAE_NXZ@@Z 1005d067 f i libucrt:output.obj
 0001:0005c08b       ??$extract_argument_from_va_list@PAUansi_string@?1??type_case_Z@?$output_processor@DV?$string_output_adapter@D@__crt_stdio_output@@V?$format_validation_base@DV?$string_output_adapter@D@__crt_stdio_output@@@2@@__crt_stdio_output@@AAE_NXZ@PAU1?1??234@AAE_NXZ@@?$standard_base@DV?$string_output_adapter@D@__crt_stdio_output@@@__crt_stdio_output@@IAE_NAAPAUansi_string@?1??type_case_Z@?$output_processor@DV?$string_output_adapter@D@__crt_stdio_output@@V?$format_validation_base@DV?$string_output_adapter@D@__crt_stdio_output@@@2@@1@AAE_NXZ@@Z 1005d08b f i libucrt:output.obj
 0001:0005c0af       ??$extract_argument_from_va_list@PAUansi_string@?1??type_case_Z@?$output_processor@DV?$string_output_adapter@D@__crt_stdio_output@@V?$positional_parameter_base@DV?$string_output_adapter@D@__crt_stdio_output@@@2@@__crt_stdio_output@@AAE_NXZ@PAU1?1??234@AAE_NXZ@@?$positional_parameter_base@DV?$string_output_adapter@D@__crt_stdio_output@@@__crt_stdio_output@@IAE_NAAPAUansi_string@?1??type_case_Z@?$output_processor@DV?$string_output_adapter@D@__crt_stdio_output@@V?$positional_parameter_base@DV?$string_output_adapter@D@__crt_stdio_output@@@2@@1@AAE_NXZ@@Z 1005d0af f i libucrt:output.obj
 0001:0005c160       ??$extract_argument_from_va_list@PAUansi_string@?1??type_case_Z@?$output_processor@DV?$string_output_adapter@D@__crt_stdio_output@@V?$positional_parameter_base@DV?$string_output_adapter@D@__crt_stdio_output@@@2@@__crt_stdio_output@@AAE_NXZ@PAU1?1??234@AAE_NXZ@@?$standard_base@DV?$string_output_adapter@D@__crt_stdio_output@@@__crt_stdio_output@@IAE_NAAPAUansi_string@?1??type_case_Z@?$output_processor@DV?$string_output_adapter@D@__crt_stdio_output@@V?$positional_parameter_base@DV?$string_output_adapter@D@__crt_stdio_output@@@2@@1@AAE_NXZ@@Z 1005d160 f i libucrt:output.obj
 0001:0005c184       ??$extract_argument_from_va_list@PAUansi_string@?1??type_case_Z@?$output_processor@DV?$string_output_adapter@D@__crt_stdio_output@@V?$standard_base@DV?$string_output_adapter@D@__crt_stdio_output@@@2@@__crt_stdio_output@@AAE_NXZ@PAU1?1??234@AAE_NXZ@@?$standard_base@DV?$string_output_adapter@D@__crt_stdio_output@@@__crt_stdio_output@@IAE_NAAPAUansi_string@?1??type_case_Z@?$output_processor@DV?$string_output_adapter@D@__crt_stdio_output@@V?$standard_base@DV?$string_output_adapter@D@__crt_stdio_output@@@2@@1@AAE_NXZ@@Z 1005d184 f i libucrt:output.obj
 0001:0005c1a8       ??$extract_argument_from_va_list@PAUansi_string@?1??type_case_Z@?$output_processor@_WV?$stream_output_adapter@_W@__crt_stdio_output@@V?$format_validation_base@_WV?$stream_output_adapter@_W@__crt_stdio_output@@@2@@__crt_stdio_output@@AAE_NXZ@PAU1?1??234@AAE_NXZ@@?$standard_base@_WV?$stream_output_adapter@_W@__crt_stdio_output@@@__crt_stdio_output@@IAE_NAAPAUansi_string@?1??type_case_Z@?$output_processor@_WV?$stream_output_adapter@_W@__crt_stdio_output@@V?$format_validation_base@_WV?$stream_output_adapter@_W@__crt_stdio_output@@@2@@1@AAE_NXZ@@Z 1005d1a8 f i libucrt:output.obj
 0001:0005c1cc       ??$extract_argument_from_va_list@PAUansi_string@?1??type_case_Z@?$output_processor@_WV?$stream_output_adapter@_W@__crt_stdio_output@@V?$positional_parameter_base@_WV?$stream_output_adapter@_W@__crt_stdio_output@@@2@@__crt_stdio_output@@AAE_NXZ@PAU1?1??234@AAE_NXZ@@?$positional_parameter_base@_WV?$stream_output_adapter@_W@__crt_stdio_output@@@__crt_stdio_output@@IAE_NAAPAUansi_string@?1??type_case_Z@?$output_processor@_WV?$stream_output_adapter@_W@__crt_stdio_output@@V?$positional_parameter_base@_WV?$stream_output_adapter@_W@__crt_stdio_output@@@2@@1@AAE_NXZ@@Z 1005d1cc f i libucrt:output.obj
 0001:0005c27e       ??$extract_argument_from_va_list@PAUansi_string@?1??type_case_Z@?$output_processor@_WV?$stream_output_adapter@_W@__crt_stdio_output@@V?$positional_parameter_base@_WV?$stream_output_adapter@_W@__crt_stdio_output@@@2@@__crt_stdio_output@@AAE_NXZ@PAU1?1??234@AAE_NXZ@@?$standard_base@_WV?$stream_output_adapter@_W@__crt_stdio_output@@@__crt_stdio_output@@IAE_NAAPAUansi_string@?1??type_case_Z@?$output_processor@_WV?$stream_output_adapter@_W@__crt_stdio_output@@V?$positional_parameter_base@_WV?$stream_output_adapter@_W@__crt_stdio_output@@@2@@1@AAE_NXZ@@Z 1005d27e f i libucrt:output.obj
 0001:0005c2a2       ??$extract_argument_from_va_list@PAUansi_string@?1??type_case_Z@?$output_processor@_WV?$stream_output_adapter@_W@__crt_stdio_output@@V?$standard_base@_WV?$stream_output_adapter@_W@__crt_stdio_output@@@2@@__crt_stdio_output@@AAE_NXZ@PAU1?1??234@AAE_NXZ@@?$standard_base@_WV?$stream_output_adapter@_W@__crt_stdio_output@@@__crt_stdio_output@@IAE_NAAPAUansi_string@?1??type_case_Z@?$output_processor@_WV?$stream_output_adapter@_W@__crt_stdio_output@@V?$standard_base@_WV?$stream_output_adapter@_W@__crt_stdio_output@@@2@@1@AAE_NXZ@@Z 1005d2a2 f i libucrt:output.obj
 0001:0005c2c6       ??$extract_argument_from_va_list@PAUansi_string@?1??type_case_Z@?$output_processor@_WV?$string_output_adapter@_W@__crt_stdio_output@@V?$format_validation_base@_WV?$string_output_adapter@_W@__crt_stdio_output@@@2@@__crt_stdio_output@@AAE_NXZ@PAU1?1??234@AAE_NXZ@@?$standard_base@_WV?$string_output_adapter@_W@__crt_stdio_output@@@__crt_stdio_output@@IAE_NAAPAUansi_string@?1??type_case_Z@?$output_processor@_WV?$string_output_adapter@_W@__crt_stdio_output@@V?$format_validation_base@_WV?$string_output_adapter@_W@__crt_stdio_output@@@2@@1@AAE_NXZ@@Z 1005d2c6 f i libucrt:output.obj
 0001:0005c2ea       ??$extract_argument_from_va_list@PAUansi_string@?1??type_case_Z@?$output_processor@_WV?$string_output_adapter@_W@__crt_stdio_output@@V?$positional_parameter_base@_WV?$string_output_adapter@_W@__crt_stdio_output@@@2@@__crt_stdio_output@@AAE_NXZ@PAU1?1??234@AAE_NXZ@@?$positional_parameter_base@_WV?$string_output_adapter@_W@__crt_stdio_output@@@__crt_stdio_output@@IAE_NAAPAUansi_string@?1??type_case_Z@?$output_processor@_WV?$string_output_adapter@_W@__crt_stdio_output@@V?$positional_parameter_base@_WV?$string_output_adapter@_W@__crt_stdio_output@@@2@@1@AAE_NXZ@@Z 1005d2ea f i libucrt:output.obj
 0001:0005c39c       ??$extract_argument_from_va_list@PAUansi_string@?1??type_case_Z@?$output_processor@_WV?$string_output_adapter@_W@__crt_stdio_output@@V?$positional_parameter_base@_WV?$string_output_adapter@_W@__crt_stdio_output@@@2@@__crt_stdio_output@@AAE_NXZ@PAU1?1??234@AAE_NXZ@@?$standard_base@_WV?$string_output_adapter@_W@__crt_stdio_output@@@__crt_stdio_output@@IAE_NAAPAUansi_string@?1??type_case_Z@?$output_processor@_WV?$string_output_adapter@_W@__crt_stdio_output@@V?$positional_parameter_base@_WV?$string_output_adapter@_W@__crt_stdio_output@@@2@@1@AAE_NXZ@@Z 1005d39c f i libucrt:output.obj
 0001:0005c3c0       ??$extract_argument_from_va_list@PAUansi_string@?1??type_case_Z@?$output_processor@_WV?$string_output_adapter@_W@__crt_stdio_output@@V?$standard_base@_WV?$string_output_adapter@_W@__crt_stdio_output@@@2@@__crt_stdio_output@@AAE_NXZ@PAU1?1??234@AAE_NXZ@@?$standard_base@_WV?$string_output_adapter@_W@__crt_stdio_output@@@__crt_stdio_output@@IAE_NAAPAUansi_string@?1??type_case_Z@?$output_processor@_WV?$string_output_adapter@_W@__crt_stdio_output@@V?$standard_base@_WV?$string_output_adapter@_W@__crt_stdio_output@@@2@@1@AAE_NXZ@@Z 1005d3c0 f i libucrt:output.obj
 0001:0005c3e4       ??$extract_argument_from_va_list@PAXPAX@?$positional_parameter_base@DV?$stream_output_adapter@D@__crt_stdio_output@@@__crt_stdio_output@@IAE_NAAPAX@Z 1005d3e4 f i libucrt:output.obj
 0001:0005c495       ??$extract_argument_from_va_list@PAXPAX@?$positional_parameter_base@DV?$string_output_adapter@D@__crt_stdio_output@@@__crt_stdio_output@@IAE_NAAPAX@Z 1005d495 f i libucrt:output.obj
 0001:0005c546       ??$extract_argument_from_va_list@PAXPAX@?$positional_parameter_base@_WV?$stream_output_adapter@_W@__crt_stdio_output@@@__crt_stdio_output@@IAE_NAAPAX@Z 1005d546 f i libucrt:output.obj
 0001:0005c5f8       ??$extract_argument_from_va_list@PAXPAX@?$positional_parameter_base@_WV?$string_output_adapter@_W@__crt_stdio_output@@@__crt_stdio_output@@IAE_NAAPAX@Z 1005d5f8 f i libucrt:output.obj
 0001:0005c6aa       ??$extract_argument_from_va_list@PAXPAX@?$standard_base@DV?$stream_output_adapter@D@__crt_stdio_output@@@__crt_stdio_output@@IAE_NAAPAX@Z 1005d6aa f i libucrt:output.obj
 0001:0005c6ce       ??$extract_argument_from_va_list@PAXPAX@?$standard_base@DV?$string_output_adapter@D@__crt_stdio_output@@@__crt_stdio_output@@IAE_NAAPAX@Z 1005d6ce f i libucrt:output.obj
 0001:0005c6f2       ??$extract_argument_from_va_list@PAXPAX@?$standard_base@_WV?$stream_output_adapter@_W@__crt_stdio_output@@@__crt_stdio_output@@IAE_NAAPAX@Z 1005d6f2 f i libucrt:output.obj
 0001:0005c716       ??$extract_argument_from_va_list@PAXPAX@?$standard_base@_WV?$string_output_adapter@_W@__crt_stdio_output@@@__crt_stdio_output@@IAE_NAAPAX@Z 1005d716 f i libucrt:output.obj
 0001:0005c73a       ??$extract_argument_from_va_list@U_CRT_DOUBLE@@U1@@?$positional_parameter_base@DV?$stream_output_adapter@D@__crt_stdio_output@@@__crt_stdio_output@@IAE_NAAU_CRT_DOUBLE@@@Z 1005d73a f i libucrt:output.obj
 0001:0005c7f5       ??$extract_argument_from_va_list@U_CRT_DOUBLE@@U1@@?$positional_parameter_base@DV?$string_output_adapter@D@__crt_stdio_output@@@__crt_stdio_output@@IAE_NAAU_CRT_DOUBLE@@@Z 1005d7f5 f i libucrt:output.obj
 0001:0005c8b0       ??$extract_argument_from_va_list@U_CRT_DOUBLE@@U1@@?$positional_parameter_base@_WV?$stream_output_adapter@_W@__crt_stdio_output@@@__crt_stdio_output@@IAE_NAAU_CRT_DOUBLE@@@Z 1005d8b0 f i libucrt:output.obj
 0001:0005c96c       ??$extract_argument_from_va_list@U_CRT_DOUBLE@@U1@@?$positional_parameter_base@_WV?$string_output_adapter@_W@__crt_stdio_output@@@__crt_stdio_output@@IAE_NAAU_CRT_DOUBLE@@@Z 1005d96c f i libucrt:output.obj
 0001:0005ca28       ??$extract_argument_from_va_list@U_CRT_DOUBLE@@U1@@?$standard_base@DV?$stream_output_adapter@D@__crt_stdio_output@@@__crt_stdio_output@@IAE_NAAU_CRT_DOUBLE@@@Z 1005da28 f i libucrt:output.obj
 0001:0005ca51       ??$extract_argument_from_va_list@U_CRT_DOUBLE@@U1@@?$standard_base@DV?$string_output_adapter@D@__crt_stdio_output@@@__crt_stdio_output@@IAE_NAAU_CRT_DOUBLE@@@Z 1005da51 f i libucrt:output.obj
 0001:0005ca7a       ??$extract_argument_from_va_list@U_CRT_DOUBLE@@U1@@?$standard_base@_WV?$stream_output_adapter@_W@__crt_stdio_output@@@__crt_stdio_output@@IAE_NAAU_CRT_DOUBLE@@@Z 1005da7a f i libucrt:output.obj
 0001:0005caa3       ??$extract_argument_from_va_list@U_CRT_DOUBLE@@U1@@?$standard_base@_WV?$string_output_adapter@_W@__crt_stdio_output@@@__crt_stdio_output@@IAE_NAAU_CRT_DOUBLE@@@Z 1005daa3 f i libucrt:output.obj
 0001:0005cacc       ??$extract_argument_from_va_list@_J_J@?$positional_parameter_base@DV?$stream_output_adapter@D@__crt_stdio_output@@@__crt_stdio_output@@IAE_NAA_J@Z 1005dacc f i libucrt:output.obj
 0001:0005cb8c       ??$extract_argument_from_va_list@_J_J@?$positional_parameter_base@DV?$string_output_adapter@D@__crt_stdio_output@@@__crt_stdio_output@@IAE_NAA_J@Z 1005db8c f i libucrt:output.obj
 0001:0005cc4c       ??$extract_argument_from_va_list@_J_J@?$positional_parameter_base@_WV?$stream_output_adapter@_W@__crt_stdio_output@@@__crt_stdio_output@@IAE_NAA_J@Z 1005dc4c f i libucrt:output.obj
 0001:0005cd0d       ??$extract_argument_from_va_list@_J_J@?$positional_parameter_base@_WV?$string_output_adapter@_W@__crt_stdio_output@@@__crt_stdio_output@@IAE_NAA_J@Z 1005dd0d f i libucrt:output.obj
 0001:0005cdce       ??$extract_argument_from_va_list@_J_J@?$standard_base@DV?$stream_output_adapter@D@__crt_stdio_output@@@__crt_stdio_output@@IAE_NAA_J@Z 1005ddce f i libucrt:output.obj
 0001:0005cdf7       ??$extract_argument_from_va_list@_J_J@?$standard_base@DV?$string_output_adapter@D@__crt_stdio_output@@@__crt_stdio_output@@IAE_NAA_J@Z 1005ddf7 f i libucrt:output.obj
 0001:0005ce20       ??$extract_argument_from_va_list@_J_J@?$standard_base@_WV?$stream_output_adapter@_W@__crt_stdio_output@@@__crt_stdio_output@@IAE_NAA_J@Z 1005de20 f i libucrt:output.obj
 0001:0005ce49       ??$extract_argument_from_va_list@_J_J@?$standard_base@_WV?$string_output_adapter@_W@__crt_stdio_output@@@__crt_stdio_output@@IAE_NAA_J@Z 1005de49 f i libucrt:output.obj
 0001:0005ce72       ??$extract_argument_from_va_list@_K_J@?$positional_parameter_base@DV?$stream_output_adapter@D@__crt_stdio_output@@@__crt_stdio_output@@IAE_NAA_J@Z 1005de72 f i libucrt:output.obj
 0001:0005cf32       ??$extract_argument_from_va_list@_K_J@?$positional_parameter_base@DV?$string_output_adapter@D@__crt_stdio_output@@@__crt_stdio_output@@IAE_NAA_J@Z 1005df32 f i libucrt:output.obj
 0001:0005cff2       ??$extract_argument_from_va_list@_K_J@?$positional_parameter_base@_WV?$stream_output_adapter@_W@__crt_stdio_output@@@__crt_stdio_output@@IAE_NAA_J@Z 1005dff2 f i libucrt:output.obj
 0001:0005d0b3       ??$extract_argument_from_va_list@_K_J@?$positional_parameter_base@_WV?$string_output_adapter@_W@__crt_stdio_output@@@__crt_stdio_output@@IAE_NAA_J@Z 1005e0b3 f i libucrt:output.obj
 0001:0005d174       ??$extract_argument_from_va_list@_K_J@?$standard_base@DV?$stream_output_adapter@D@__crt_stdio_output@@@__crt_stdio_output@@IAE_NAA_J@Z 1005e174 f i libucrt:output.obj
 0001:0005d19d       ??$extract_argument_from_va_list@_K_J@?$standard_base@DV?$string_output_adapter@D@__crt_stdio_output@@@__crt_stdio_output@@IAE_NAA_J@Z 1005e19d f i libucrt:output.obj
 0001:0005d1c6       ??$extract_argument_from_va_list@_K_J@?$standard_base@_WV?$stream_output_adapter@_W@__crt_stdio_output@@@__crt_stdio_output@@IAE_NAA_J@Z 1005e1c6 f i libucrt:output.obj
 0001:0005d1ef       ??$extract_argument_from_va_list@_K_J@?$standard_base@_WV?$string_output_adapter@_W@__crt_stdio_output@@@__crt_stdio_output@@IAE_NAA_J@Z 1005e1ef f i libucrt:output.obj
 0001:0005d218       ??$extract_argument_from_va_list@_W_W@?$positional_parameter_base@DV?$stream_output_adapter@D@__crt_stdio_output@@@__crt_stdio_output@@IAE_NAA_W@Z 1005e218 f i libucrt:output.obj
 0001:0005d2ce       ??$extract_argument_from_va_list@_W_W@?$positional_parameter_base@DV?$string_output_adapter@D@__crt_stdio_output@@@__crt_stdio_output@@IAE_NAA_W@Z 1005e2ce f i libucrt:output.obj
 0001:0005d384       ??$extract_argument_from_va_list@_W_W@?$positional_parameter_base@_WV?$stream_output_adapter@_W@__crt_stdio_output@@@__crt_stdio_output@@IAE_NAA_W@Z 1005e384 f i libucrt:output.obj
 0001:0005d43b       ??$extract_argument_from_va_list@_W_W@?$positional_parameter_base@_WV?$string_output_adapter@_W@__crt_stdio_output@@@__crt_stdio_output@@IAE_NAA_W@Z 1005e43b f i libucrt:output.obj
 0001:0005d4f2       ??$extract_argument_from_va_list@_W_W@?$standard_base@DV?$stream_output_adapter@D@__crt_stdio_output@@@__crt_stdio_output@@IAE_NAA_W@Z 1005e4f2 f i libucrt:output.obj
 0001:0005d516       ??$extract_argument_from_va_list@_W_W@?$standard_base@DV?$string_output_adapter@D@__crt_stdio_output@@@__crt_stdio_output@@IAE_NAA_W@Z 1005e516 f i libucrt:output.obj
 0001:0005d53a       ??$extract_argument_from_va_list@_W_W@?$standard_base@_WV?$stream_output_adapter@_W@__crt_stdio_output@@@__crt_stdio_output@@IAE_NAA_W@Z 1005e53a f i libucrt:output.obj
 0001:0005d55e       ??$extract_argument_from_va_list@_W_W@?$standard_base@_WV?$string_output_adapter@_W@__crt_stdio_output@@@__crt_stdio_output@@IAE_NAA_W@Z 1005e55e f i libucrt:output.obj
 0001:0005d582       ??$get_parameter_type@D@?$positional_parameter_base@DV?$stream_output_adapter@D@__crt_stdio_output@@@__crt_stdio_output@@CA?AW4parameter_type@01@PAD@Z 1005e582 f i libucrt:output.obj
 0001:0005d586       ??$get_parameter_type@D@?$positional_parameter_base@DV?$string_output_adapter@D@__crt_stdio_output@@@__crt_stdio_output@@CA?AW4parameter_type@01@PAD@Z 1005e586 f i libucrt:output.obj
 0001:0005d58a       ??$get_parameter_type@D@?$positional_parameter_base@_WV?$stream_output_adapter@_W@__crt_stdio_output@@@__crt_stdio_output@@CA?AW4parameter_type@01@PAD@Z 1005e58a f i libucrt:output.obj
 0001:0005d58e       ??$get_parameter_type@D@?$positional_parameter_base@_WV?$string_output_adapter@_W@__crt_stdio_output@@@__crt_stdio_output@@CA?AW4parameter_type@01@PAD@Z 1005e58e f i libucrt:output.obj
 0001:0005d592       ??$get_parameter_type@Uansi_string@?1??type_case_Z@?$output_processor@DV?$stream_output_adapter@D@__crt_stdio_output@@V?$positional_parameter_base@DV?$stream_output_adapter@D@__crt_stdio_output@@@2@@__crt_stdio_output@@AAE_NXZ@@?$positional_parameter_base@DV?$stream_output_adapter@D@__crt_stdio_output@@@__crt_stdio_output@@CA?AW4parameter_type@01@PAUansi_string@?1??type_case_Z@?$output_processor@DV?$stream_output_adapter@D@__crt_stdio_output@@V?$positional_parameter_base@DV?$stream_output_adapter@D@__crt_stdio_output@@@2@@1@AAE_NXZ@@Z 1005e592 f i libucrt:output.obj
 0001:0005d596       ??$get_parameter_type@Uansi_string@?1??type_case_Z@?$output_processor@DV?$string_output_adapter@D@__crt_stdio_output@@V?$positional_parameter_base@DV?$string_output_adapter@D@__crt_stdio_output@@@2@@__crt_stdio_output@@AAE_NXZ@@?$positional_parameter_base@DV?$string_output_adapter@D@__crt_stdio_output@@@__crt_stdio_output@@CA?AW4parameter_type@01@PAUansi_string@?1??type_case_Z@?$output_processor@DV?$string_output_adapter@D@__crt_stdio_output@@V?$positional_parameter_base@DV?$string_output_adapter@D@__crt_stdio_output@@@2@@1@AAE_NXZ@@Z 1005e596 f i libucrt:output.obj
 0001:0005d59a       ??$get_parameter_type@Uansi_string@?1??type_case_Z@?$output_processor@_WV?$stream_output_adapter@_W@__crt_stdio_output@@V?$positional_parameter_base@_WV?$stream_output_adapter@_W@__crt_stdio_output@@@2@@__crt_stdio_output@@AAE_NXZ@@?$positional_parameter_base@_WV?$stream_output_adapter@_W@__crt_stdio_output@@@__crt_stdio_output@@CA?AW4parameter_type@01@PAUansi_string@?1??type_case_Z@?$output_processor@_WV?$stream_output_adapter@_W@__crt_stdio_output@@V?$positional_parameter_base@_WV?$stream_output_adapter@_W@__crt_stdio_output@@@2@@1@AAE_NXZ@@Z 1005e59a f i libucrt:output.obj
 0001:0005d59e       ??$get_parameter_type@Uansi_string@?1??type_case_Z@?$output_processor@_WV?$string_output_adapter@_W@__crt_stdio_output@@V?$positional_parameter_base@_WV?$string_output_adapter@_W@__crt_stdio_output@@@2@@__crt_stdio_output@@AAE_NXZ@@?$positional_parameter_base@_WV?$string_output_adapter@_W@__crt_stdio_output@@@__crt_stdio_output@@CA?AW4parameter_type@01@PAUansi_string@?1??type_case_Z@?$output_processor@_WV?$string_output_adapter@_W@__crt_stdio_output@@V?$positional_parameter_base@_WV?$string_output_adapter@_W@__crt_stdio_output@@@2@@1@AAE_NXZ@@Z 1005e59e f i libucrt:output.obj
 0001:0005d5a2       ??$get_parameter_type@X@?$positional_parameter_base@DV?$stream_output_adapter@D@__crt_stdio_output@@@__crt_stdio_output@@CA?AW4parameter_type@01@PAX@Z 1005e5a2 f i libucrt:output.obj
 0001:0005d5a6       ??$get_parameter_type@X@?$positional_parameter_base@DV?$string_output_adapter@D@__crt_stdio_output@@@__crt_stdio_output@@CA?AW4parameter_type@01@PAX@Z 1005e5a6 f i libucrt:output.obj
 0001:0005d5aa       ??$get_parameter_type@X@?$positional_parameter_base@_WV?$stream_output_adapter@_W@__crt_stdio_output@@@__crt_stdio_output@@CA?AW4parameter_type@01@PAX@Z 1005e5aa f i libucrt:output.obj
 0001:0005d5ae       ??$get_parameter_type@X@?$positional_parameter_base@_WV?$string_output_adapter@_W@__crt_stdio_output@@@__crt_stdio_output@@CA?AW4parameter_type@01@PAX@Z 1005e5ae f i libucrt:output.obj
 0001:0005d5b2       ??$is_character_specifier@D@?$positional_parameter_base@DV?$stream_output_adapter@D@__crt_stdio_output@@@__crt_stdio_output@@CA_ND@Z 1005e5b2 f i libucrt:output.obj
 0001:0005d5d0       ??$is_character_specifier@D@?$positional_parameter_base@DV?$string_output_adapter@D@__crt_stdio_output@@@__crt_stdio_output@@CA_ND@Z 1005e5d0 f i libucrt:output.obj
 0001:0005d5ee       ??$is_character_specifier@_W@?$positional_parameter_base@_WV?$stream_output_adapter@_W@__crt_stdio_output@@@__crt_stdio_output@@CA_N_W@Z 1005e5ee f i libucrt:output.obj
 0001:0005d60f       ??$is_character_specifier@_W@?$positional_parameter_base@_WV?$string_output_adapter@_W@__crt_stdio_output@@@__crt_stdio_output@@CA_N_W@Z 1005e60f f i libucrt:output.obj
 0001:0005d630       ??$is_integral_specifier@D@?$positional_parameter_base@DV?$stream_output_adapter@D@__crt_stdio_output@@@__crt_stdio_output@@CA_ND@Z 1005e630 f i libucrt:output.obj
 0001:0005d667       ??$is_integral_specifier@D@?$positional_parameter_base@DV?$string_output_adapter@D@__crt_stdio_output@@@__crt_stdio_output@@CA_ND@Z 1005e667 f i libucrt:output.obj
 0001:0005d69e       ??$is_integral_specifier@_W@?$positional_parameter_base@_WV?$stream_output_adapter@_W@__crt_stdio_output@@@__crt_stdio_output@@CA_N_W@Z 1005e69e f i libucrt:output.obj
 0001:0005d6e7       ??$is_integral_specifier@_W@?$positional_parameter_base@_WV?$string_output_adapter@_W@__crt_stdio_output@@@__crt_stdio_output@@CA_N_W@Z 1005e6e7 f i libucrt:output.obj
 0001:0005d730       ??$is_overflow_condition@K@__crt_strtox@@YA_NIK@Z 1005e730 f i libucrt:output.obj
 0001:0005d771       ??$is_pointer_specifier@D@?$positional_parameter_base@DV?$stream_output_adapter@D@__crt_stdio_output@@@__crt_stdio_output@@CA_ND@Z 1005e771 f i libucrt:output.obj
 0001:0005d782       ??$is_pointer_specifier@D@?$positional_parameter_base@DV?$string_output_adapter@D@__crt_stdio_output@@@__crt_stdio_output@@CA_ND@Z 1005e782 f i libucrt:output.obj
 0001:0005d793       ??$is_pointer_specifier@_W@?$positional_parameter_base@_WV?$stream_output_adapter@_W@__crt_stdio_output@@@__crt_stdio_output@@CA_N_W@Z 1005e793 f i libucrt:output.obj
 0001:0005d7a5       ??$is_pointer_specifier@_W@?$positional_parameter_base@_WV?$string_output_adapter@_W@__crt_stdio_output@@@__crt_stdio_output@@CA_N_W@Z 1005e7a5 f i libucrt:output.obj
 0001:0005d7b7       ??$is_string_specifier@D@?$positional_parameter_base@DV?$stream_output_adapter@D@__crt_stdio_output@@@__crt_stdio_output@@CA_ND@Z 1005e7b7 f i libucrt:output.obj
 0001:0005d7d5       ??$is_string_specifier@D@?$positional_parameter_base@DV?$string_output_adapter@D@__crt_stdio_output@@@__crt_stdio_output@@CA_ND@Z 1005e7d5 f i libucrt:output.obj
 0001:0005d7f3       ??$is_string_specifier@_W@?$positional_parameter_base@_WV?$stream_output_adapter@_W@__crt_stdio_output@@@__crt_stdio_output@@CA_N_W@Z 1005e7f3 f i libucrt:output.obj
 0001:0005d814       ??$is_string_specifier@_W@?$positional_parameter_base@_WV?$string_output_adapter@_W@__crt_stdio_output@@@__crt_stdio_output@@CA_N_W@Z 1005e814 f i libucrt:output.obj
 0001:0005d835       ??$is_wide_character_specifier@D@__crt_stdio_output@@YA_N_KDW4length_modifier@0@@Z 1005e835 f i libucrt:output.obj
 0001:0005d872       ??$is_wide_character_specifier@_W@__crt_stdio_output@@YA_N_K_WW4length_modifier@0@@Z 1005e872 f i libucrt:output.obj
 0001:0005d8d3       ??$make_c_string_character_source@DPAPAD@__crt_strtox@@YA?AV?$c_string_character_source@D@0@QBDQAPAD@Z 1005e8d3 f i libucrt:output.obj
 0001:0005d8f4       ??$make_c_string_character_source@_WPAPA_W@__crt_strtox@@YA?AV?$c_string_character_source@_W@0@QB_WQAPA_W@Z 1005e8f4 f i libucrt:output.obj
 0001:0005d915       ??$parse_integer@KV?$c_string_character_source@D@__crt_strtox@@$0A@@__crt_strtox@@YAKAAV__crt_cached_ptd_host@@V?$c_string_character_source@D@0@H_N@Z 1005e915 f i libucrt:output.obj
 0001:0005dba7       ??$parse_integer@KV?$c_string_character_source@_W@__crt_strtox@@$0A@@__crt_strtox@@YAKAAV__crt_cached_ptd_host@@V?$c_string_character_source@_W@0@H_N@Z 1005eba7 f i libucrt:output.obj
 0001:0005e2ee       ??$peek_va_arg@C@__crt_stdio_output@@YACPAD@Z 1005f2ee f i libucrt:output.obj
 0001:0005e2fd       ??$peek_va_arg@E@__crt_stdio_output@@YAEPAD@Z 1005f2fd f i libucrt:output.obj
 0001:0005e30c       ??$peek_va_arg@F@__crt_stdio_output@@YAFPAD@Z 1005f30c f i libucrt:output.obj
 0001:0005e31c       ??$peek_va_arg@G@__crt_stdio_output@@YAGPAD@Z 1005f31c f i libucrt:output.obj
 0001:0005e32c       ??$peek_va_arg@H@__crt_stdio_output@@YAHPAD@Z 1005f32c f i libucrt:output.obj
 0001:0005e33b       ??$peek_va_arg@I@__crt_stdio_output@@YAIPAD@Z 1005f33b f i libucrt:output.obj
 0001:0005e34a       ??$peek_va_arg@PAD@__crt_stdio_output@@YAPADPAD@Z 1005f34a f i libucrt:output.obj
 0001:0005e359       ??$peek_va_arg@PAUansi_string@?1??type_case_Z@?$output_processor@DV?$stream_output_adapter@D@__crt_stdio_output@@V?$positional_parameter_base@DV?$stream_output_adapter@D@__crt_stdio_output@@@2@@__crt_stdio_output@@AAE_NXZ@@__crt_stdio_output@@YAPAUansi_string@?1??type_case_Z@?$output_processor@DV?$stream_output_adapter@D@__crt_stdio_output@@V?$positional_parameter_base@DV?$stream_output_adapter@D@__crt_stdio_output@@@2@@0@AAE_NXZ@PAD@Z 1005f359 f i libucrt:output.obj
 0001:0005e368       ??$peek_va_arg@PAUansi_string@?1??type_case_Z@?$output_processor@DV?$string_output_adapter@D@__crt_stdio_output@@V?$positional_parameter_base@DV?$string_output_adapter@D@__crt_stdio_output@@@2@@__crt_stdio_output@@AAE_NXZ@@__crt_stdio_output@@YAPAUansi_string@?1??type_case_Z@?$output_processor@DV?$string_output_adapter@D@__crt_stdio_output@@V?$positional_parameter_base@DV?$string_output_adapter@D@__crt_stdio_output@@@2@@0@AAE_NXZ@PAD@Z 1005f368 f i libucrt:output.obj
 0001:0005e377       ??$peek_va_arg@PAUansi_string@?1??type_case_Z@?$output_processor@_WV?$stream_output_adapter@_W@__crt_stdio_output@@V?$positional_parameter_base@_WV?$stream_output_adapter@_W@__crt_stdio_output@@@2@@__crt_stdio_output@@AAE_NXZ@@__crt_stdio_output@@YAPAUansi_string@?1??type_case_Z@?$output_processor@_WV?$stream_output_adapter@_W@__crt_stdio_output@@V?$positional_parameter_base@_WV?$stream_output_adapter@_W@__crt_stdio_output@@@2@@0@AAE_NXZ@PAD@Z 1005f377 f i libucrt:output.obj
 0001:0005e386       ??$peek_va_arg@PAUansi_string@?1??type_case_Z@?$output_processor@_WV?$string_output_adapter@_W@__crt_stdio_output@@V?$positional_parameter_base@_WV?$string_output_adapter@_W@__crt_stdio_output@@@2@@__crt_stdio_output@@AAE_NXZ@@__crt_stdio_output@@YAPAUansi_string@?1??type_case_Z@?$output_processor@_WV?$string_output_adapter@_W@__crt_stdio_output@@V?$positional_parameter_base@_WV?$string_output_adapter@_W@__crt_stdio_output@@@2@@0@AAE_NXZ@PAD@Z 1005f386 f i libucrt:output.obj
 0001:0005e395       ??$peek_va_arg@PAX@__crt_stdio_output@@YAPAXPAD@Z 1005f395 f i libucrt:output.obj
 0001:0005e3a4       ??$peek_va_arg@U_CRT_DOUBLE@@@__crt_stdio_output@@YA?AU_CRT_DOUBLE@@PAD@Z 1005f3a4 f i libucrt:output.obj
 0001:0005e3b6       ??$peek_va_arg@_J@__crt_stdio_output@@YA_JPAD@Z 1005f3b6 f i libucrt:output.obj
 0001:0005e3c8       ??$peek_va_arg@_K@__crt_stdio_output@@YA_KPAD@Z 1005f3c8 f i libucrt:output.obj
 0001:0005e3da       ??$peek_va_arg@_W@__crt_stdio_output@@YA_WPAD@Z 1005f3da f i libucrt:output.obj
 0001:0005e3ea       ??$puttc_nolock_internal@ABDPAU_iobuf@@AAV__crt_cached_ptd_host@@@?$__crt_char_traits@D@@SAHABD$$QAPAU_iobuf@@AAV__crt_cached_ptd_host@@@Z 1005f3ea f i libucrt:output.obj
 0001:0005e40f       ??$puttc_nolock_internal@AB_WPAU_iobuf@@AAV__crt_cached_ptd_host@@@?$__crt_char_traits@_W@@SAGAB_W$$QAPAU_iobuf@@AAV__crt_cached_ptd_host@@@Z 1005f40f f i libucrt:output.obj
 0001:0005e434       ??$read_va_arg@C@__crt_stdio_output@@YACAAPAD@Z 1005f434 f i libucrt:output.obj
 0001:0005e44b       ??$read_va_arg@E@__crt_stdio_output@@YAEAAPAD@Z 1005f44b f i libucrt:output.obj
 0001:0005e462       ??$read_va_arg@F@__crt_stdio_output@@YAFAAPAD@Z 1005f462 f i libucrt:output.obj
 0001:0005e47b       ??$read_va_arg@G@__crt_stdio_output@@YAGAAPAD@Z 1005f47b f i libucrt:output.obj
 0001:0005e494       ??$read_va_arg@H@__crt_stdio_output@@YAHAAPAD@Z 1005f494 f i libucrt:output.obj
 0001:0005e4ab       ??$read_va_arg@I@__crt_stdio_output@@YAIAAPAD@Z 1005f4ab f i libucrt:output.obj
 0001:0005e4c2       ??$read_va_arg@PAD@__crt_stdio_output@@YAPADAAPAD@Z 1005f4c2 f i libucrt:output.obj
 0001:0005e4d9       ??$read_va_arg@PAUansi_string@?1??type_case_Z@?$output_processor@DV?$stream_output_adapter@D@__crt_stdio_output@@V?$format_validation_base@DV?$stream_output_adapter@D@__crt_stdio_output@@@2@@__crt_stdio_output@@AAE_NXZ@@__crt_stdio_output@@YAPAUansi_string@?1??type_case_Z@?$output_processor@DV?$stream_output_adapter@D@__crt_stdio_output@@V?$format_validation_base@DV?$stream_output_adapter@D@__crt_stdio_output@@@2@@0@AAE_NXZ@AAPAD@Z 1005f4d9 f i libucrt:output.obj
 0001:0005e4f0       ??$read_va_arg@PAUansi_string@?1??type_case_Z@?$output_processor@DV?$stream_output_adapter@D@__crt_stdio_output@@V?$positional_parameter_base@DV?$stream_output_adapter@D@__crt_stdio_output@@@2@@__crt_stdio_output@@AAE_NXZ@@__crt_stdio_output@@YAPAUansi_string@?1??type_case_Z@?$output_processor@DV?$stream_output_adapter@D@__crt_stdio_output@@V?$positional_parameter_base@DV?$stream_output_adapter@D@__crt_stdio_output@@@2@@0@AAE_NXZ@AAPAD@Z 1005f4f0 f i libucrt:output.obj
 0001:0005e507       ??$read_va_arg@PAUansi_string@?1??type_case_Z@?$output_processor@DV?$stream_output_adapter@D@__crt_stdio_output@@V?$standard_base@DV?$stream_output_adapter@D@__crt_stdio_output@@@2@@__crt_stdio_output@@AAE_NXZ@@__crt_stdio_output@@YAPAUansi_string@?1??type_case_Z@?$output_processor@DV?$stream_output_adapter@D@__crt_stdio_output@@V?$standard_base@DV?$stream_output_adapter@D@__crt_stdio_output@@@2@@0@AAE_NXZ@AAPAD@Z 1005f507 f i libucrt:output.obj
 0001:0005e51e       ??$read_va_arg@PAUansi_string@?1??type_case_Z@?$output_processor@DV?$string_output_adapter@D@__crt_stdio_output@@V?$format_validation_base@DV?$string_output_adapter@D@__crt_stdio_output@@@2@@__crt_stdio_output@@AAE_NXZ@@__crt_stdio_output@@YAPAUansi_string@?1??type_case_Z@?$output_processor@DV?$string_output_adapter@D@__crt_stdio_output@@V?$format_validation_base@DV?$string_output_adapter@D@__crt_stdio_output@@@2@@0@AAE_NXZ@AAPAD@Z 1005f51e f i libucrt:output.obj
 0001:0005e535       ??$read_va_arg@PAUansi_string@?1??type_case_Z@?$output_processor@DV?$string_output_adapter@D@__crt_stdio_output@@V?$positional_parameter_base@DV?$string_output_adapter@D@__crt_stdio_output@@@2@@__crt_stdio_output@@AAE_NXZ@@__crt_stdio_output@@YAPAUansi_string@?1??type_case_Z@?$output_processor@DV?$string_output_adapter@D@__crt_stdio_output@@V?$positional_parameter_base@DV?$string_output_adapter@D@__crt_stdio_output@@@2@@0@AAE_NXZ@AAPAD@Z 1005f535 f i libucrt:output.obj
 0001:0005e54c       ??$read_va_arg@PAUansi_string@?1??type_case_Z@?$output_processor@DV?$string_output_adapter@D@__crt_stdio_output@@V?$standard_base@DV?$string_output_adapter@D@__crt_stdio_output@@@2@@__crt_stdio_output@@AAE_NXZ@@__crt_stdio_output@@YAPAUansi_string@?1??type_case_Z@?$output_processor@DV?$string_output_adapter@D@__crt_stdio_output@@V?$standard_base@DV?$string_output_adapter@D@__crt_stdio_output@@@2@@0@AAE_NXZ@AAPAD@Z 1005f54c f i libucrt:output.obj
 0001:0005e563       ??$read_va_arg@PAUansi_string@?1??type_case_Z@?$output_processor@_WV?$stream_output_adapter@_W@__crt_stdio_output@@V?$format_validation_base@_WV?$stream_output_adapter@_W@__crt_stdio_output@@@2@@__crt_stdio_output@@AAE_NXZ@@__crt_stdio_output@@YAPAUansi_string@?1??type_case_Z@?$output_processor@_WV?$stream_output_adapter@_W@__crt_stdio_output@@V?$format_validation_base@_WV?$stream_output_adapter@_W@__crt_stdio_output@@@2@@0@AAE_NXZ@AAPAD@Z 1005f563 f i libucrt:output.obj
 0001:0005e57a       ??$read_va_arg@PAUansi_string@?1??type_case_Z@?$output_processor@_WV?$stream_output_adapter@_W@__crt_stdio_output@@V?$positional_parameter_base@_WV?$stream_output_adapter@_W@__crt_stdio_output@@@2@@__crt_stdio_output@@AAE_NXZ@@__crt_stdio_output@@YAPAUansi_string@?1??type_case_Z@?$output_processor@_WV?$stream_output_adapter@_W@__crt_stdio_output@@V?$positional_parameter_base@_WV?$stream_output_adapter@_W@__crt_stdio_output@@@2@@0@AAE_NXZ@AAPAD@Z 1005f57a f i libucrt:output.obj
 0001:0005e591       ??$read_va_arg@PAUansi_string@?1??type_case_Z@?$output_processor@_WV?$stream_output_adapter@_W@__crt_stdio_output@@V?$standard_base@_WV?$stream_output_adapter@_W@__crt_stdio_output@@@2@@__crt_stdio_output@@AAE_NXZ@@__crt_stdio_output@@YAPAUansi_string@?1??type_case_Z@?$output_processor@_WV?$stream_output_adapter@_W@__crt_stdio_output@@V?$standard_base@_WV?$stream_output_adapter@_W@__crt_stdio_output@@@2@@0@AAE_NXZ@AAPAD@Z 1005f591 f i libucrt:output.obj
 0001:0005e5a8       ??$read_va_arg@PAUansi_string@?1??type_case_Z@?$output_processor@_WV?$string_output_adapter@_W@__crt_stdio_output@@V?$format_validation_base@_WV?$string_output_adapter@_W@__crt_stdio_output@@@2@@__crt_stdio_output@@AAE_NXZ@@__crt_stdio_output@@YAPAUansi_string@?1??type_case_Z@?$output_processor@_WV?$string_output_adapter@_W@__crt_stdio_output@@V?$format_validation_base@_WV?$string_output_adapter@_W@__crt_stdio_output@@@2@@0@AAE_NXZ@AAPAD@Z 1005f5a8 f i libucrt:output.obj
 0001:0005e5bf       ??$read_va_arg@PAUansi_string@?1??type_case_Z@?$output_processor@_WV?$string_output_adapter@_W@__crt_stdio_output@@V?$positional_parameter_base@_WV?$string_output_adapter@_W@__crt_stdio_output@@@2@@__crt_stdio_output@@AAE_NXZ@@__crt_stdio_output@@YAPAUansi_string@?1??type_case_Z@?$output_processor@_WV?$string_output_adapter@_W@__crt_stdio_output@@V?$positional_parameter_base@_WV?$string_output_adapter@_W@__crt_stdio_output@@@2@@0@AAE_NXZ@AAPAD@Z 1005f5bf f i libucrt:output.obj
 0001:0005e5d6       ??$read_va_arg@PAUansi_string@?1??type_case_Z@?$output_processor@_WV?$string_output_adapter@_W@__crt_stdio_output@@V?$standard_base@_WV?$string_output_adapter@_W@__crt_stdio_output@@@2@@__crt_stdio_output@@AAE_NXZ@@__crt_stdio_output@@YAPAUansi_string@?1??type_case_Z@?$output_processor@_WV?$string_output_adapter@_W@__crt_stdio_output@@V?$standard_base@_WV?$string_output_adapter@_W@__crt_stdio_output@@@2@@0@AAE_NXZ@AAPAD@Z 1005f5d6 f i libucrt:output.obj
 0001:0005e5ed       ??$read_va_arg@PAX@__crt_stdio_output@@YAPAXAAPAD@Z 1005f5ed f i libucrt:output.obj
 0001:0005e604       ??$read_va_arg@U_CRT_DOUBLE@@@__crt_stdio_output@@YA?AU_CRT_DOUBLE@@AAPAD@Z 1005f604 f i libucrt:output.obj
 0001:0005e61f       ??$read_va_arg@_J@__crt_stdio_output@@YA_JAAPAD@Z 1005f61f f i libucrt:output.obj
 0001:0005e63a       ??$read_va_arg@_K@__crt_stdio_output@@YA_KAAPAD@Z 1005f63a f i libucrt:output.obj
 0001:0005e655       ??$read_va_arg@_W@__crt_stdio_output@@YA_WAAPAD@Z 1005f655 f i libucrt:output.obj
 0001:0005e66e       ??$scratch_count@D@formatting_buffer@__crt_stdio_output@@QBEIXZ 1005f66e f i libucrt:output.obj
 0001:0005e673       ??$scratch_data@D@formatting_buffer@__crt_stdio_output@@QAEPADXZ 1005f673 f i libucrt:output.obj
 0001:0005e698       ??$type_case_integer@$07@?$output_processor@DV?$stream_output_adapter@D@__crt_stdio_output@@V?$format_validation_base@DV?$stream_output_adapter@D@__crt_stdio_output@@@2@@__crt_stdio_output@@AAE_N_N@Z 1005f698 f i libucrt:output.obj
 0001:0005e888       ??$type_case_integer@$07@?$output_processor@DV?$stream_output_adapter@D@__crt_stdio_output@@V?$positional_parameter_base@DV?$stream_output_adapter@D@__crt_stdio_output@@@2@@__crt_stdio_output@@AAE_N_N@Z 1005f888 f i libucrt:output.obj
 0001:0005ea8b       ??$type_case_integer@$07@?$output_processor@DV?$stream_output_adapter@D@__crt_stdio_output@@V?$standard_base@DV?$stream_output_adapter@D@__crt_stdio_output@@@2@@__crt_stdio_output@@AAE_N_N@Z 1005fa8b f i libucrt:output.obj
 0001:0005ec7b       ??$type_case_integer@$07@?$output_processor@DV?$string_output_adapter@D@__crt_stdio_output@@V?$format_validation_base@DV?$string_output_adapter@D@__crt_stdio_output@@@2@@__crt_stdio_output@@AAE_N_N@Z 1005fc7b f i libucrt:output.obj
 0001:0005ee6b       ??$type_case_integer@$07@?$output_processor@DV?$string_output_adapter@D@__crt_stdio_output@@V?$positional_parameter_base@DV?$string_output_adapter@D@__crt_stdio_output@@@2@@__crt_stdio_output@@AAE_N_N@Z 1005fe6b f i libucrt:output.obj
 0001:0005f06e       ??$type_case_integer@$07@?$output_processor@DV?$string_output_adapter@D@__crt_stdio_output@@V?$standard_base@DV?$string_output_adapter@D@__crt_stdio_output@@@2@@__crt_stdio_output@@AAE_N_N@Z 1006006e f i libucrt:output.obj
 0001:0005f25e       ??$type_case_integer@$07@?$output_processor@_WV?$stream_output_adapter@_W@__crt_stdio_output@@V?$format_validation_base@_WV?$stream_output_adapter@_W@__crt_stdio_output@@@2@@__crt_stdio_output@@AAE_N_N@Z 1006025e f i libucrt:output.obj
 0001:0005f454       ??$type_case_integer@$07@?$output_processor@_WV?$stream_output_adapter@_W@__crt_stdio_output@@V?$positional_parameter_base@_WV?$stream_output_adapter@_W@__crt_stdio_output@@@2@@__crt_stdio_output@@AAE_N_N@Z 10060454 f i libucrt:output.obj
 0001:0005f65c       ??$type_case_integer@$07@?$output_processor@_WV?$stream_output_adapter@_W@__crt_stdio_output@@V?$standard_base@_WV?$stream_output_adapter@_W@__crt_stdio_output@@@2@@__crt_stdio_output@@AAE_N_N@Z 1006065c f i libucrt:output.obj
 0001:0005f852       ??$type_case_integer@$07@?$output_processor@_WV?$string_output_adapter@_W@__crt_stdio_output@@V?$format_validation_base@_WV?$string_output_adapter@_W@__crt_stdio_output@@@2@@__crt_stdio_output@@AAE_N_N@Z 10060852 f i libucrt:output.obj
 0001:0005fa48       ??$type_case_integer@$07@?$output_processor@_WV?$string_output_adapter@_W@__crt_stdio_output@@V?$positional_parameter_base@_WV?$string_output_adapter@_W@__crt_stdio_output@@@2@@__crt_stdio_output@@AAE_N_N@Z 10060a48 f i libucrt:output.obj
 0001:0005fc50       ??$type_case_integer@$07@?$output_processor@_WV?$string_output_adapter@_W@__crt_stdio_output@@V?$standard_base@_WV?$string_output_adapter@_W@__crt_stdio_output@@@2@@__crt_stdio_output@@AAE_N_N@Z 10060c50 f i libucrt:output.obj
 0001:0005fe46       ??$type_case_integer@$09@?$output_processor@DV?$stream_output_adapter@D@__crt_stdio_output@@V?$format_validation_base@DV?$stream_output_adapter@D@__crt_stdio_output@@@2@@__crt_stdio_output@@AAE_N_N@Z 10060e46 f i libucrt:output.obj
 0001:00060036       ??$type_case_integer@$09@?$output_processor@DV?$stream_output_adapter@D@__crt_stdio_output@@V?$positional_parameter_base@DV?$stream_output_adapter@D@__crt_stdio_output@@@2@@__crt_stdio_output@@AAE_N_N@Z 10061036 f i libucrt:output.obj
 0001:00060239       ??$type_case_integer@$09@?$output_processor@DV?$stream_output_adapter@D@__crt_stdio_output@@V?$standard_base@DV?$stream_output_adapter@D@__crt_stdio_output@@@2@@__crt_stdio_output@@AAE_N_N@Z 10061239 f i libucrt:output.obj
 0001:00060429       ??$type_case_integer@$09@?$output_processor@DV?$string_output_adapter@D@__crt_stdio_output@@V?$format_validation_base@DV?$string_output_adapter@D@__crt_stdio_output@@@2@@__crt_stdio_output@@AAE_N_N@Z 10061429 f i libucrt:output.obj
 0001:00060619       ??$type_case_integer@$09@?$output_processor@DV?$string_output_adapter@D@__crt_stdio_output@@V?$positional_parameter_base@DV?$string_output_adapter@D@__crt_stdio_output@@@2@@__crt_stdio_output@@AAE_N_N@Z 10061619 f i libucrt:output.obj
 0001:0006081c       ??$type_case_integer@$09@?$output_processor@DV?$string_output_adapter@D@__crt_stdio_output@@V?$standard_base@DV?$string_output_adapter@D@__crt_stdio_output@@@2@@__crt_stdio_output@@AAE_N_N@Z 1006181c f i libucrt:output.obj
 0001:00060a0c       ??$type_case_integer@$09@?$output_processor@_WV?$stream_output_adapter@_W@__crt_stdio_output@@V?$format_validation_base@_WV?$stream_output_adapter@_W@__crt_stdio_output@@@2@@__crt_stdio_output@@AAE_N_N@Z 10061a0c f i libucrt:output.obj
 0001:00060c02       ??$type_case_integer@$09@?$output_processor@_WV?$stream_output_adapter@_W@__crt_stdio_output@@V?$positional_parameter_base@_WV?$stream_output_adapter@_W@__crt_stdio_output@@@2@@__crt_stdio_output@@AAE_N_N@Z 10061c02 f i libucrt:output.obj
 0001:00060e0a       ??$type_case_integer@$09@?$output_processor@_WV?$stream_output_adapter@_W@__crt_stdio_output@@V?$standard_base@_WV?$stream_output_adapter@_W@__crt_stdio_output@@@2@@__crt_stdio_output@@AAE_N_N@Z 10061e0a f i libucrt:output.obj
 0001:00061000       ??$type_case_integer@$09@?$output_processor@_WV?$string_output_adapter@_W@__crt_stdio_output@@V?$format_validation_base@_WV?$string_output_adapter@_W@__crt_stdio_output@@@2@@__crt_stdio_output@@AAE_N_N@Z 10062000 f i libucrt:output.obj
 0001:000611f6       ??$type_case_integer@$09@?$output_processor@_WV?$string_output_adapter@_W@__crt_stdio_output@@V?$positional_parameter_base@_WV?$string_output_adapter@_W@__crt_stdio_output@@@2@@__crt_stdio_output@@AAE_N_N@Z 100621f6 f i libucrt:output.obj
 0001:000613fe       ??$type_case_integer@$09@?$output_processor@_WV?$string_output_adapter@_W@__crt_stdio_output@@V?$standard_base@_WV?$string_output_adapter@_W@__crt_stdio_output@@@2@@__crt_stdio_output@@AAE_N_N@Z 100623fe f i libucrt:output.obj
 0001:000615f4       ??$type_case_integer@$0BA@@?$output_processor@DV?$stream_output_adapter@D@__crt_stdio_output@@V?$format_validation_base@DV?$stream_output_adapter@D@__crt_stdio_output@@@2@@__crt_stdio_output@@AAE_N_N@Z 100625f4 f i libucrt:output.obj
 0001:000617e4       ??$type_case_integer@$0BA@@?$output_processor@DV?$stream_output_adapter@D@__crt_stdio_output@@V?$positional_parameter_base@DV?$stream_output_adapter@D@__crt_stdio_output@@@2@@__crt_stdio_output@@AAE_N_N@Z 100627e4 f i libucrt:output.obj
 0001:000619e7       ??$type_case_integer@$0BA@@?$output_processor@DV?$stream_output_adapter@D@__crt_stdio_output@@V?$standard_base@DV?$stream_output_adapter@D@__crt_stdio_output@@@2@@__crt_stdio_output@@AAE_N_N@Z 100629e7 f i libucrt:output.obj
 0001:00061bd7       ??$type_case_integer@$0BA@@?$output_processor@DV?$string_output_adapter@D@__crt_stdio_output@@V?$format_validation_base@DV?$string_output_adapter@D@__crt_stdio_output@@@2@@__crt_stdio_output@@AAE_N_N@Z 10062bd7 f i libucrt:output.obj
 0001:00061dc7       ??$type_case_integer@$0BA@@?$output_processor@DV?$string_output_adapter@D@__crt_stdio_output@@V?$positional_parameter_base@DV?$string_output_adapter@D@__crt_stdio_output@@@2@@__crt_stdio_output@@AAE_N_N@Z 10062dc7 f i libucrt:output.obj
 0001:00061fca       ??$type_case_integer@$0BA@@?$output_processor@DV?$string_output_adapter@D@__crt_stdio_output@@V?$standard_base@DV?$string_output_adapter@D@__crt_stdio_output@@@2@@__crt_stdio_output@@AAE_N_N@Z 10062fca f i libucrt:output.obj
 0001:000621ba       ??$type_case_integer@$0BA@@?$output_processor@_WV?$stream_output_adapter@_W@__crt_stdio_output@@V?$format_validation_base@_WV?$stream_output_adapter@_W@__crt_stdio_output@@@2@@__crt_stdio_output@@AAE_N_N@Z 100631ba f i libucrt:output.obj
 0001:000623b0       ??$type_case_integer@$0BA@@?$output_processor@_WV?$stream_output_adapter@_W@__crt_stdio_output@@V?$positional_parameter_base@_WV?$stream_output_adapter@_W@__crt_stdio_output@@@2@@__crt_stdio_output@@AAE_N_N@Z 100633b0 f i libucrt:output.obj
 0001:000625b8       ??$type_case_integer@$0BA@@?$output_processor@_WV?$stream_output_adapter@_W@__crt_stdio_output@@V?$standard_base@_WV?$stream_output_adapter@_W@__crt_stdio_output@@@2@@__crt_stdio_output@@AAE_N_N@Z 100635b8 f i libucrt:output.obj
 0001:000627ae       ??$type_case_integer@$0BA@@?$output_processor@_WV?$string_output_adapter@_W@__crt_stdio_output@@V?$format_validation_base@_WV?$string_output_adapter@_W@__crt_stdio_output@@@2@@__crt_stdio_output@@AAE_N_N@Z 100637ae f i libucrt:output.obj
 0001:000629a4       ??$type_case_integer@$0BA@@?$output_processor@_WV?$string_output_adapter@_W@__crt_stdio_output@@V?$positional_parameter_base@_WV?$string_output_adapter@_W@__crt_stdio_output@@@2@@__crt_stdio_output@@AAE_N_N@Z 100639a4 f i libucrt:output.obj
 0001:00062bac       ??$type_case_integer@$0BA@@?$output_processor@_WV?$string_output_adapter@_W@__crt_stdio_output@@V?$standard_base@_WV?$string_output_adapter@_W@__crt_stdio_output@@@2@@__crt_stdio_output@@AAE_N_N@Z 10063bac f i libucrt:output.obj
 0001:00062da2       ??$type_case_integer_parse_into_buffer@I$07@?$output_processor@DV?$stream_output_adapter@D@__crt_stdio_output@@V?$format_validation_base@DV?$stream_output_adapter@D@__crt_stdio_output@@@2@@__crt_stdio_output@@AAEXI_N@Z 10063da2 f i libucrt:output.obj
 0001:00062e1d       ??$type_case_integer_parse_into_buffer@I$07@?$output_processor@DV?$stream_output_adapter@D@__crt_stdio_output@@V?$positional_parameter_base@DV?$stream_output_adapter@D@__crt_stdio_output@@@2@@__crt_stdio_output@@AAEXI_N@Z 10063e1d f i libucrt:output.obj
 0001:00062e98       ??$type_case_integer_parse_into_buffer@I$07@?$output_processor@DV?$stream_output_adapter@D@__crt_stdio_output@@V?$standard_base@DV?$stream_output_adapter@D@__crt_stdio_output@@@2@@__crt_stdio_output@@AAEXI_N@Z 10063e98 f i libucrt:output.obj
 0001:00062f13       ??$type_case_integer_parse_into_buffer@I$07@?$output_processor@DV?$string_output_adapter@D@__crt_stdio_output@@V?$format_validation_base@DV?$string_output_adapter@D@__crt_stdio_output@@@2@@__crt_stdio_output@@AAEXI_N@Z 10063f13 f i libucrt:output.obj
 0001:00062f8e       ??$type_case_integer_parse_into_buffer@I$07@?$output_processor@DV?$string_output_adapter@D@__crt_stdio_output@@V?$positional_parameter_base@DV?$string_output_adapter@D@__crt_stdio_output@@@2@@__crt_stdio_output@@AAEXI_N@Z 10063f8e f i libucrt:output.obj
 0001:00063009       ??$type_case_integer_parse_into_buffer@I$07@?$output_processor@DV?$string_output_adapter@D@__crt_stdio_output@@V?$standard_base@DV?$string_output_adapter@D@__crt_stdio_output@@@2@@__crt_stdio_output@@AAEXI_N@Z 10064009 f i libucrt:output.obj
 0001:00063084       ??$type_case_integer_parse_into_buffer@I$07@?$output_processor@_WV?$stream_output_adapter@_W@__crt_stdio_output@@V?$format_validation_base@_WV?$stream_output_adapter@_W@__crt_stdio_output@@@2@@__crt_stdio_output@@AAEXI_N@Z 10064084 f i libucrt:output.obj
 0001:00063113       ??$type_case_integer_parse_into_buffer@I$07@?$output_processor@_WV?$stream_output_adapter@_W@__crt_stdio_output@@V?$positional_parameter_base@_WV?$stream_output_adapter@_W@__crt_stdio_output@@@2@@__crt_stdio_output@@AAEXI_N@Z 10064113 f i libucrt:output.obj
 0001:000631a2       ??$type_case_integer_parse_into_buffer@I$07@?$output_processor@_WV?$stream_output_adapter@_W@__crt_stdio_output@@V?$standard_base@_WV?$stream_output_adapter@_W@__crt_stdio_output@@@2@@__crt_stdio_output@@AAEXI_N@Z 100641a2 f i libucrt:output.obj
 0001:00063231       ??$type_case_integer_parse_into_buffer@I$07@?$output_processor@_WV?$string_output_adapter@_W@__crt_stdio_output@@V?$format_validation_base@_WV?$string_output_adapter@_W@__crt_stdio_output@@@2@@__crt_stdio_output@@AAEXI_N@Z 10064231 f i libucrt:output.obj
 0001:000632c0       ??$type_case_integer_parse_into_buffer@I$07@?$output_processor@_WV?$string_output_adapter@_W@__crt_stdio_output@@V?$positional_parameter_base@_WV?$string_output_adapter@_W@__crt_stdio_output@@@2@@__crt_stdio_output@@AAEXI_N@Z 100642c0 f i libucrt:output.obj
 0001:0006334f       ??$type_case_integer_parse_into_buffer@I$07@?$output_processor@_WV?$string_output_adapter@_W@__crt_stdio_output@@V?$standard_base@_WV?$string_output_adapter@_W@__crt_stdio_output@@@2@@__crt_stdio_output@@AAEXI_N@Z 1006434f f i libucrt:output.obj
 0001:000633de       ??$type_case_integer_parse_into_buffer@I$09@?$output_processor@DV?$stream_output_adapter@D@__crt_stdio_output@@V?$format_validation_base@DV?$stream_output_adapter@D@__crt_stdio_output@@@2@@__crt_stdio_output@@AAEXI_N@Z 100643de f i libucrt:output.obj
 0001:00063486       ??$type_case_integer_parse_into_buffer@I$09@?$output_processor@DV?$stream_output_adapter@D@__crt_stdio_output@@V?$positional_parameter_base@DV?$stream_output_adapter@D@__crt_stdio_output@@@2@@__crt_stdio_output@@AAEXI_N@Z 10064486 f i libucrt:output.obj
 0001:0006352e       ??$type_case_integer_parse_into_buffer@I$09@?$output_processor@DV?$stream_output_adapter@D@__crt_stdio_output@@V?$standard_base@DV?$stream_output_adapter@D@__crt_stdio_output@@@2@@__crt_stdio_output@@AAEXI_N@Z 1006452e f i libucrt:output.obj
 0001:000635d6       ??$type_case_integer_parse_into_buffer@I$09@?$output_processor@DV?$string_output_adapter@D@__crt_stdio_output@@V?$format_validation_base@DV?$string_output_adapter@D@__crt_stdio_output@@@2@@__crt_stdio_output@@AAEXI_N@Z 100645d6 f i libucrt:output.obj
 0001:0006367e       ??$type_case_integer_parse_into_buffer@I$09@?$output_processor@DV?$string_output_adapter@D@__crt_stdio_output@@V?$positional_parameter_base@DV?$string_output_adapter@D@__crt_stdio_output@@@2@@__crt_stdio_output@@AAEXI_N@Z 1006467e f i libucrt:output.obj
 0001:00063726       ??$type_case_integer_parse_into_buffer@I$09@?$output_processor@DV?$string_output_adapter@D@__crt_stdio_output@@V?$standard_base@DV?$string_output_adapter@D@__crt_stdio_output@@@2@@__crt_stdio_output@@AAEXI_N@Z 10064726 f i libucrt:output.obj
 0001:000637ce       ??$type_case_integer_parse_into_buffer@I$09@?$output_processor@_WV?$stream_output_adapter@_W@__crt_stdio_output@@V?$format_validation_base@_WV?$stream_output_adapter@_W@__crt_stdio_output@@@2@@__crt_stdio_output@@AAEXI_N@Z 100647ce f i libucrt:output.obj
 0001:00063891       ??$type_case_integer_parse_into_buffer@I$09@?$output_processor@_WV?$stream_output_adapter@_W@__crt_stdio_output@@V?$positional_parameter_base@_WV?$stream_output_adapter@_W@__crt_stdio_output@@@2@@__crt_stdio_output@@AAEXI_N@Z 10064891 f i libucrt:output.obj
 0001:00063954       ??$type_case_integer_parse_into_buffer@I$09@?$output_processor@_WV?$stream_output_adapter@_W@__crt_stdio_output@@V?$standard_base@_WV?$stream_output_adapter@_W@__crt_stdio_output@@@2@@__crt_stdio_output@@AAEXI_N@Z 10064954 f i libucrt:output.obj
 0001:00063a17       ??$type_case_integer_parse_into_buffer@I$09@?$output_processor@_WV?$string_output_adapter@_W@__crt_stdio_output@@V?$format_validation_base@_WV?$string_output_adapter@_W@__crt_stdio_output@@@2@@__crt_stdio_output@@AAEXI_N@Z 10064a17 f i libucrt:output.obj
 0001:00063ada       ??$type_case_integer_parse_into_buffer@I$09@?$output_processor@_WV?$string_output_adapter@_W@__crt_stdio_output@@V?$positional_parameter_base@_WV?$string_output_adapter@_W@__crt_stdio_output@@@2@@__crt_stdio_output@@AAEXI_N@Z 10064ada f i libucrt:output.obj
 0001:00063b9d       ??$type_case_integer_parse_into_buffer@I$09@?$output_processor@_WV?$string_output_adapter@_W@__crt_stdio_output@@V?$standard_base@_WV?$string_output_adapter@_W@__crt_stdio_output@@@2@@__crt_stdio_output@@AAEXI_N@Z 10064b9d f i libucrt:output.obj
 0001:00063c60       ??$type_case_integer_parse_into_buffer@I$0BA@@?$output_processor@DV?$stream_output_adapter@D@__crt_stdio_output@@V?$format_validation_base@DV?$stream_output_adapter@D@__crt_stdio_output@@@2@@__crt_stdio_output@@AAEXI_N@Z 10064c60 f i libucrt:output.obj
 0001:00063cfc       ??$type_case_integer_parse_into_buffer@I$0BA@@?$output_processor@DV?$stream_output_adapter@D@__crt_stdio_output@@V?$positional_parameter_base@DV?$stream_output_adapter@D@__crt_stdio_output@@@2@@__crt_stdio_output@@AAEXI_N@Z 10064cfc f i libucrt:output.obj
 0001:00063d98       ??$type_case_integer_parse_into_buffer@I$0BA@@?$output_processor@DV?$stream_output_adapter@D@__crt_stdio_output@@V?$standard_base@DV?$stream_output_adapter@D@__crt_stdio_output@@@2@@__crt_stdio_output@@AAEXI_N@Z 10064d98 f i libucrt:output.obj
 0001:00063e34       ??$type_case_integer_parse_into_buffer@I$0BA@@?$output_processor@DV?$string_output_adapter@D@__crt_stdio_output@@V?$format_validation_base@DV?$string_output_adapter@D@__crt_stdio_output@@@2@@__crt_stdio_output@@AAEXI_N@Z 10064e34 f i libucrt:output.obj
 0001:00063ed0       ??$type_case_integer_parse_into_buffer@I$0BA@@?$output_processor@DV?$string_output_adapter@D@__crt_stdio_output@@V?$positional_parameter_base@DV?$string_output_adapter@D@__crt_stdio_output@@@2@@__crt_stdio_output@@AAEXI_N@Z 10064ed0 f i libucrt:output.obj
 0001:00063f6c       ??$type_case_integer_parse_into_buffer@I$0BA@@?$output_processor@DV?$string_output_adapter@D@__crt_stdio_output@@V?$standard_base@DV?$string_output_adapter@D@__crt_stdio_output@@@2@@__crt_stdio_output@@AAEXI_N@Z 10064f6c f i libucrt:output.obj
 0001:00064008       ??$type_case_integer_parse_into_buffer@I$0BA@@?$output_processor@_WV?$stream_output_adapter@_W@__crt_stdio_output@@V?$format_validation_base@_WV?$stream_output_adapter@_W@__crt_stdio_output@@@2@@__crt_stdio_output@@AAEXI_N@Z 10065008 f i libucrt:output.obj
 0001:000640b4       ??$type_case_integer_parse_into_buffer@I$0BA@@?$output_processor@_WV?$stream_output_adapter@_W@__crt_stdio_output@@V?$positional_parameter_base@_WV?$stream_output_adapter@_W@__crt_stdio_output@@@2@@__crt_stdio_output@@AAEXI_N@Z 100650b4 f i libucrt:output.obj
 0001:00064160       ??$type_case_integer_parse_into_buffer@I$0BA@@?$output_processor@_WV?$stream_output_adapter@_W@__crt_stdio_output@@V?$standard_base@_WV?$stream_output_adapter@_W@__crt_stdio_output@@@2@@__crt_stdio_output@@AAEXI_N@Z 10065160 f i libucrt:output.obj
 0001:0006420c       ??$type_case_integer_parse_into_buffer@I$0BA@@?$output_processor@_WV?$string_output_adapter@_W@__crt_stdio_output@@V?$format_validation_base@_WV?$string_output_adapter@_W@__crt_stdio_output@@@2@@__crt_stdio_output@@AAEXI_N@Z 1006520c f i libucrt:output.obj
 0001:000642b8       ??$type_case_integer_parse_into_buffer@I$0BA@@?$output_processor@_WV?$string_output_adapter@_W@__crt_stdio_output@@V?$positional_parameter_base@_WV?$string_output_adapter@_W@__crt_stdio_output@@@2@@__crt_stdio_output@@AAEXI_N@Z 100652b8 f i libucrt:output.obj
 0001:00064364       ??$type_case_integer_parse_into_buffer@I$0BA@@?$output_processor@_WV?$string_output_adapter@_W@__crt_stdio_output@@V?$standard_base@_WV?$string_output_adapter@_W@__crt_stdio_output@@@2@@__crt_stdio_output@@AAEXI_N@Z 10065364 f i libucrt:output.obj
 0001:00064410       ??$type_case_integer_parse_into_buffer@_K$07@?$output_processor@DV?$stream_output_adapter@D@__crt_stdio_output@@V?$format_validation_base@DV?$stream_output_adapter@D@__crt_stdio_output@@@2@@__crt_stdio_output@@AAEX_K_N@Z 10065410 f i libucrt:output.obj
 0001:000644a6       ??$type_case_integer_parse_into_buffer@_K$07@?$output_processor@DV?$stream_output_adapter@D@__crt_stdio_output@@V?$positional_parameter_base@DV?$stream_output_adapter@D@__crt_stdio_output@@@2@@__crt_stdio_output@@AAEX_K_N@Z 100654a6 f i libucrt:output.obj
 0001:0006453c       ??$type_case_integer_parse_into_buffer@_K$07@?$output_processor@DV?$stream_output_adapter@D@__crt_stdio_output@@V?$standard_base@DV?$stream_output_adapter@D@__crt_stdio_output@@@2@@__crt_stdio_output@@AAEX_K_N@Z 1006553c f i libucrt:output.obj
 0001:000645d2       ??$type_case_integer_parse_into_buffer@_K$07@?$output_processor@DV?$string_output_adapter@D@__crt_stdio_output@@V?$format_validation_base@DV?$string_output_adapter@D@__crt_stdio_output@@@2@@__crt_stdio_output@@AAEX_K_N@Z 100655d2 f i libucrt:output.obj
 0001:00064668       ??$type_case_integer_parse_into_buffer@_K$07@?$output_processor@DV?$string_output_adapter@D@__crt_stdio_output@@V?$positional_parameter_base@DV?$string_output_adapter@D@__crt_stdio_output@@@2@@__crt_stdio_output@@AAEX_K_N@Z 10065668 f i libucrt:output.obj
 0001:000646fe       ??$type_case_integer_parse_into_buffer@_K$07@?$output_processor@DV?$string_output_adapter@D@__crt_stdio_output@@V?$standard_base@DV?$string_output_adapter@D@__crt_stdio_output@@@2@@__crt_stdio_output@@AAEX_K_N@Z 100656fe f i libucrt:output.obj
 0001:00064794       ??$type_case_integer_parse_into_buffer@_K$07@?$output_processor@_WV?$stream_output_adapter@_W@__crt_stdio_output@@V?$format_validation_base@_WV?$stream_output_adapter@_W@__crt_stdio_output@@@2@@__crt_stdio_output@@AAEX_K_N@Z 10065794 f i libucrt:output.obj
 0001:0006483c       ??$type_case_integer_parse_into_buffer@_K$07@?$output_processor@_WV?$stream_output_adapter@_W@__crt_stdio_output@@V?$positional_parameter_base@_WV?$stream_output_adapter@_W@__crt_stdio_output@@@2@@__crt_stdio_output@@AAEX_K_N@Z 1006583c f i libucrt:output.obj
 0001:000648e4       ??$type_case_integer_parse_into_buffer@_K$07@?$output_processor@_WV?$stream_output_adapter@_W@__crt_stdio_output@@V?$standard_base@_WV?$stream_output_adapter@_W@__crt_stdio_output@@@2@@__crt_stdio_output@@AAEX_K_N@Z 100658e4 f i libucrt:output.obj
 0001:0006498c       ??$type_case_integer_parse_into_buffer@_K$07@?$output_processor@_WV?$string_output_adapter@_W@__crt_stdio_output@@V?$format_validation_base@_WV?$string_output_adapter@_W@__crt_stdio_output@@@2@@__crt_stdio_output@@AAEX_K_N@Z 1006598c f i libucrt:output.obj
 0001:00064a34       ??$type_case_integer_parse_into_buffer@_K$07@?$output_processor@_WV?$string_output_adapter@_W@__crt_stdio_output@@V?$positional_parameter_base@_WV?$string_output_adapter@_W@__crt_stdio_output@@@2@@__crt_stdio_output@@AAEX_K_N@Z 10065a34 f i libucrt:output.obj
 0001:00064adc       ??$type_case_integer_parse_into_buffer@_K$07@?$output_processor@_WV?$string_output_adapter@_W@__crt_stdio_output@@V?$standard_base@_WV?$string_output_adapter@_W@__crt_stdio_output@@@2@@__crt_stdio_output@@AAEX_K_N@Z 10065adc f i libucrt:output.obj
 0001:00064b84       ??$type_case_integer_parse_into_buffer@_K$09@?$output_processor@DV?$stream_output_adapter@D@__crt_stdio_output@@V?$format_validation_base@DV?$stream_output_adapter@D@__crt_stdio_output@@@2@@__crt_stdio_output@@AAEX_K_N@Z 10065b84 f i libucrt:output.obj
 0001:00064c54       ??$type_case_integer_parse_into_buffer@_K$09@?$output_processor@DV?$stream_output_adapter@D@__crt_stdio_output@@V?$positional_parameter_base@DV?$stream_output_adapter@D@__crt_stdio_output@@@2@@__crt_stdio_output@@AAEX_K_N@Z 10065c54 f i libucrt:output.obj
 0001:00064d24       ??$type_case_integer_parse_into_buffer@_K$09@?$output_processor@DV?$stream_output_adapter@D@__crt_stdio_output@@V?$standard_base@DV?$stream_output_adapter@D@__crt_stdio_output@@@2@@__crt_stdio_output@@AAEX_K_N@Z 10065d24 f i libucrt:output.obj
 0001:00064df4       ??$type_case_integer_parse_into_buffer@_K$09@?$output_processor@DV?$string_output_adapter@D@__crt_stdio_output@@V?$format_validation_base@DV?$string_output_adapter@D@__crt_stdio_output@@@2@@__crt_stdio_output@@AAEX_K_N@Z 10065df4 f i libucrt:output.obj
 0001:00064ec4       ??$type_case_integer_parse_into_buffer@_K$09@?$output_processor@DV?$string_output_adapter@D@__crt_stdio_output@@V?$positional_parameter_base@DV?$string_output_adapter@D@__crt_stdio_output@@@2@@__crt_stdio_output@@AAEX_K_N@Z 10065ec4 f i libucrt:output.obj
 0001:00064f94       ??$type_case_integer_parse_into_buffer@_K$09@?$output_processor@DV?$string_output_adapter@D@__crt_stdio_output@@V?$standard_base@DV?$string_output_adapter@D@__crt_stdio_output@@@2@@__crt_stdio_output@@AAEX_K_N@Z 10065f94 f i libucrt:output.obj
 0001:00065064       ??$type_case_integer_parse_into_buffer@_K$09@?$output_processor@_WV?$stream_output_adapter@_W@__crt_stdio_output@@V?$format_validation_base@_WV?$stream_output_adapter@_W@__crt_stdio_output@@@2@@__crt_stdio_output@@AAEX_K_N@Z 10066064 f i libucrt:output.obj
 0001:00065150       ??$type_case_integer_parse_into_buffer@_K$09@?$output_processor@_WV?$stream_output_adapter@_W@__crt_stdio_output@@V?$positional_parameter_base@_WV?$stream_output_adapter@_W@__crt_stdio_output@@@2@@__crt_stdio_output@@AAEX_K_N@Z 10066150 f i libucrt:output.obj
 0001:0006523c       ??$type_case_integer_parse_into_buffer@_K$09@?$output_processor@_WV?$stream_output_adapter@_W@__crt_stdio_output@@V?$standard_base@_WV?$stream_output_adapter@_W@__crt_stdio_output@@@2@@__crt_stdio_output@@AAEX_K_N@Z 1006623c f i libucrt:output.obj
 0001:00065328       ??$type_case_integer_parse_into_buffer@_K$09@?$output_processor@_WV?$string_output_adapter@_W@__crt_stdio_output@@V?$format_validation_base@_WV?$string_output_adapter@_W@__crt_stdio_output@@@2@@__crt_stdio_output@@AAEX_K_N@Z 10066328 f i libucrt:output.obj
 0001:00065414       ??$type_case_integer_parse_into_buffer@_K$09@?$output_processor@_WV?$string_output_adapter@_W@__crt_stdio_output@@V?$positional_parameter_base@_WV?$string_output_adapter@_W@__crt_stdio_output@@@2@@__crt_stdio_output@@AAEX_K_N@Z 10066414 f i libucrt:output.obj
 0001:00065500       ??$type_case_integer_parse_into_buffer@_K$09@?$output_processor@_WV?$string_output_adapter@_W@__crt_stdio_output@@V?$standard_base@_WV?$string_output_adapter@_W@__crt_stdio_output@@@2@@__crt_stdio_output@@AAEX_K_N@Z 10066500 f i libucrt:output.obj
 0001:000655ec       ??$type_case_integer_parse_into_buffer@_K$0BA@@?$output_processor@DV?$stream_output_adapter@D@__crt_stdio_output@@V?$format_validation_base@DV?$stream_output_adapter@D@__crt_stdio_output@@@2@@__crt_stdio_output@@AAEX_K_N@Z 100665ec f i libucrt:output.obj
 0001:00065698       ??$type_case_integer_parse_into_buffer@_K$0BA@@?$output_processor@DV?$stream_output_adapter@D@__crt_stdio_output@@V?$positional_parameter_base@DV?$stream_output_adapter@D@__crt_stdio_output@@@2@@__crt_stdio_output@@AAEX_K_N@Z 10066698 f i libucrt:output.obj
 0001:00065744       ??$type_case_integer_parse_into_buffer@_K$0BA@@?$output_processor@DV?$stream_output_adapter@D@__crt_stdio_output@@V?$standard_base@DV?$stream_output_adapter@D@__crt_stdio_output@@@2@@__crt_stdio_output@@AAEX_K_N@Z 10066744 f i libucrt:output.obj
 0001:000657f0       ??$type_case_integer_parse_into_buffer@_K$0BA@@?$output_processor@DV?$string_output_adapter@D@__crt_stdio_output@@V?$format_validation_base@DV?$string_output_adapter@D@__crt_stdio_output@@@2@@__crt_stdio_output@@AAEX_K_N@Z 100667f0 f i libucrt:output.obj
 0001:0006589c       ??$type_case_integer_parse_into_buffer@_K$0BA@@?$output_processor@DV?$string_output_adapter@D@__crt_stdio_output@@V?$positional_parameter_base@DV?$string_output_adapter@D@__crt_stdio_output@@@2@@__crt_stdio_output@@AAEX_K_N@Z 1006689c f i libucrt:output.obj
 0001:00065948       ??$type_case_integer_parse_into_buffer@_K$0BA@@?$output_processor@DV?$string_output_adapter@D@__crt_stdio_output@@V?$standard_base@DV?$string_output_adapter@D@__crt_stdio_output@@@2@@__crt_stdio_output@@AAEX_K_N@Z 10066948 f i libucrt:output.obj
 0001:000659f4       ??$type_case_integer_parse_into_buffer@_K$0BA@@?$output_processor@_WV?$stream_output_adapter@_W@__crt_stdio_output@@V?$format_validation_base@_WV?$stream_output_adapter@_W@__crt_stdio_output@@@2@@__crt_stdio_output@@AAEX_K_N@Z 100669f4 f i libucrt:output.obj
 0001:00065aaf       ??$type_case_integer_parse_into_buffer@_K$0BA@@?$output_processor@_WV?$stream_output_adapter@_W@__crt_stdio_output@@V?$positional_parameter_base@_WV?$stream_output_adapter@_W@__crt_stdio_output@@@2@@__crt_stdio_output@@AAEX_K_N@Z 10066aaf f i libucrt:output.obj
 0001:00065b6a       ??$type_case_integer_parse_into_buffer@_K$0BA@@?$output_processor@_WV?$stream_output_adapter@_W@__crt_stdio_output@@V?$standard_base@_WV?$stream_output_adapter@_W@__crt_stdio_output@@@2@@__crt_stdio_output@@AAEX_K_N@Z 10066b6a f i libucrt:output.obj
 0001:00065c25       ??$type_case_integer_parse_into_buffer@_K$0BA@@?$output_processor@_WV?$string_output_adapter@_W@__crt_stdio_output@@V?$format_validation_base@_WV?$string_output_adapter@_W@__crt_stdio_output@@@2@@__crt_stdio_output@@AAEX_K_N@Z 10066c25 f i libucrt:output.obj
 0001:00065ce0       ??$type_case_integer_parse_into_buffer@_K$0BA@@?$output_processor@_WV?$string_output_adapter@_W@__crt_stdio_output@@V?$positional_parameter_base@_WV?$string_output_adapter@_W@__crt_stdio_output@@@2@@__crt_stdio_output@@AAEX_K_N@Z 10066ce0 f i libucrt:output.obj
 0001:00065d9b       ??$type_case_integer_parse_into_buffer@_K$0BA@@?$output_processor@_WV?$string_output_adapter@_W@__crt_stdio_output@@V?$standard_base@_WV?$string_output_adapter@_W@__crt_stdio_output@@@2@@__crt_stdio_output@@AAEX_K_N@Z 10066d9b f i libucrt:output.obj
 0001:00065e56       ??$write_multiple_characters@V?$stream_output_adapter@D@__crt_stdio_output@@D@__crt_stdio_output@@YAXABV?$stream_output_adapter@D@0@DHQAHAAV__crt_cached_ptd_host@@@Z 10066e56 f i libucrt:output.obj
 0001:00065e90       ??$write_multiple_characters@V?$stream_output_adapter@_W@__crt_stdio_output@@D@__crt_stdio_output@@YAXABV?$stream_output_adapter@_W@0@DHQAHAAV__crt_cached_ptd_host@@@Z 10066e90 f i libucrt:output.obj
 0001:00065ed1       ??$write_multiple_characters@V?$string_output_adapter@D@__crt_stdio_output@@D@__crt_stdio_output@@YAXABV?$string_output_adapter@D@0@DHQAHAAV__crt_cached_ptd_host@@@Z 10066ed1 f i libucrt:output.obj
 0001:00065f4c       ??$write_multiple_characters@V?$string_output_adapter@_W@__crt_stdio_output@@D@__crt_stdio_output@@YAXABV?$string_output_adapter@_W@0@DHQAHAAV__crt_cached_ptd_host@@@Z 10066f4c f i libucrt:output.obj
 0001:00066200       ??0?$c_string_character_source@D@__crt_strtox@@QAE@QBDQAPBD@Z 10067200 f i libucrt:output.obj
 0001:00066223       ??0?$c_string_character_source@_W@__crt_strtox@@QAE@QB_WQAPB_W@Z 10067223 f i libucrt:output.obj
 0001:00066246       ??0?$cached@H@__crt_cached_ptd_host@@QAE@XZ 10067246 f i libucrt:output.obj
 0001:0006624d       ??0?$cached@K@__crt_cached_ptd_host@@QAE@XZ 1006724d f i libucrt:output.obj
 0001:00066254       ??0?$common_data@D@__crt_stdio_output@@IAE@AAV__crt_cached_ptd_host@@@Z 10067254 f i libucrt:output.obj
 0001:000662ac       ??0?$common_data@_W@__crt_stdio_output@@IAE@AAV__crt_cached_ptd_host@@@Z 100672ac f i libucrt:output.obj
 0001:0006630b       ??0?$output_adapter_data@DV?$stream_output_adapter@D@__crt_stdio_output@@@__crt_stdio_output@@IAE@ABV?$stream_output_adapter@D@1@_KQBDAAV__crt_cached_ptd_host@@QAD@Z 1006730b f i libucrt:output.obj
 0001:0006638b       ??0?$output_adapter_data@DV?$string_output_adapter@D@__crt_stdio_output@@@__crt_stdio_output@@IAE@ABV?$string_output_adapter@D@1@_KQBDAAV__crt_cached_ptd_host@@QAD@Z 1006738b f i libucrt:output.obj
 0001:0006640b       ??0?$output_adapter_data@_WV?$stream_output_adapter@_W@__crt_stdio_output@@@__crt_stdio_output@@IAE@ABV?$stream_output_adapter@_W@1@_KQB_WAAV__crt_cached_ptd_host@@QAD@Z 1006740b f i libucrt:output.obj
 0001:00066492       ??0?$output_adapter_data@_WV?$string_output_adapter@_W@__crt_stdio_output@@@__crt_stdio_output@@IAE@ABV?$string_output_adapter@_W@1@_KQB_WAAV__crt_cached_ptd_host@@QAD@Z 10067492 f i libucrt:output.obj
 0001:00066519       ??0?$output_processor@DV?$stream_output_adapter@D@__crt_stdio_output@@V?$format_validation_base@DV?$stream_output_adapter@D@__crt_stdio_output@@@2@@__crt_stdio_output@@QAE@ABV?$stream_output_adapter@D@1@_KQBDAAV__crt_cached_ptd_host@@QAD@Z 10067519 f i libucrt:output.obj
 0001:00066551       ??0?$output_processor@DV?$stream_output_adapter@D@__crt_stdio_output@@V?$positional_parameter_base@DV?$stream_output_adapter@D@__crt_stdio_output@@@2@@__crt_stdio_output@@QAE@ABV?$stream_output_adapter@D@1@_KQBDAAV__crt_cached_ptd_host@@QAD@Z 10067551 f i libucrt:output.obj
 0001:00066580       ??0?$output_processor@DV?$stream_output_adapter@D@__crt_stdio_output@@V?$standard_base@DV?$stream_output_adapter@D@__crt_stdio_output@@@2@@__crt_stdio_output@@QAE@ABV?$stream_output_adapter@D@1@_KQBDAAV__crt_cached_ptd_host@@QAD@Z 10067580 f i libucrt:output.obj
 0001:000665b8       ??0?$output_processor@DV?$string_output_adapter@D@__crt_stdio_output@@V?$format_validation_base@DV?$string_output_adapter@D@__crt_stdio_output@@@2@@__crt_stdio_output@@QAE@ABV?$string_output_adapter@D@1@_KQBDAAV__crt_cached_ptd_host@@QAD@Z 100675b8 f i libucrt:output.obj
 0001:000665f0       ??0?$output_processor@DV?$string_output_adapter@D@__crt_stdio_output@@V?$positional_parameter_base@DV?$string_output_adapter@D@__crt_stdio_output@@@2@@__crt_stdio_output@@QAE@ABV?$string_output_adapter@D@1@_KQBDAAV__crt_cached_ptd_host@@QAD@Z 100675f0 f i libucrt:output.obj
 0001:0006661f       ??0?$output_processor@DV?$string_output_adapter@D@__crt_stdio_output@@V?$standard_base@DV?$string_output_adapter@D@__crt_stdio_output@@@2@@__crt_stdio_output@@QAE@ABV?$string_output_adapter@D@1@_KQBDAAV__crt_cached_ptd_host@@QAD@Z 1006761f f i libucrt:output.obj
 0001:00066657       ??0?$output_processor@_WV?$stream_output_adapter@_W@__crt_stdio_output@@V?$format_validation_base@_WV?$stream_output_adapter@_W@__crt_stdio_output@@@2@@__crt_stdio_output@@QAE@ABV?$stream_output_adapter@_W@1@_KQB_WAAV__crt_cached_ptd_host@@QAD@Z 10067657 f i libucrt:output.obj
 0001:0006668f       ??0?$output_processor@_WV?$stream_output_adapter@_W@__crt_stdio_output@@V?$positional_parameter_base@_WV?$stream_output_adapter@_W@__crt_stdio_output@@@2@@__crt_stdio_output@@QAE@ABV?$stream_output_adapter@_W@1@_KQB_WAAV__crt_cached_ptd_host@@QAD@Z 1006768f f i libucrt:output.obj
 0001:000666be       ??0?$output_processor@_WV?$stream_output_adapter@_W@__crt_stdio_output@@V?$standard_base@_WV?$stream_output_adapter@_W@__crt_stdio_output@@@2@@__crt_stdio_output@@QAE@ABV?$stream_output_adapter@_W@1@_KQB_WAAV__crt_cached_ptd_host@@QAD@Z 100676be f i libucrt:output.obj
 0001:000666f6       ??0?$output_processor@_WV?$string_output_adapter@_W@__crt_stdio_output@@V?$format_validation_base@_WV?$string_output_adapter@_W@__crt_stdio_output@@@2@@__crt_stdio_output@@QAE@ABV?$string_output_adapter@_W@1@_KQB_WAAV__crt_cached_ptd_host@@QAD@Z 100676f6 f i libucrt:output.obj
 0001:0006672e       ??0?$output_processor@_WV?$string_output_adapter@_W@__crt_stdio_output@@V?$positional_parameter_base@_WV?$string_output_adapter@_W@__crt_stdio_output@@@2@@__crt_stdio_output@@QAE@ABV?$string_output_adapter@_W@1@_KQB_WAAV__crt_cached_ptd_host@@QAD@Z 1006772e f i libucrt:output.obj
 0001:0006675d       ??0?$output_processor@_WV?$string_output_adapter@_W@__crt_stdio_output@@V?$standard_base@_WV?$string_output_adapter@_W@__crt_stdio_output@@@2@@__crt_stdio_output@@QAE@ABV?$string_output_adapter@_W@1@_KQB_WAAV__crt_cached_ptd_host@@QAD@Z 1006775d f i libucrt:output.obj
 0001:00066795       ??0?$stream_output_adapter@D@__crt_stdio_output@@QAE@QAU_iobuf@@@Z 10067795 f i libucrt:output.obj
 0001:000667a9       ??0?$stream_output_adapter@_W@__crt_stdio_output@@QAE@QAU_iobuf@@@Z 100677a9 f i libucrt:output.obj
 0001:000667bd       ??0?$string_output_adapter@D@__crt_stdio_output@@QAE@QAU?$string_output_adapter_context@D@1@@Z 100677bd f i libucrt:output.obj
 0001:000667d1       ??0?$string_output_adapter@_W@__crt_stdio_output@@QAE@QAU?$string_output_adapter_context@_W@1@@Z 100677d1 f i libucrt:output.obj
 0001:000667e5       ??0__acrt_stdio_temporary_buffering_guard@@QAE@QAU_iobuf@@AAV__crt_cached_ptd_host@@@Z 100677e5 f i libucrt:output.obj
 0001:00066820       ??0__crt_cached_ptd_host@@QAE@QAU__crt_locale_pointers@@@Z 10067820 f i libucrt:output.obj
 0001:00066894       ??0__crt_scoped_get_last_error_reset@@QAE@XZ 10067894 f i libucrt:output.obj
 0001:000668a9       ??0formatting_buffer@__crt_stdio_output@@QAE@XZ 100678a9 f i libucrt:output.obj
 0001:000668be       ??0guard@?$cached@H@__crt_cached_ptd_host@@QAE@AAU12@@Z 100678be f i libucrt:output.obj
 0001:000668e4       ??1?$c_string_character_source@D@__crt_strtox@@QAE@XZ 100678e4 f i libucrt:output.obj
 0001:000668f3       ??1?$c_string_character_source@_W@__crt_strtox@@QAE@XZ 100678f3 f i libucrt:output.obj
 0001:00066902       ??1?$common_data@D@__crt_stdio_output@@QAE@XZ 10067902 f i libucrt:output.obj
 0001:0006690c       ??1?$common_data@_W@__crt_stdio_output@@QAE@XZ 1006790c f i libucrt:output.obj
 0001:00066916       ??1?$format_validation_base@DV?$stream_output_adapter@D@__crt_stdio_output@@@__crt_stdio_output@@QAE@XZ 10067916 f i libucrt:output.obj
 0001:00066920       ??1?$format_validation_base@DV?$string_output_adapter@D@__crt_stdio_output@@@__crt_stdio_output@@QAE@XZ 10067920 f i libucrt:output.obj
 0001:0006692a       ??1?$format_validation_base@_WV?$stream_output_adapter@_W@__crt_stdio_output@@@__crt_stdio_output@@QAE@XZ 1006792a f i libucrt:output.obj
 0001:00066934       ??1?$format_validation_base@_WV?$string_output_adapter@_W@__crt_stdio_output@@@__crt_stdio_output@@QAE@XZ 10067934 f i libucrt:output.obj
 0001:0006693e       ??1?$output_adapter_data@DV?$stream_output_adapter@D@__crt_stdio_output@@@__crt_stdio_output@@QAE@XZ 1006793e f i libucrt:output.obj
 0001:00066948       ??1?$output_adapter_data@DV?$string_output_adapter@D@__crt_stdio_output@@@__crt_stdio_output@@QAE@XZ 10067948 f i libucrt:output.obj
 0001:00066952       ??1?$output_adapter_data@_WV?$stream_output_adapter@_W@__crt_stdio_output@@@__crt_stdio_output@@QAE@XZ 10067952 f i libucrt:output.obj
 0001:0006695c       ??1?$output_adapter_data@_WV?$string_output_adapter@_W@__crt_stdio_output@@@__crt_stdio_output@@QAE@XZ 1006795c f i libucrt:output.obj
 0001:00066966       ??1?$output_processor@DV?$stream_output_adapter@D@__crt_stdio_output@@V?$format_validation_base@DV?$stream_output_adapter@D@__crt_stdio_output@@@2@@__crt_stdio_output@@QAE@XZ 10067966 f i libucrt:output.obj
 0001:00066970       ??1?$output_processor@DV?$stream_output_adapter@D@__crt_stdio_output@@V?$positional_parameter_base@DV?$stream_output_adapter@D@__crt_stdio_output@@@2@@__crt_stdio_output@@QAE@XZ 10067970 f i libucrt:output.obj
 0001:0006697a       ??1?$output_processor@DV?$stream_output_adapter@D@__crt_stdio_output@@V?$standard_base@DV?$stream_output_adapter@D@__crt_stdio_output@@@2@@__crt_stdio_output@@QAE@XZ 1006797a f i libucrt:output.obj
 0001:00066984       ??1?$output_processor@DV?$string_output_adapter@D@__crt_stdio_output@@V?$format_validation_base@DV?$string_output_adapter@D@__crt_stdio_output@@@2@@__crt_stdio_output@@QAE@XZ 10067984 f i libucrt:output.obj
 0001:0006698e       ??1?$output_processor@DV?$string_output_adapter@D@__crt_stdio_output@@V?$positional_parameter_base@DV?$string_output_adapter@D@__crt_stdio_output@@@2@@__crt_stdio_output@@QAE@XZ 1006798e f i libucrt:output.obj
 0001:00066998       ??1?$output_processor@DV?$string_output_adapter@D@__crt_stdio_output@@V?$standard_base@DV?$string_output_adapter@D@__crt_stdio_output@@@2@@__crt_stdio_output@@QAE@XZ 10067998 f i libucrt:output.obj
 0001:000669a2       ??1?$output_processor@_WV?$stream_output_adapter@_W@__crt_stdio_output@@V?$format_validation_base@_WV?$stream_output_adapter@_W@__crt_stdio_output@@@2@@__crt_stdio_output@@QAE@XZ 100679a2 f i libucrt:output.obj
 0001:000669ac       ??1?$output_processor@_WV?$stream_output_adapter@_W@__crt_stdio_output@@V?$positional_parameter_base@_WV?$stream_output_adapter@_W@__crt_stdio_output@@@2@@__crt_stdio_output@@QAE@XZ 100679ac f i libucrt:output.obj
 0001:000669b6       ??1?$output_processor@_WV?$stream_output_adapter@_W@__crt_stdio_output@@V?$standard_base@_WV?$stream_output_adapter@_W@__crt_stdio_output@@@2@@__crt_stdio_output@@QAE@XZ 100679b6 f i libucrt:output.obj
 0001:000669c0       ??1?$output_processor@_WV?$string_output_adapter@_W@__crt_stdio_output@@V?$format_validation_base@_WV?$string_output_adapter@_W@__crt_stdio_output@@@2@@__crt_stdio_output@@QAE@XZ 100679c0 f i libucrt:output.obj
 0001:000669ca       ??1?$output_processor@_WV?$string_output_adapter@_W@__crt_stdio_output@@V?$positional_parameter_base@_WV?$string_output_adapter@_W@__crt_stdio_output@@@2@@__crt_stdio_output@@QAE@XZ 100679ca f i libucrt:output.obj
 0001:000669d4       ??1?$output_processor@_WV?$string_output_adapter@_W@__crt_stdio_output@@V?$standard_base@_WV?$string_output_adapter@_W@__crt_stdio_output@@@2@@__crt_stdio_output@@QAE@XZ 100679d4 f i libucrt:output.obj
 0001:000669de       ??1?$positional_parameter_base@DV?$stream_output_adapter@D@__crt_stdio_output@@@__crt_stdio_output@@QAE@XZ 100679de f i libucrt:output.obj
 0001:000669e8       ??1?$positional_parameter_base@DV?$string_output_adapter@D@__crt_stdio_output@@@__crt_stdio_output@@QAE@XZ 100679e8 f i libucrt:output.obj
 0001:000669f2       ??1?$positional_parameter_base@_WV?$stream_output_adapter@_W@__crt_stdio_output@@@__crt_stdio_output@@QAE@XZ 100679f2 f i libucrt:output.obj
 0001:000669fc       ??1?$positional_parameter_base@_WV?$string_output_adapter@_W@__crt_stdio_output@@@__crt_stdio_output@@QAE@XZ 100679fc f i libucrt:output.obj
 0001:00066a06       ??1?$standard_base@DV?$stream_output_adapter@D@__crt_stdio_output@@@__crt_stdio_output@@QAE@XZ 10067a06 f i libucrt:output.obj
 0001:00066a10       ??1?$standard_base@DV?$string_output_adapter@D@__crt_stdio_output@@@__crt_stdio_output@@QAE@XZ 10067a10 f i libucrt:output.obj
 0001:00066a1a       ??1?$standard_base@_WV?$stream_output_adapter@_W@__crt_stdio_output@@@__crt_stdio_output@@QAE@XZ 10067a1a f i libucrt:output.obj
 0001:00066a24       ??1?$standard_base@_WV?$string_output_adapter@_W@__crt_stdio_output@@@__crt_stdio_output@@QAE@XZ 10067a24 f i libucrt:output.obj
 0001:00066a2e       ??1__acrt_stdio_temporary_buffering_guard@@QAE@XZ 10067a2e f i libucrt:output.obj
 0001:00066a50       ??1__crt_cached_ptd_host@@QAE@XZ 10067a50 f i libucrt:output.obj
 0001:00066a9b       ??1__crt_scoped_get_last_error_reset@@QAE@XZ 10067a9b f i libucrt:output.obj
 0001:00066aa6       ??1formatting_buffer@__crt_stdio_output@@QAE@XZ 10067aa6 f i libucrt:output.obj
 0001:00066ac6       ??1guard@?$cached@H@__crt_cached_ptd_host@@QAE@XZ 10067ac6 f i libucrt:output.obj
 0001:00066ae1       ??4?$__crt_unique_heap_ptr@DU__crt_internal_free_policy@@@@QAEAAV0@$$QAV0@@Z 10067ae1 f i libucrt:output.obj
 0001:00066b0e       ??A?$spectre_mitigated_lookup_table@Ustate_transition_pair@__crt_stdio_output@@$0IA@@__crt_stdio_output@@QBEABUstate_transition_pair@1@I@Z 10067b0e f i libucrt:output.obj
 0001:000670a0       ?adjust_hexit@?$output_processor@DV?$stream_output_adapter@D@__crt_stdio_output@@V?$format_validation_base@DV?$stream_output_adapter@D@__crt_stdio_output@@@2@@__crt_stdio_output@@CADH_N@Z 100680a0 f i libucrt:output.obj
 0001:000670b9       ?adjust_hexit@?$output_processor@DV?$stream_output_adapter@D@__crt_stdio_output@@V?$positional_parameter_base@DV?$stream_output_adapter@D@__crt_stdio_output@@@2@@__crt_stdio_output@@CADH_N@Z 100680b9 f i libucrt:output.obj
 0001:000670d2       ?adjust_hexit@?$output_processor@DV?$stream_output_adapter@D@__crt_stdio_output@@V?$standard_base@DV?$stream_output_adapter@D@__crt_stdio_output@@@2@@__crt_stdio_output@@CADH_N@Z 100680d2 f i libucrt:output.obj
 0001:000670eb       ?adjust_hexit@?$output_processor@DV?$string_output_adapter@D@__crt_stdio_output@@V?$format_validation_base@DV?$string_output_adapter@D@__crt_stdio_output@@@2@@__crt_stdio_output@@CADH_N@Z 100680eb f i libucrt:output.obj
 0001:00067104       ?adjust_hexit@?$output_processor@DV?$string_output_adapter@D@__crt_stdio_output@@V?$positional_parameter_base@DV?$string_output_adapter@D@__crt_stdio_output@@@2@@__crt_stdio_output@@CADH_N@Z 10068104 f i libucrt:output.obj
 0001:0006711d       ?adjust_hexit@?$output_processor@DV?$string_output_adapter@D@__crt_stdio_output@@V?$standard_base@DV?$string_output_adapter@D@__crt_stdio_output@@@2@@__crt_stdio_output@@CADH_N@Z 1006811d f i libucrt:output.obj
 0001:00067136       ?adjust_hexit@?$output_processor@_WV?$stream_output_adapter@_W@__crt_stdio_output@@V?$format_validation_base@_WV?$stream_output_adapter@_W@__crt_stdio_output@@@2@@__crt_stdio_output@@CADH_N@Z 10068136 f i libucrt:output.obj
 0001:0006714f       ?adjust_hexit@?$output_processor@_WV?$stream_output_adapter@_W@__crt_stdio_output@@V?$positional_parameter_base@_WV?$stream_output_adapter@_W@__crt_stdio_output@@@2@@__crt_stdio_output@@CADH_N@Z 1006814f f i libucrt:output.obj
 0001:00067168       ?adjust_hexit@?$output_processor@_WV?$stream_output_adapter@_W@__crt_stdio_output@@V?$standard_base@_WV?$stream_output_adapter@_W@__crt_stdio_output@@@2@@__crt_stdio_output@@CADH_N@Z 10068168 f i libucrt:output.obj
 0001:00067181       ?adjust_hexit@?$output_processor@_WV?$string_output_adapter@_W@__crt_stdio_output@@V?$format_validation_base@_WV?$string_output_adapter@_W@__crt_stdio_output@@@2@@__crt_stdio_output@@CADH_N@Z 10068181 f i libucrt:output.obj
 0001:0006719a       ?adjust_hexit@?$output_processor@_WV?$string_output_adapter@_W@__crt_stdio_output@@V?$positional_parameter_base@_WV?$string_output_adapter@_W@__crt_stdio_output@@@2@@__crt_stdio_output@@CADH_N@Z 1006819a f i libucrt:output.obj
 0001:000671b3       ?adjust_hexit@?$output_processor@_WV?$string_output_adapter@_W@__crt_stdio_output@@V?$standard_base@_WV?$string_output_adapter@_W@__crt_stdio_output@@@2@@__crt_stdio_output@@CADH_N@Z 100681b3 f i libucrt:output.obj
 0001:000671cc       ?advance_to_next_pass@?$positional_parameter_base@DV?$stream_output_adapter@D@__crt_stdio_output@@@__crt_stdio_output@@IAE_NXZ 100681cc f i libucrt:output.obj
 0001:0006722d       ?advance_to_next_pass@?$positional_parameter_base@DV?$string_output_adapter@D@__crt_stdio_output@@@__crt_stdio_output@@IAE_NXZ 1006822d f i libucrt:output.obj
 0001:0006728e       ?advance_to_next_pass@?$positional_parameter_base@_WV?$stream_output_adapter@_W@__crt_stdio_output@@@__crt_stdio_output@@IAE_NXZ 1006828e f i libucrt:output.obj
 0001:000672ef       ?advance_to_next_pass@?$positional_parameter_base@_WV?$string_output_adapter@_W@__crt_stdio_output@@@__crt_stdio_output@@IAE_NXZ 100682ef f i libucrt:output.obj
 0001:00067350       ?advance_to_next_pass@?$standard_base@DV?$stream_output_adapter@D@__crt_stdio_output@@@__crt_stdio_output@@IAE_NXZ 10068350 f i libucrt:output.obj
 0001:00067365       ?advance_to_next_pass@?$standard_base@DV?$string_output_adapter@D@__crt_stdio_output@@@__crt_stdio_output@@IAE_NXZ 10068365 f i libucrt:output.obj
 0001:0006737a       ?advance_to_next_pass@?$standard_base@_WV?$stream_output_adapter@_W@__crt_stdio_output@@@__crt_stdio_output@@IAE_NXZ 1006837a f i libucrt:output.obj
 0001:0006738f       ?advance_to_next_pass@?$standard_base@_WV?$string_output_adapter@_W@__crt_stdio_output@@@__crt_stdio_output@@IAE_NXZ 1006838f f i libucrt:output.obj
 0001:000673a4       ?check@?$cached@H@__crt_cached_ptd_host@@QBE_NH@Z 100683a4 f i libucrt:output.obj
 0001:000673d0       ?check_synchronize_global_state_index@__crt_cached_ptd_host@@AAEIABV__crt_scoped_get_last_error_reset@@@Z 100683d0 f i libucrt:output.obj
 0001:00067400       ?check_synchronize_per_thread_data@__crt_cached_ptd_host@@AAEPAU__acrt_ptd@@XZ 10068400 f i libucrt:output.obj
 0001:00067473       ?create_guard@?$cached@H@__crt_cached_ptd_host@@QAE?AVguard@12@XZ 10068473 f i libucrt:output.obj
 0001:00067497       ?crop_zeroes@__crt_stdio_output@@YAXPADQAU__crt_locale_pointers@@@Z 10068497 f i libucrt:output.obj
 0001:0006750f       ?disable@guard@?$cached@H@__crt_cached_ptd_host@@QAEXXZ 1006850f f i libucrt:output.obj
 0001:00067514       ?enable@guard@?$cached@H@__crt_cached_ptd_host@@QAEXXZ 10068514 f i libucrt:output.obj
 0001:00067519       ?find_next_state@?$output_processor@DV?$stream_output_adapter@D@__crt_stdio_output@@V?$format_validation_base@DV?$stream_output_adapter@D@__crt_stdio_output@@@2@@__crt_stdio_output@@ABE?AW4state@2@DW432@@Z 10068519 f i libucrt:output.obj
 0001:00067565       ?find_next_state@?$output_processor@DV?$stream_output_adapter@D@__crt_stdio_output@@V?$positional_parameter_base@DV?$stream_output_adapter@D@__crt_stdio_output@@@2@@__crt_stdio_output@@ABE?AW4state@2@DW432@@Z 10068565 f i libucrt:output.obj
 0001:000675b1       ?find_next_state@?$output_processor@DV?$stream_output_adapter@D@__crt_stdio_output@@V?$standard_base@DV?$stream_output_adapter@D@__crt_stdio_output@@@2@@__crt_stdio_output@@ABE?AW4state@2@DW432@@Z 100685b1 f i libucrt:output.obj
 0001:000675fa       ?find_next_state@?$output_processor@DV?$string_output_adapter@D@__crt_stdio_output@@V?$format_validation_base@DV?$string_output_adapter@D@__crt_stdio_output@@@2@@__crt_stdio_output@@ABE?AW4state@2@DW432@@Z 100685fa f i libucrt:output.obj
 0001:00067646       ?find_next_state@?$output_processor@DV?$string_output_adapter@D@__crt_stdio_output@@V?$positional_parameter_base@DV?$string_output_adapter@D@__crt_stdio_output@@@2@@__crt_stdio_output@@ABE?AW4state@2@DW432@@Z 10068646 f i libucrt:output.obj
 0001:00067692       ?find_next_state@?$output_processor@DV?$string_output_adapter@D@__crt_stdio_output@@V?$standard_base@DV?$string_output_adapter@D@__crt_stdio_output@@@2@@__crt_stdio_output@@ABE?AW4state@2@DW432@@Z 10068692 f i libucrt:output.obj
 0001:000676db       ?find_next_state@?$output_processor@_WV?$stream_output_adapter@_W@__crt_stdio_output@@V?$format_validation_base@_WV?$stream_output_adapter@_W@__crt_stdio_output@@@2@@__crt_stdio_output@@ABE?AW4state@2@_WW432@@Z 100686db f i libucrt:output.obj
 0001:00067726       ?find_next_state@?$output_processor@_WV?$stream_output_adapter@_W@__crt_stdio_output@@V?$positional_parameter_base@_WV?$stream_output_adapter@_W@__crt_stdio_output@@@2@@__crt_stdio_output@@ABE?AW4state@2@_WW432@@Z 10068726 f i libucrt:output.obj
 0001:00067771       ?find_next_state@?$output_processor@_WV?$stream_output_adapter@_W@__crt_stdio_output@@V?$standard_base@_WV?$stream_output_adapter@_W@__crt_stdio_output@@@2@@__crt_stdio_output@@ABE?AW4state@2@_WW432@@Z 10068771 f i libucrt:output.obj
 0001:000677b9       ?find_next_state@?$output_processor@_WV?$string_output_adapter@_W@__crt_stdio_output@@V?$format_validation_base@_WV?$string_output_adapter@_W@__crt_stdio_output@@@2@@__crt_stdio_output@@ABE?AW4state@2@_WW432@@Z 100687b9 f i libucrt:output.obj
 0001:00067804       ?find_next_state@?$output_processor@_WV?$string_output_adapter@_W@__crt_stdio_output@@V?$positional_parameter_base@_WV?$string_output_adapter@_W@__crt_stdio_output@@@2@@__crt_stdio_output@@ABE?AW4state@2@_WW432@@Z 10068804 f i libucrt:output.obj
 0001:0006784f       ?find_next_state@?$output_processor@_WV?$string_output_adapter@_W@__crt_stdio_output@@V?$standard_base@_WV?$string_output_adapter@_W@__crt_stdio_output@@@2@@__crt_stdio_output@@ABE?AW4state@2@_WW432@@Z 1006884f f i libucrt:output.obj
 0001:00067897       ?force_decimal_point@__crt_stdio_output@@YAXPADQAU__crt_locale_pointers@@@Z 10068897 f i libucrt:output.obj
 0001:00067910       ?force_synchronize_global_state_index@__crt_cached_ptd_host@@AAEIABV__crt_scoped_get_last_error_reset@@@Z 10068910 f i libucrt:output.obj
 0001:00067930       ?force_synchronize_per_thread_data@__crt_cached_ptd_host@@AAEPAU__acrt_ptd@@XZ 10068930 f i libucrt:output.obj
 0001:00067990       ?get@?$c_string_character_source@D@__crt_strtox@@QAEDXZ 10068990 f i libucrt:output.obj
 0001:0006799a       ?get@?$c_string_character_source@_W@__crt_strtox@@QAE_WXZ 1006899a f i libucrt:output.obj
 0001:000679a7       ?get_current_state_index@__crt_state_management@@YAIABV__crt_scoped_get_last_error_reset@@@Z 100689a7 f i libucrt:output.obj
 0001:000679b0       ?get_errno@__crt_cached_ptd_host@@QAE@XZ 100689b0 f i libucrt:output.obj
 0001:000679b4       ?get_flags@__crt_stdio_stream@@QBEJXZ 100689b4 f i libucrt:output.obj
 0001:000679c0       ?get_locale@__crt_cached_ptd_host@@QAEPAU__crt_locale_pointers@@XZ 100689c0 f i libucrt:output.obj
 0001:000679da       ?get_parameter_type@?$positional_parameter_base@DV?$stream_output_adapter@D@__crt_stdio_output@@@__crt_stdio_output@@CA?AW4parameter_type@12@F@Z 100689da f i libucrt:output.obj
 0001:000679de       ?get_parameter_type@?$positional_parameter_base@DV?$stream_output_adapter@D@__crt_stdio_output@@@__crt_stdio_output@@CA?AW4parameter_type@12@G@Z 100689de f i libucrt:output.obj
 0001:000679e2       ?get_parameter_type@?$positional_parameter_base@DV?$stream_output_adapter@D@__crt_stdio_output@@@__crt_stdio_output@@CA?AW4parameter_type@12@H@Z 100689e2 f i libucrt:output.obj
 0001:000679e6       ?get_parameter_type@?$positional_parameter_base@DV?$stream_output_adapter@D@__crt_stdio_output@@@__crt_stdio_output@@CA?AW4parameter_type@12@I@Z 100689e6 f i libucrt:output.obj
 0001:000679ea       ?get_parameter_type@?$positional_parameter_base@DV?$stream_output_adapter@D@__crt_stdio_output@@@__crt_stdio_output@@CA?AW4parameter_type@12@U_CRT_DOUBLE@@@Z 100689ea f i libucrt:output.obj
 0001:000679ee       ?get_parameter_type@?$positional_parameter_base@DV?$stream_output_adapter@D@__crt_stdio_output@@@__crt_stdio_output@@CA?AW4parameter_type@12@_J@Z 100689ee f i libucrt:output.obj
 0001:000679f2       ?get_parameter_type@?$positional_parameter_base@DV?$stream_output_adapter@D@__crt_stdio_output@@@__crt_stdio_output@@CA?AW4parameter_type@12@_K@Z 100689f2 f i libucrt:output.obj
 0001:000679f6       ?get_parameter_type@?$positional_parameter_base@DV?$stream_output_adapter@D@__crt_stdio_output@@@__crt_stdio_output@@CA?AW4parameter_type@12@_W@Z 100689f6 f i libucrt:output.obj
 0001:000679fa       ?get_parameter_type@?$positional_parameter_base@DV?$string_output_adapter@D@__crt_stdio_output@@@__crt_stdio_output@@CA?AW4parameter_type@12@F@Z 100689fa f i libucrt:output.obj
 0001:000679fe       ?get_parameter_type@?$positional_parameter_base@DV?$string_output_adapter@D@__crt_stdio_output@@@__crt_stdio_output@@CA?AW4parameter_type@12@G@Z 100689fe f i libucrt:output.obj
 0001:00067a02       ?get_parameter_type@?$positional_parameter_base@DV?$string_output_adapter@D@__crt_stdio_output@@@__crt_stdio_output@@CA?AW4parameter_type@12@H@Z 10068a02 f i libucrt:output.obj
 0001:00067a06       ?get_parameter_type@?$positional_parameter_base@DV?$string_output_adapter@D@__crt_stdio_output@@@__crt_stdio_output@@CA?AW4parameter_type@12@I@Z 10068a06 f i libucrt:output.obj
 0001:00067a0a       ?get_parameter_type@?$positional_parameter_base@DV?$string_output_adapter@D@__crt_stdio_output@@@__crt_stdio_output@@CA?AW4parameter_type@12@U_CRT_DOUBLE@@@Z 10068a0a f i libucrt:output.obj
 0001:00067a0e       ?get_parameter_type@?$positional_parameter_base@DV?$string_output_adapter@D@__crt_stdio_output@@@__crt_stdio_output@@CA?AW4parameter_type@12@_J@Z 10068a0e f i libucrt:output.obj
 0001:00067a12       ?get_parameter_type@?$positional_parameter_base@DV?$string_output_adapter@D@__crt_stdio_output@@@__crt_stdio_output@@CA?AW4parameter_type@12@_K@Z 10068a12 f i libucrt:output.obj
 0001:00067a16       ?get_parameter_type@?$positional_parameter_base@DV?$string_output_adapter@D@__crt_stdio_output@@@__crt_stdio_output@@CA?AW4parameter_type@12@_W@Z 10068a16 f i libucrt:output.obj
 0001:00067a1a       ?get_parameter_type@?$positional_parameter_base@_WV?$stream_output_adapter@_W@__crt_stdio_output@@@__crt_stdio_output@@CA?AW4parameter_type@12@F@Z 10068a1a f i libucrt:output.obj
 0001:00067a1e       ?get_parameter_type@?$positional_parameter_base@_WV?$stream_output_adapter@_W@__crt_stdio_output@@@__crt_stdio_output@@CA?AW4parameter_type@12@G@Z 10068a1e f i libucrt:output.obj
 0001:00067a22       ?get_parameter_type@?$positional_parameter_base@_WV?$stream_output_adapter@_W@__crt_stdio_output@@@__crt_stdio_output@@CA?AW4parameter_type@12@H@Z 10068a22 f i libucrt:output.obj
 0001:00067a26       ?get_parameter_type@?$positional_parameter_base@_WV?$stream_output_adapter@_W@__crt_stdio_output@@@__crt_stdio_output@@CA?AW4parameter_type@12@I@Z 10068a26 f i libucrt:output.obj
 0001:00067a2a       ?get_parameter_type@?$positional_parameter_base@_WV?$stream_output_adapter@_W@__crt_stdio_output@@@__crt_stdio_output@@CA?AW4parameter_type@12@U_CRT_DOUBLE@@@Z 10068a2a f i libucrt:output.obj
 0001:00067a2e       ?get_parameter_type@?$positional_parameter_base@_WV?$stream_output_adapter@_W@__crt_stdio_output@@@__crt_stdio_output@@CA?AW4parameter_type@12@_J@Z 10068a2e f i libucrt:output.obj
 0001:00067a32       ?get_parameter_type@?$positional_parameter_base@_WV?$stream_output_adapter@_W@__crt_stdio_output@@@__crt_stdio_output@@CA?AW4parameter_type@12@_K@Z 10068a32 f i libucrt:output.obj
 0001:00067a36       ?get_parameter_type@?$positional_parameter_base@_WV?$stream_output_adapter@_W@__crt_stdio_output@@@__crt_stdio_output@@CA?AW4parameter_type@12@_W@Z 10068a36 f i libucrt:output.obj
 0001:00067a3a       ?get_parameter_type@?$positional_parameter_base@_WV?$string_output_adapter@_W@__crt_stdio_output@@@__crt_stdio_output@@CA?AW4parameter_type@12@F@Z 10068a3a f i libucrt:output.obj
 0001:00067a3e       ?get_parameter_type@?$positional_parameter_base@_WV?$string_output_adapter@_W@__crt_stdio_output@@@__crt_stdio_output@@CA?AW4parameter_type@12@G@Z 10068a3e f i libucrt:output.obj
 0001:00067a42       ?get_parameter_type@?$positional_parameter_base@_WV?$string_output_adapter@_W@__crt_stdio_output@@@__crt_stdio_output@@CA?AW4parameter_type@12@H@Z 10068a42 f i libucrt:output.obj
 0001:00067a46       ?get_parameter_type@?$positional_parameter_base@_WV?$string_output_adapter@_W@__crt_stdio_output@@@__crt_stdio_output@@CA?AW4parameter_type@12@I@Z 10068a46 f i libucrt:output.obj
 0001:00067a4a       ?get_parameter_type@?$positional_parameter_base@_WV?$string_output_adapter@_W@__crt_stdio_output@@@__crt_stdio_output@@CA?AW4parameter_type@12@U_CRT_DOUBLE@@@Z 10068a4a f i libucrt:output.obj
 0001:00067a4e       ?get_parameter_type@?$positional_parameter_base@_WV?$string_output_adapter@_W@__crt_stdio_output@@@__crt_stdio_output@@CA?AW4parameter_type@12@_J@Z 10068a4e f i libucrt:output.obj
 0001:00067a52       ?get_parameter_type@?$positional_parameter_base@_WV?$string_output_adapter@_W@__crt_stdio_output@@@__crt_stdio_output@@CA?AW4parameter_type@12@_K@Z 10068a52 f i libucrt:output.obj
 0001:00067a56       ?get_parameter_type@?$positional_parameter_base@_WV?$string_output_adapter@_W@__crt_stdio_output@@@__crt_stdio_output@@CA?AW4parameter_type@12@_W@Z 10068a56 f i libucrt:output.obj
 0001:00067a60       ?get_raw_ptd@__crt_cached_ptd_host@@QAEPAU__acrt_ptd@@XZ 10068a60 f i libucrt:output.obj
 0001:00067ad3       ?has_flag@?$output_processor@DV?$stream_output_adapter@D@__crt_stdio_output@@V?$format_validation_base@DV?$stream_output_adapter@D@__crt_stdio_output@@@2@@__crt_stdio_output@@ABE_NI@Z 10068ad3 f i libucrt:output.obj
 0001:00067ae9       ?has_flag@?$output_processor@DV?$stream_output_adapter@D@__crt_stdio_output@@V?$positional_parameter_base@DV?$stream_output_adapter@D@__crt_stdio_output@@@2@@__crt_stdio_output@@ABE_NI@Z 10068ae9 f i libucrt:output.obj
 0001:00067aff       ?has_flag@?$output_processor@DV?$stream_output_adapter@D@__crt_stdio_output@@V?$standard_base@DV?$stream_output_adapter@D@__crt_stdio_output@@@2@@__crt_stdio_output@@ABE_NI@Z 10068aff f i libucrt:output.obj
 0001:00067b15       ?has_flag@?$output_processor@DV?$string_output_adapter@D@__crt_stdio_output@@V?$format_validation_base@DV?$string_output_adapter@D@__crt_stdio_output@@@2@@__crt_stdio_output@@ABE_NI@Z 10068b15 f i libucrt:output.obj
 0001:00067b2b       ?has_flag@?$output_processor@DV?$string_output_adapter@D@__crt_stdio_output@@V?$positional_parameter_base@DV?$string_output_adapter@D@__crt_stdio_output@@@2@@__crt_stdio_output@@ABE_NI@Z 10068b2b f i libucrt:output.obj
 0001:00067b41       ?has_flag@?$output_processor@DV?$string_output_adapter@D@__crt_stdio_output@@V?$standard_base@DV?$string_output_adapter@D@__crt_stdio_output@@@2@@__crt_stdio_output@@ABE_NI@Z 10068b41 f i libucrt:output.obj
 0001:00067b57       ?has_flag@?$output_processor@_WV?$stream_output_adapter@_W@__crt_stdio_output@@V?$format_validation_base@_WV?$stream_output_adapter@_W@__crt_stdio_output@@@2@@__crt_stdio_output@@ABE_NI@Z 10068b57 f i libucrt:output.obj
 0001:00067b6d       ?has_flag@?$output_processor@_WV?$stream_output_adapter@_W@__crt_stdio_output@@V?$positional_parameter_base@_WV?$stream_output_adapter@_W@__crt_stdio_output@@@2@@__crt_stdio_output@@ABE_NI@Z 10068b6d f i libucrt:output.obj
 0001:00067b83       ?has_flag@?$output_processor@_WV?$stream_output_adapter@_W@__crt_stdio_output@@V?$standard_base@_WV?$stream_output_adapter@_W@__crt_stdio_output@@@2@@__crt_stdio_output@@ABE_NI@Z 10068b83 f i libucrt:output.obj
 0001:00067b99       ?has_flag@?$output_processor@_WV?$string_output_adapter@_W@__crt_stdio_output@@V?$format_validation_base@_WV?$string_output_adapter@_W@__crt_stdio_output@@@2@@__crt_stdio_output@@ABE_NI@Z 10068b99 f i libucrt:output.obj
 0001:00067baf       ?has_flag@?$output_processor@_WV?$string_output_adapter@_W@__crt_stdio_output@@V?$positional_parameter_base@_WV?$string_output_adapter@_W@__crt_stdio_output@@@2@@__crt_stdio_output@@ABE_NI@Z 10068baf f i libucrt:output.obj
 0001:00067bc5       ?has_flag@?$output_processor@_WV?$string_output_adapter@_W@__crt_stdio_output@@V?$standard_base@_WV?$string_output_adapter@_W@__crt_stdio_output@@@2@@__crt_stdio_output@@ABE_NI@Z 10068bc5 f i libucrt:output.obj
 0001:00067bdb       ?is_positional_parameter_reappearance_consistent@?$positional_parameter_base@DV?$stream_output_adapter@D@__crt_stdio_output@@@__crt_stdio_output@@AAE_NABUparameter_data@12@W4parameter_type@12@DW4length_modifier@2@@Z 10068bdb f i libucrt:output.obj
 0001:00067d3b       ?is_positional_parameter_reappearance_consistent@?$positional_parameter_base@DV?$string_output_adapter@D@__crt_stdio_output@@@__crt_stdio_output@@AAE_NABUparameter_data@12@W4parameter_type@12@DW4length_modifier@2@@Z 10068d3b f i libucrt:output.obj
 0001:00067e9b       ?is_positional_parameter_reappearance_consistent@?$positional_parameter_base@_WV?$stream_output_adapter@_W@__crt_stdio_output@@@__crt_stdio_output@@AAE_NABUparameter_data@12@W4parameter_type@12@_WW4length_modifier@2@@Z 10068e9b f i libucrt:output.obj
 0001:00067ffc       ?is_positional_parameter_reappearance_consistent@?$positional_parameter_base@_WV?$string_output_adapter@_W@__crt_stdio_output@@@__crt_stdio_output@@AAE_NABUparameter_data@12@W4parameter_type@12@_WW4length_modifier@2@@Z 10068ffc f i libucrt:output.obj
 0001:0006815d       ?is_string_backed@__crt_stdio_stream@@QBE_NXZ 1006915d f i libucrt:output.obj
 0001:0006816c       ?maximum_signed_value@__crt_strtox@@YAJK@Z 1006916c f i libucrt:output.obj
 0001:00068172       ?minimum_signed_value@__crt_strtox@@YAJK@Z 10069172 f i libucrt:output.obj
 0001:00068178       ?narrow_null_string@?$output_processor@DV?$stream_output_adapter@D@__crt_stdio_output@@V?$format_validation_base@DV?$stream_output_adapter@D@__crt_stdio_output@@@2@@__crt_stdio_output@@CAPADXZ 10069178 f i libucrt:output.obj
 0001:0006817e       ?narrow_null_string@?$output_processor@DV?$stream_output_adapter@D@__crt_stdio_output@@V?$positional_parameter_base@DV?$stream_output_adapter@D@__crt_stdio_output@@@2@@__crt_stdio_output@@CAPADXZ 1006917e f i libucrt:output.obj
 0001:00068184       ?narrow_null_string@?$output_processor@DV?$stream_output_adapter@D@__crt_stdio_output@@V?$standard_base@DV?$stream_output_adapter@D@__crt_stdio_output@@@2@@__crt_stdio_output@@CAPADXZ 10069184 f i libucrt:output.obj
 0001:0006818a       ?narrow_null_string@?$output_processor@DV?$string_output_adapter@D@__crt_stdio_output@@V?$format_validation_base@DV?$string_output_adapter@D@__crt_stdio_output@@@2@@__crt_stdio_output@@CAPADXZ 1006918a f i libucrt:output.obj
 0001:00068190       ?narrow_null_string@?$output_processor@DV?$string_output_adapter@D@__crt_stdio_output@@V?$positional_parameter_base@DV?$string_output_adapter@D@__crt_stdio_output@@@2@@__crt_stdio_output@@CAPADXZ 10069190 f i libucrt:output.obj
 0001:00068196       ?narrow_null_string@?$output_processor@DV?$string_output_adapter@D@__crt_stdio_output@@V?$standard_base@DV?$string_output_adapter@D@__crt_stdio_output@@@2@@__crt_stdio_output@@CAPADXZ 10069196 f i libucrt:output.obj
 0001:0006819c       ?narrow_null_string@?$output_processor@_WV?$stream_output_adapter@_W@__crt_stdio_output@@V?$format_validation_base@_WV?$stream_output_adapter@_W@__crt_stdio_output@@@2@@__crt_stdio_output@@CAPADXZ 1006919c f i libucrt:output.obj
 0001:000681a2       ?narrow_null_string@?$output_processor@_WV?$stream_output_adapter@_W@__crt_stdio_output@@V?$positional_parameter_base@_WV?$stream_output_adapter@_W@__crt_stdio_output@@@2@@__crt_stdio_output@@CAPADXZ 100691a2 f i libucrt:output.obj
 0001:000681a8       ?narrow_null_string@?$output_processor@_WV?$stream_output_adapter@_W@__crt_stdio_output@@V?$standard_base@_WV?$stream_output_adapter@_W@__crt_stdio_output@@@2@@__crt_stdio_output@@CAPADXZ 100691a8 f i libucrt:output.obj
 0001:000681ae       ?narrow_null_string@?$output_processor@_WV?$string_output_adapter@_W@__crt_stdio_output@@V?$format_validation_base@_WV?$string_output_adapter@_W@__crt_stdio_output@@@2@@__crt_stdio_output@@CAPADXZ 100691ae f i libucrt:output.obj
 0001:000681b4       ?narrow_null_string@?$output_processor@_WV?$string_output_adapter@_W@__crt_stdio_output@@V?$positional_parameter_base@_WV?$string_output_adapter@_W@__crt_stdio_output@@@2@@__crt_stdio_output@@CAPADXZ 100691b4 f i libucrt:output.obj
 0001:000681ba       ?narrow_null_string@?$output_processor@_WV?$string_output_adapter@_W@__crt_stdio_output@@V?$standard_base@_WV?$string_output_adapter@_W@__crt_stdio_output@@@2@@__crt_stdio_output@@CAPADXZ 100691ba f i libucrt:output.obj
 0001:000681c0       ?parse_digit@__crt_strtox@@YAID@Z 100691c0 f i libucrt:output.obj
 0001:00068208       ?parse_digit@__crt_strtox@@YAI_W@Z 10069208 f i libucrt:output.obj
 0001:00068442       ?parse_int_from_format_string@?$output_processor@DV?$stream_output_adapter@D@__crt_stdio_output@@V?$format_validation_base@DV?$stream_output_adapter@D@__crt_stdio_output@@@2@@__crt_stdio_output@@AAE_NQAH@Z 10069442 f i libucrt:output.obj
 0001:000684d8       ?parse_int_from_format_string@?$output_processor@DV?$stream_output_adapter@D@__crt_stdio_output@@V?$positional_parameter_base@DV?$stream_output_adapter@D@__crt_stdio_output@@@2@@__crt_stdio_output@@AAE_NQAH@Z 100694d8 f i libucrt:output.obj
 0001:0006856e       ?parse_int_from_format_string@?$output_processor@DV?$stream_output_adapter@D@__crt_stdio_output@@V?$standard_base@DV?$stream_output_adapter@D@__crt_stdio_output@@@2@@__crt_stdio_output@@AAE_NQAH@Z 1006956e f i libucrt:output.obj
 0001:00068604       ?parse_int_from_format_string@?$output_processor@DV?$string_output_adapter@D@__crt_stdio_output@@V?$format_validation_base@DV?$string_output_adapter@D@__crt_stdio_output@@@2@@__crt_stdio_output@@AAE_NQAH@Z 10069604 f i libucrt:output.obj
 0001:0006869a       ?parse_int_from_format_string@?$output_processor@DV?$string_output_adapter@D@__crt_stdio_output@@V?$positional_parameter_base@DV?$string_output_adapter@D@__crt_stdio_output@@@2@@__crt_stdio_output@@AAE_NQAH@Z 1006969a f i libucrt:output.obj
 0001:00068730       ?parse_int_from_format_string@?$output_processor@DV?$string_output_adapter@D@__crt_stdio_output@@V?$standard_base@DV?$string_output_adapter@D@__crt_stdio_output@@@2@@__crt_stdio_output@@AAE_NQAH@Z 10069730 f i libucrt:output.obj
 0001:000687c6       ?parse_int_from_format_string@?$output_processor@_WV?$stream_output_adapter@_W@__crt_stdio_output@@V?$format_validation_base@_WV?$stream_output_adapter@_W@__crt_stdio_output@@@2@@__crt_stdio_output@@AAE_NQAH@Z 100697c6 f i libucrt:output.obj
 0001:0006885e       ?parse_int_from_format_string@?$output_processor@_WV?$stream_output_adapter@_W@__crt_stdio_output@@V?$positional_parameter_base@_WV?$stream_output_adapter@_W@__crt_stdio_output@@@2@@__crt_stdio_output@@AAE_NQAH@Z 1006985e f i libucrt:output.obj
 0001:000688f6       ?parse_int_from_format_string@?$output_processor@_WV?$stream_output_adapter@_W@__crt_stdio_output@@V?$standard_base@_WV?$stream_output_adapter@_W@__crt_stdio_output@@@2@@__crt_stdio_output@@AAE_NQAH@Z 100698f6 f i libucrt:output.obj
 0001:0006898e       ?parse_int_from_format_string@?$output_processor@_WV?$string_output_adapter@_W@__crt_stdio_output@@V?$format_validation_base@_WV?$string_output_adapter@_W@__crt_stdio_output@@@2@@__crt_stdio_output@@AAE_NQAH@Z 1006998e f i libucrt:output.obj
 0001:00068a26       ?parse_int_from_format_string@?$output_processor@_WV?$string_output_adapter@_W@__crt_stdio_output@@V?$positional_parameter_base@_WV?$string_output_adapter@_W@__crt_stdio_output@@@2@@__crt_stdio_output@@AAE_NQAH@Z 10069a26 f i libucrt:output.obj
 0001:00068abe       ?parse_int_from_format_string@?$output_processor@_WV?$string_output_adapter@_W@__crt_stdio_output@@V?$standard_base@_WV?$string_output_adapter@_W@__crt_stdio_output@@@2@@__crt_stdio_output@@AAE_NQAH@Z 10069abe f i libucrt:output.obj
 0001:00068b56       ?process@?$output_processor@DV?$stream_output_adapter@D@__crt_stdio_output@@V?$format_validation_base@DV?$stream_output_adapter@D@__crt_stdio_output@@@2@@__crt_stdio_output@@QAEHXZ 10069b56 f i libucrt:output.obj
 0001:00068ec6       ?process@?$output_processor@DV?$stream_output_adapter@D@__crt_stdio_output@@V?$positional_parameter_base@DV?$stream_output_adapter@D@__crt_stdio_output@@@2@@__crt_stdio_output@@QAEHXZ 10069ec6 f i libucrt:output.obj
 0001:0006924f       ?process@?$output_processor@DV?$stream_output_adapter@D@__crt_stdio_output@@V?$standard_base@DV?$stream_output_adapter@D@__crt_stdio_output@@@2@@__crt_stdio_output@@QAEHXZ 1006a24f f i libucrt:output.obj
 0001:000695ab       ?process@?$output_processor@DV?$string_output_adapter@D@__crt_stdio_output@@V?$format_validation_base@DV?$string_output_adapter@D@__crt_stdio_output@@@2@@__crt_stdio_output@@QAEHXZ 1006a5ab f i libucrt:output.obj
 0001:00069948       ?process@?$output_processor@DV?$string_output_adapter@D@__crt_stdio_output@@V?$positional_parameter_base@DV?$string_output_adapter@D@__crt_stdio_output@@@2@@__crt_stdio_output@@QAEHXZ 1006a948 f i libucrt:output.obj
 0001:00069d08       ?process@?$output_processor@DV?$string_output_adapter@D@__crt_stdio_output@@V?$standard_base@DV?$string_output_adapter@D@__crt_stdio_output@@@2@@__crt_stdio_output@@QAEHXZ 1006ad08 f i libucrt:output.obj
 0001:0006a091       ?process@?$output_processor@_WV?$stream_output_adapter@_W@__crt_stdio_output@@V?$format_validation_base@_WV?$stream_output_adapter@_W@__crt_stdio_output@@@2@@__crt_stdio_output@@QAEHXZ 1006b091 f i libucrt:output.obj
 0001:0006a334       ?process@?$output_processor@_WV?$stream_output_adapter@_W@__crt_stdio_output@@V?$positional_parameter_base@_WV?$stream_output_adapter@_W@__crt_stdio_output@@@2@@__crt_stdio_output@@QAEHXZ 1006b334 f i libucrt:output.obj
 0001:0006a61d       ?process@?$output_processor@_WV?$stream_output_adapter@_W@__crt_stdio_output@@V?$standard_base@_WV?$stream_output_adapter@_W@__crt_stdio_output@@@2@@__crt_stdio_output@@QAEHXZ 1006b61d f i libucrt:output.obj
 0001:0006a8b1       ?process@?$output_processor@_WV?$string_output_adapter@_W@__crt_stdio_output@@V?$format_validation_base@_WV?$string_output_adapter@_W@__crt_stdio_output@@@2@@__crt_stdio_output@@QAEHXZ 1006b8b1 f i libucrt:output.obj
 0001:0006ab81       ?process@?$output_processor@_WV?$string_output_adapter@_W@__crt_stdio_output@@V?$positional_parameter_base@_WV?$string_output_adapter@_W@__crt_stdio_output@@@2@@__crt_stdio_output@@QAEHXZ 1006bb81 f i libucrt:output.obj
 0001:0006ae83       ?process@?$output_processor@_WV?$string_output_adapter@_W@__crt_stdio_output@@V?$standard_base@_WV?$string_output_adapter@_W@__crt_stdio_output@@@2@@__crt_stdio_output@@QAEHXZ 1006be83 f i libucrt:output.obj
 0001:0006b14e       ?public_stream@__crt_stdio_stream@@QBEPAU_iobuf@@XZ 1006c14e f i libucrt:output.obj
 0001:0006b151       ?restore_state@?$c_string_character_source@D@__crt_strtox@@QAE_NQBD@Z 1006c151 f i libucrt:output.obj
 0001:0006b165       ?restore_state@?$c_string_character_source@_W@__crt_strtox@@QAE_NQB_W@Z 1006c165 f i libucrt:output.obj
 0001:0006b179       ?save_state@?$c_string_character_source@D@__crt_strtox@@QBEPBDXZ 1006c179 f i libucrt:output.obj
 0001:0006b17c       ?save_state@?$c_string_character_source@_W@__crt_strtox@@QBEPB_WXZ 1006c17c f i libucrt:output.obj
 0001:0006b17f       ?set@?$cached@H@__crt_cached_ptd_host@@QAEHH@Z 1006c17f f i libucrt:output.obj
 0001:0006b195       ?set_flag@?$output_processor@DV?$stream_output_adapter@D@__crt_stdio_output@@V?$format_validation_base@DV?$stream_output_adapter@D@__crt_stdio_output@@@2@@__crt_stdio_output@@AAEXI@Z 1006c195 f i libucrt:output.obj
 0001:0006b1a7       ?set_flag@?$output_processor@DV?$stream_output_adapter@D@__crt_stdio_output@@V?$positional_parameter_base@DV?$stream_output_adapter@D@__crt_stdio_output@@@2@@__crt_stdio_output@@AAEXI@Z 1006c1a7 f i libucrt:output.obj
 0001:0006b1b9       ?set_flag@?$output_processor@DV?$stream_output_adapter@D@__crt_stdio_output@@V?$standard_base@DV?$stream_output_adapter@D@__crt_stdio_output@@@2@@__crt_stdio_output@@AAEXI@Z 1006c1b9 f i libucrt:output.obj
 0001:0006b1cb       ?set_flag@?$output_processor@DV?$string_output_adapter@D@__crt_stdio_output@@V?$format_validation_base@DV?$string_output_adapter@D@__crt_stdio_output@@@2@@__crt_stdio_output@@AAEXI@Z 1006c1cb f i libucrt:output.obj
 0001:0006b1dd       ?set_flag@?$output_processor@DV?$string_output_adapter@D@__crt_stdio_output@@V?$positional_parameter_base@DV?$string_output_adapter@D@__crt_stdio_output@@@2@@__crt_stdio_output@@AAEXI@Z 1006c1dd f i libucrt:output.obj
 0001:0006b1ef       ?set_flag@?$output_processor@DV?$string_output_adapter@D@__crt_stdio_output@@V?$standard_base@DV?$string_output_adapter@D@__crt_stdio_output@@@2@@__crt_stdio_output@@AAEXI@Z 1006c1ef f i libucrt:output.obj
 0001:0006b201       ?set_flag@?$output_processor@_WV?$stream_output_adapter@_W@__crt_stdio_output@@V?$format_validation_base@_WV?$stream_output_adapter@_W@__crt_stdio_output@@@2@@__crt_stdio_output@@AAEXI@Z 1006c201 f i libucrt:output.obj
 0001:0006b213       ?set_flag@?$output_processor@_WV?$stream_output_adapter@_W@__crt_stdio_output@@V?$positional_parameter_base@_WV?$stream_output_adapter@_W@__crt_stdio_output@@@2@@__crt_stdio_output@@AAEXI@Z 1006c213 f i libucrt:output.obj
 0001:0006b225       ?set_flag@?$output_processor@_WV?$stream_output_adapter@_W@__crt_stdio_output@@V?$standard_base@_WV?$stream_output_adapter@_W@__crt_stdio_output@@@2@@__crt_stdio_output@@AAEXI@Z 1006c225 f i libucrt:output.obj
 0001:0006b237       ?set_flag@?$output_processor@_WV?$string_output_adapter@_W@__crt_stdio_output@@V?$format_validation_base@_WV?$string_output_adapter@_W@__crt_stdio_output@@@2@@__crt_stdio_output@@AAEXI@Z 1006c237 f i libucrt:output.obj
 0001:0006b249       ?set_flag@?$output_processor@_WV?$string_output_adapter@_W@__crt_stdio_output@@V?$positional_parameter_base@_WV?$string_output_adapter@_W@__crt_stdio_output@@@2@@__crt_stdio_output@@AAEXI@Z 1006c249 f i libucrt:output.obj
 0001:0006b25b       ?set_flag@?$output_processor@_WV?$string_output_adapter@_W@__crt_stdio_output@@V?$standard_base@_WV?$string_output_adapter@_W@__crt_stdio_output@@@2@@__crt_stdio_output@@AAEXI@Z 1006c25b f i libucrt:output.obj
 0001:0006b26d       ?should_format@?$positional_parameter_base@DV?$stream_output_adapter@D@__crt_stdio_output@@@__crt_stdio_output@@IAE_NXZ 1006c26d f i libucrt:output.obj
 0001:0006b288       ?should_format@?$positional_parameter_base@DV?$string_output_adapter@D@__crt_stdio_output@@@__crt_stdio_output@@IAE_NXZ 1006c288 f i libucrt:output.obj
 0001:0006b2a3       ?should_format@?$positional_parameter_base@_WV?$stream_output_adapter@_W@__crt_stdio_output@@@__crt_stdio_output@@IAE_NXZ 1006c2a3 f i libucrt:output.obj
 0001:0006b2be       ?should_format@?$positional_parameter_base@_WV?$string_output_adapter@_W@__crt_stdio_output@@@__crt_stdio_output@@IAE_NXZ 1006c2be f i libucrt:output.obj
 0001:0006b2d9       ?should_format@?$standard_base@DV?$stream_output_adapter@D@__crt_stdio_output@@@__crt_stdio_output@@IAE_NXZ 1006c2d9 f i libucrt:output.obj
 0001:0006b2dc       ?should_format@?$standard_base@DV?$string_output_adapter@D@__crt_stdio_output@@@__crt_stdio_output@@IAE_NXZ 1006c2dc f i libucrt:output.obj
 0001:0006b2df       ?should_format@?$standard_base@_WV?$stream_output_adapter@_W@__crt_stdio_output@@@__crt_stdio_output@@IAE_NXZ 1006c2df f i libucrt:output.obj
 0001:0006b2e2       ?should_format@?$standard_base@_WV?$string_output_adapter@_W@__crt_stdio_output@@@__crt_stdio_output@@IAE_NXZ 1006c2e2 f i libucrt:output.obj
 0001:0006b2e5       ?should_skip_normal_state_processing@?$positional_parameter_base@DV?$stream_output_adapter@D@__crt_stdio_output@@@__crt_stdio_output@@IAE_NXZ 1006c2e5 f i libucrt:output.obj
 0001:0006b319       ?should_skip_normal_state_processing@?$positional_parameter_base@DV?$string_output_adapter@D@__crt_stdio_output@@@__crt_stdio_output@@IAE_NXZ 1006c319 f i libucrt:output.obj
 0001:0006b34d       ?should_skip_normal_state_processing@?$positional_parameter_base@_WV?$stream_output_adapter@_W@__crt_stdio_output@@@__crt_stdio_output@@IAE_NXZ 1006c34d f i libucrt:output.obj
 0001:0006b381       ?should_skip_normal_state_processing@?$positional_parameter_base@_WV?$string_output_adapter@_W@__crt_stdio_output@@@__crt_stdio_output@@IAE_NXZ 1006c381 f i libucrt:output.obj
 0001:0006b3b5       ?should_skip_normal_state_processing@?$standard_base@DV?$stream_output_adapter@D@__crt_stdio_output@@@__crt_stdio_output@@IAE_NXZ 1006c3b5 f i libucrt:output.obj
 0001:0006b3b8       ?should_skip_normal_state_processing@?$standard_base@DV?$string_output_adapter@D@__crt_stdio_output@@@__crt_stdio_output@@IAE_NXZ 1006c3b8 f i libucrt:output.obj
 0001:0006b3bb       ?should_skip_normal_state_processing@?$standard_base@_WV?$stream_output_adapter@_W@__crt_stdio_output@@@__crt_stdio_output@@IAE_NXZ 1006c3bb f i libucrt:output.obj
 0001:0006b3be       ?should_skip_normal_state_processing@?$standard_base@_WV?$string_output_adapter@_W@__crt_stdio_output@@@__crt_stdio_output@@IAE_NXZ 1006c3be f i libucrt:output.obj
 0001:0006b3c1       ?should_skip_type_state_output@?$positional_parameter_base@DV?$stream_output_adapter@D@__crt_stdio_output@@@__crt_stdio_output@@IBE_NXZ 1006c3c1 f i libucrt:output.obj
 0001:0006b3dd       ?should_skip_type_state_output@?$positional_parameter_base@DV?$string_output_adapter@D@__crt_stdio_output@@@__crt_stdio_output@@IBE_NXZ 1006c3dd f i libucrt:output.obj
 0001:0006b3f9       ?should_skip_type_state_output@?$positional_parameter_base@_WV?$stream_output_adapter@_W@__crt_stdio_output@@@__crt_stdio_output@@IBE_NXZ 1006c3f9 f i libucrt:output.obj
 0001:0006b415       ?should_skip_type_state_output@?$positional_parameter_base@_WV?$string_output_adapter@_W@__crt_stdio_output@@@__crt_stdio_output@@IBE_NXZ 1006c415 f i libucrt:output.obj
 0001:0006b431       ?should_skip_type_state_output@?$standard_base@DV?$stream_output_adapter@D@__crt_stdio_output@@@__crt_stdio_output@@IBE_NXZ 1006c431 f i libucrt:output.obj
 0001:0006b434       ?should_skip_type_state_output@?$standard_base@DV?$string_output_adapter@D@__crt_stdio_output@@@__crt_stdio_output@@IBE_NXZ 1006c434 f i libucrt:output.obj
 0001:0006b437       ?should_skip_type_state_output@?$standard_base@_WV?$stream_output_adapter@_W@__crt_stdio_output@@@__crt_stdio_output@@IBE_NXZ 1006c437 f i libucrt:output.obj
 0001:0006b43a       ?should_skip_type_state_output@?$standard_base@_WV?$string_output_adapter@_W@__crt_stdio_output@@@__crt_stdio_output@@IBE_NXZ 1006c43a f i libucrt:output.obj
 0001:0006b43d       ?state_case_dot@?$output_processor@DV?$stream_output_adapter@D@__crt_stdio_output@@V?$format_validation_base@DV?$stream_output_adapter@D@__crt_stdio_output@@@2@@__crt_stdio_output@@AAE_NXZ 1006c43d f i libucrt:output.obj
 0001:0006b444       ?state_case_dot@?$output_processor@DV?$stream_output_adapter@D@__crt_stdio_output@@V?$positional_parameter_base@DV?$stream_output_adapter@D@__crt_stdio_output@@@2@@__crt_stdio_output@@AAE_NXZ 1006c444 f i libucrt:output.obj
 0001:0006b44b       ?state_case_dot@?$output_processor@DV?$stream_output_adapter@D@__crt_stdio_output@@V?$standard_base@DV?$stream_output_adapter@D@__crt_stdio_output@@@2@@__crt_stdio_output@@AAE_NXZ 1006c44b f i libucrt:output.obj
 0001:0006b452       ?state_case_dot@?$output_processor@DV?$string_output_adapter@D@__crt_stdio_output@@V?$format_validation_base@DV?$string_output_adapter@D@__crt_stdio_output@@@2@@__crt_stdio_output@@AAE_NXZ 1006c452 f i libucrt:output.obj
 0001:0006b459       ?state_case_dot@?$output_processor@DV?$string_output_adapter@D@__crt_stdio_output@@V?$positional_parameter_base@DV?$string_output_adapter@D@__crt_stdio_output@@@2@@__crt_stdio_output@@AAE_NXZ 1006c459 f i libucrt:output.obj
 0001:0006b460       ?state_case_dot@?$output_processor@DV?$string_output_adapter@D@__crt_stdio_output@@V?$standard_base@DV?$string_output_adapter@D@__crt_stdio_output@@@2@@__crt_stdio_output@@AAE_NXZ 1006c460 f i libucrt:output.obj
 0001:0006b467       ?state_case_dot@?$output_processor@_WV?$stream_output_adapter@_W@__crt_stdio_output@@V?$format_validation_base@_WV?$stream_output_adapter@_W@__crt_stdio_output@@@2@@__crt_stdio_output@@AAE_NXZ 1006c467 f i libucrt:output.obj
 0001:0006b46e       ?state_case_dot@?$output_processor@_WV?$stream_output_adapter@_W@__crt_stdio_output@@V?$positional_parameter_base@_WV?$stream_output_adapter@_W@__crt_stdio_output@@@2@@__crt_stdio_output@@AAE_NXZ 1006c46e f i libucrt:output.obj
 0001:0006b475       ?state_case_dot@?$output_processor@_WV?$stream_output_adapter@_W@__crt_stdio_output@@V?$standard_base@_WV?$stream_output_adapter@_W@__crt_stdio_output@@@2@@__crt_stdio_output@@AAE_NXZ 1006c475 f i libucrt:output.obj
 0001:0006b47c       ?state_case_dot@?$output_processor@_WV?$string_output_adapter@_W@__crt_stdio_output@@V?$format_validation_base@_WV?$string_output_adapter@_W@__crt_stdio_output@@@2@@__crt_stdio_output@@AAE_NXZ 1006c47c f i libucrt:output.obj
 0001:0006b483       ?state_case_dot@?$output_processor@_WV?$string_output_adapter@_W@__crt_stdio_output@@V?$positional_parameter_base@_WV?$string_output_adapter@_W@__crt_stdio_output@@@2@@__crt_stdio_output@@AAE_NXZ 1006c483 f i libucrt:output.obj
 0001:0006b48a       ?state_case_dot@?$output_processor@_WV?$string_output_adapter@_W@__crt_stdio_output@@V?$standard_base@_WV?$string_output_adapter@_W@__crt_stdio_output@@@2@@__crt_stdio_output@@AAE_NXZ 1006c48a f i libucrt:output.obj
 0001:0006b491       ?state_case_flag@?$output_processor@DV?$stream_output_adapter@D@__crt_stdio_output@@V?$format_validation_base@DV?$stream_output_adapter@D@__crt_stdio_output@@@2@@__crt_stdio_output@@AAE_NXZ 1006c491 f i libucrt:output.obj
 0001:0006b4dd       ?state_case_flag@?$output_processor@DV?$stream_output_adapter@D@__crt_stdio_output@@V?$positional_parameter_base@DV?$stream_output_adapter@D@__crt_stdio_output@@@2@@__crt_stdio_output@@AAE_NXZ 1006c4dd f i libucrt:output.obj
 0001:0006b529       ?state_case_flag@?$output_processor@DV?$stream_output_adapter@D@__crt_stdio_output@@V?$standard_base@DV?$stream_output_adapter@D@__crt_stdio_output@@@2@@__crt_stdio_output@@AAE_NXZ 1006c529 f i libucrt:output.obj
 0001:0006b575       ?state_case_flag@?$output_processor@DV?$string_output_adapter@D@__crt_stdio_output@@V?$format_validation_base@DV?$string_output_adapter@D@__crt_stdio_output@@@2@@__crt_stdio_output@@AAE_NXZ 1006c575 f i libucrt:output.obj
 0001:0006b5c1       ?state_case_flag@?$output_processor@DV?$string_output_adapter@D@__crt_stdio_output@@V?$positional_parameter_base@DV?$string_output_adapter@D@__crt_stdio_output@@@2@@__crt_stdio_output@@AAE_NXZ 1006c5c1 f i libucrt:output.obj
 0001:0006b60d       ?state_case_flag@?$output_processor@DV?$string_output_adapter@D@__crt_stdio_output@@V?$standard_base@DV?$string_output_adapter@D@__crt_stdio_output@@@2@@__crt_stdio_output@@AAE_NXZ 1006c60d f i libucrt:output.obj
 0001:0006b659       ?state_case_flag@?$output_processor@_WV?$stream_output_adapter@_W@__crt_stdio_output@@V?$format_validation_base@_WV?$stream_output_adapter@_W@__crt_stdio_output@@@2@@__crt_stdio_output@@AAE_NXZ 1006c659 f i libucrt:output.obj
 0001:0006b6a5       ?state_case_flag@?$output_processor@_WV?$stream_output_adapter@_W@__crt_stdio_output@@V?$positional_parameter_base@_WV?$stream_output_adapter@_W@__crt_stdio_output@@@2@@__crt_stdio_output@@AAE_NXZ 1006c6a5 f i libucrt:output.obj
 0001:0006b6f1       ?state_case_flag@?$output_processor@_WV?$stream_output_adapter@_W@__crt_stdio_output@@V?$standard_base@_WV?$stream_output_adapter@_W@__crt_stdio_output@@@2@@__crt_stdio_output@@AAE_NXZ 1006c6f1 f i libucrt:output.obj
 0001:0006b73d       ?state_case_flag@?$output_processor@_WV?$string_output_adapter@_W@__crt_stdio_output@@V?$format_validation_base@_WV?$string_output_adapter@_W@__crt_stdio_output@@@2@@__crt_stdio_output@@AAE_NXZ 1006c73d f i libucrt:output.obj
 0001:0006b789       ?state_case_flag@?$output_processor@_WV?$string_output_adapter@_W@__crt_stdio_output@@V?$positional_parameter_base@_WV?$string_output_adapter@_W@__crt_stdio_output@@@2@@__crt_stdio_output@@AAE_NXZ 1006c789 f i libucrt:output.obj
 0001:0006b7d5       ?state_case_flag@?$output_processor@_WV?$string_output_adapter@_W@__crt_stdio_output@@V?$standard_base@_WV?$string_output_adapter@_W@__crt_stdio_output@@@2@@__crt_stdio_output@@AAE_NXZ 1006c7d5 f i libucrt:output.obj
 0001:0006b821       ?state_case_normal@?$output_processor@DV?$stream_output_adapter@D@__crt_stdio_output@@V?$format_validation_base@DV?$stream_output_adapter@D@__crt_stdio_output@@@2@@__crt_stdio_output@@AAE_NXZ 1006c821 f i libucrt:output.obj
 0001:0006b90d       ?state_case_normal@?$output_processor@DV?$stream_output_adapter@D@__crt_stdio_output@@V?$positional_parameter_base@DV?$stream_output_adapter@D@__crt_stdio_output@@@2@@__crt_stdio_output@@AAE_NXZ 1006c90d f i libucrt:output.obj
 0001:0006ba07       ?state_case_normal@?$output_processor@DV?$stream_output_adapter@D@__crt_stdio_output@@V?$standard_base@DV?$stream_output_adapter@D@__crt_stdio_output@@@2@@__crt_stdio_output@@AAE_NXZ 1006ca07 f i libucrt:output.obj
 0001:0006baf3       ?state_case_normal@?$output_processor@DV?$string_output_adapter@D@__crt_stdio_output@@V?$format_validation_base@DV?$string_output_adapter@D@__crt_stdio_output@@@2@@__crt_stdio_output@@AAE_NXZ 1006caf3 f i libucrt:output.obj
 0001:0006bc2e       ?state_case_normal@?$output_processor@DV?$string_output_adapter@D@__crt_stdio_output@@V?$positional_parameter_base@DV?$string_output_adapter@D@__crt_stdio_output@@@2@@__crt_stdio_output@@AAE_NXZ 1006cc2e f i libucrt:output.obj
 0001:0006bd76       ?state_case_normal@?$output_processor@DV?$string_output_adapter@D@__crt_stdio_output@@V?$standard_base@DV?$string_output_adapter@D@__crt_stdio_output@@@2@@__crt_stdio_output@@AAE_NXZ 1006cd76 f i libucrt:output.obj
 0001:0006beb1       ?state_case_normal@?$output_processor@_WV?$stream_output_adapter@_W@__crt_stdio_output@@V?$format_validation_base@_WV?$stream_output_adapter@_W@__crt_stdio_output@@@2@@__crt_stdio_output@@AAE_NXZ 1006ceb1 f i libucrt:output.obj
 0001:0006bed6       ?state_case_normal@?$output_processor@_WV?$stream_output_adapter@_W@__crt_stdio_output@@V?$positional_parameter_base@_WV?$stream_output_adapter@_W@__crt_stdio_output@@@2@@__crt_stdio_output@@AAE_NXZ 1006ced6 f i libucrt:output.obj
 0001:0006bf0e       ?state_case_normal@?$output_processor@_WV?$stream_output_adapter@_W@__crt_stdio_output@@V?$standard_base@_WV?$stream_output_adapter@_W@__crt_stdio_output@@@2@@__crt_stdio_output@@AAE_NXZ 1006cf0e f i libucrt:output.obj
 0001:0006bf33       ?state_case_normal@?$output_processor@_WV?$string_output_adapter@_W@__crt_stdio_output@@V?$format_validation_base@_WV?$string_output_adapter@_W@__crt_stdio_output@@@2@@__crt_stdio_output@@AAE_NXZ 1006cf33 f i libucrt:output.obj
 0001:0006bf8d       ?state_case_normal@?$output_processor@_WV?$string_output_adapter@_W@__crt_stdio_output@@V?$positional_parameter_base@_WV?$string_output_adapter@_W@__crt_stdio_output@@@2@@__crt_stdio_output@@AAE_NXZ 1006cf8d f i libucrt:output.obj
 0001:0006bff4       ?state_case_normal@?$output_processor@_WV?$string_output_adapter@_W@__crt_stdio_output@@V?$standard_base@_WV?$string_output_adapter@_W@__crt_stdio_output@@@2@@__crt_stdio_output@@AAE_NXZ 1006cff4 f i libucrt:output.obj
 0001:0006c04e       ?state_case_normal_common@?$output_processor@DV?$stream_output_adapter@D@__crt_stdio_output@@V?$format_validation_base@DV?$stream_output_adapter@D@__crt_stdio_output@@@2@@__crt_stdio_output@@AAE_NXZ 1006d04e f i libucrt:output.obj
 0001:0006c10c       ?state_case_normal_common@?$output_processor@DV?$stream_output_adapter@D@__crt_stdio_output@@V?$positional_parameter_base@DV?$stream_output_adapter@D@__crt_stdio_output@@@2@@__crt_stdio_output@@AAE_NXZ 1006d10c f i libucrt:output.obj
 0001:0006c1ca       ?state_case_normal_common@?$output_processor@DV?$stream_output_adapter@D@__crt_stdio_output@@V?$standard_base@DV?$stream_output_adapter@D@__crt_stdio_output@@@2@@__crt_stdio_output@@AAE_NXZ 1006d1ca f i libucrt:output.obj
 0001:0006c288       ?state_case_normal_common@?$output_processor@DV?$string_output_adapter@D@__crt_stdio_output@@V?$format_validation_base@DV?$string_output_adapter@D@__crt_stdio_output@@@2@@__crt_stdio_output@@AAE_NXZ 1006d288 f i libucrt:output.obj
 0001:0006c3a0       ?state_case_normal_common@?$output_processor@DV?$string_output_adapter@D@__crt_stdio_output@@V?$positional_parameter_base@DV?$string_output_adapter@D@__crt_stdio_output@@@2@@__crt_stdio_output@@AAE_NXZ 1006d3a0 f i libucrt:output.obj
 0001:0006c4b8       ?state_case_normal_common@?$output_processor@DV?$string_output_adapter@D@__crt_stdio_output@@V?$standard_base@DV?$string_output_adapter@D@__crt_stdio_output@@@2@@__crt_stdio_output@@AAE_NXZ 1006d4b8 f i libucrt:output.obj
 0001:0006c5d0       ?state_case_normal_common@?$output_processor@_WV?$stream_output_adapter@_W@__crt_stdio_output@@V?$format_validation_base@_WV?$stream_output_adapter@_W@__crt_stdio_output@@@2@@__crt_stdio_output@@AAE_NXZ 1006d5d0 f i libucrt:output.obj
 0001:0006c5f5       ?state_case_normal_common@?$output_processor@_WV?$stream_output_adapter@_W@__crt_stdio_output@@V?$positional_parameter_base@_WV?$stream_output_adapter@_W@__crt_stdio_output@@@2@@__crt_stdio_output@@AAE_NXZ 1006d5f5 f i libucrt:output.obj
 0001:0006c61a       ?state_case_normal_common@?$output_processor@_WV?$stream_output_adapter@_W@__crt_stdio_output@@V?$standard_base@_WV?$stream_output_adapter@_W@__crt_stdio_output@@@2@@__crt_stdio_output@@AAE_NXZ 1006d61a f i libucrt:output.obj
 0001:0006c63f       ?state_case_normal_common@?$output_processor@_WV?$string_output_adapter@_W@__crt_stdio_output@@V?$format_validation_base@_WV?$string_output_adapter@_W@__crt_stdio_output@@@2@@__crt_stdio_output@@AAE_NXZ 1006d63f f i libucrt:output.obj
 0001:0006c699       ?state_case_normal_common@?$output_processor@_WV?$string_output_adapter@_W@__crt_stdio_output@@V?$positional_parameter_base@_WV?$string_output_adapter@_W@__crt_stdio_output@@@2@@__crt_stdio_output@@AAE_NXZ 1006d699 f i libucrt:output.obj
 0001:0006c6f3       ?state_case_normal_common@?$output_processor@_WV?$string_output_adapter@_W@__crt_stdio_output@@V?$standard_base@_WV?$string_output_adapter@_W@__crt_stdio_output@@@2@@__crt_stdio_output@@AAE_NXZ 1006d6f3 f i libucrt:output.obj
 0001:0006c74d       ?state_case_normal_tchar@?$output_processor@DV?$stream_output_adapter@D@__crt_stdio_output@@V?$format_validation_base@DV?$stream_output_adapter@D@__crt_stdio_output@@@2@@__crt_stdio_output@@AAE_ND@Z 1006d74d f i libucrt:output.obj
 0001:0006c7f5       ?state_case_normal_tchar@?$output_processor@DV?$stream_output_adapter@D@__crt_stdio_output@@V?$positional_parameter_base@DV?$stream_output_adapter@D@__crt_stdio_output@@@2@@__crt_stdio_output@@AAE_ND@Z 1006d7f5 f i libucrt:output.obj
 0001:0006c89d       ?state_case_normal_tchar@?$output_processor@DV?$stream_output_adapter@D@__crt_stdio_output@@V?$standard_base@DV?$stream_output_adapter@D@__crt_stdio_output@@@2@@__crt_stdio_output@@AAE_ND@Z 1006d89d f i libucrt:output.obj
 0001:0006c945       ?state_case_normal_tchar@?$output_processor@DV?$string_output_adapter@D@__crt_stdio_output@@V?$format_validation_base@DV?$string_output_adapter@D@__crt_stdio_output@@@2@@__crt_stdio_output@@AAE_ND@Z 1006d945 f i libucrt:output.obj
 0001:0006ca1a       ?state_case_normal_tchar@?$output_processor@DV?$string_output_adapter@D@__crt_stdio_output@@V?$positional_parameter_base@DV?$string_output_adapter@D@__crt_stdio_output@@@2@@__crt_stdio_output@@AAE_ND@Z 1006da1a f i libucrt:output.obj
 0001:0006caef       ?state_case_normal_tchar@?$output_processor@DV?$string_output_adapter@D@__crt_stdio_output@@V?$standard_base@DV?$string_output_adapter@D@__crt_stdio_output@@@2@@__crt_stdio_output@@AAE_ND@Z 1006daef f i libucrt:output.obj
 0001:0006cbc4       ?state_case_normal_tchar@?$output_processor@_WV?$stream_output_adapter@_W@__crt_stdio_output@@V?$format_validation_base@_WV?$stream_output_adapter@_W@__crt_stdio_output@@@2@@__crt_stdio_output@@AAE_N_W@Z 1006dbc4 f i libucrt:output.obj
 0001:0006cbcf       ?state_case_normal_tchar@?$output_processor@_WV?$stream_output_adapter@_W@__crt_stdio_output@@V?$positional_parameter_base@_WV?$stream_output_adapter@_W@__crt_stdio_output@@@2@@__crt_stdio_output@@AAE_N_W@Z 1006dbcf f i libucrt:output.obj
 0001:0006cbda       ?state_case_normal_tchar@?$output_processor@_WV?$stream_output_adapter@_W@__crt_stdio_output@@V?$standard_base@_WV?$stream_output_adapter@_W@__crt_stdio_output@@@2@@__crt_stdio_output@@AAE_N_W@Z 1006dbda f i libucrt:output.obj
 0001:0006cbe5       ?state_case_normal_tchar@?$output_processor@_WV?$string_output_adapter@_W@__crt_stdio_output@@V?$format_validation_base@_WV?$string_output_adapter@_W@__crt_stdio_output@@@2@@__crt_stdio_output@@AAE_N_W@Z 1006dbe5 f i libucrt:output.obj
 0001:0006cbf0       ?state_case_normal_tchar@?$output_processor@_WV?$string_output_adapter@_W@__crt_stdio_output@@V?$positional_parameter_base@_WV?$string_output_adapter@_W@__crt_stdio_output@@@2@@__crt_stdio_output@@AAE_N_W@Z 1006dbf0 f i libucrt:output.obj
 0001:0006cbfb       ?state_case_normal_tchar@?$output_processor@_WV?$string_output_adapter@_W@__crt_stdio_output@@V?$standard_base@_WV?$string_output_adapter@_W@__crt_stdio_output@@@2@@__crt_stdio_output@@AAE_N_W@Z 1006dbfb f i libucrt:output.obj
 0001:0006cc06       ?state_case_percent@?$output_processor@DV?$stream_output_adapter@D@__crt_stdio_output@@V?$format_validation_base@DV?$stream_output_adapter@D@__crt_stdio_output@@@2@@__crt_stdio_output@@AAE_NXZ 1006dc06 f i libucrt:output.obj
 0001:0006cc24       ?state_case_percent@?$output_processor@DV?$stream_output_adapter@D@__crt_stdio_output@@V?$positional_parameter_base@DV?$stream_output_adapter@D@__crt_stdio_output@@@2@@__crt_stdio_output@@AAE_NXZ 1006dc24 f i libucrt:output.obj
 0001:0006cc42       ?state_case_percent@?$output_processor@DV?$stream_output_adapter@D@__crt_stdio_output@@V?$standard_base@DV?$stream_output_adapter@D@__crt_stdio_output@@@2@@__crt_stdio_output@@AAE_NXZ 1006dc42 f i libucrt:output.obj
 0001:0006cc60       ?state_case_percent@?$output_processor@DV?$string_output_adapter@D@__crt_stdio_output@@V?$format_validation_base@DV?$string_output_adapter@D@__crt_stdio_output@@@2@@__crt_stdio_output@@AAE_NXZ 1006dc60 f i libucrt:output.obj
 0001:0006cc7e       ?state_case_percent@?$output_processor@DV?$string_output_adapter@D@__crt_stdio_output@@V?$positional_parameter_base@DV?$string_output_adapter@D@__crt_stdio_output@@@2@@__crt_stdio_output@@AAE_NXZ 1006dc7e f i libucrt:output.obj
 0001:0006cc9c       ?state_case_percent@?$output_processor@DV?$string_output_adapter@D@__crt_stdio_output@@V?$standard_base@DV?$string_output_adapter@D@__crt_stdio_output@@@2@@__crt_stdio_output@@AAE_NXZ 1006dc9c f i libucrt:output.obj
 0001:0006ccba       ?state_case_percent@?$output_processor@_WV?$stream_output_adapter@_W@__crt_stdio_output@@V?$format_validation_base@_WV?$stream_output_adapter@_W@__crt_stdio_output@@@2@@__crt_stdio_output@@AAE_NXZ 1006dcba f i libucrt:output.obj
 0001:0006ccd8       ?state_case_percent@?$output_processor@_WV?$stream_output_adapter@_W@__crt_stdio_output@@V?$positional_parameter_base@_WV?$stream_output_adapter@_W@__crt_stdio_output@@@2@@__crt_stdio_output@@AAE_NXZ 1006dcd8 f i libucrt:output.obj
 0001:0006ccf6       ?state_case_percent@?$output_processor@_WV?$stream_output_adapter@_W@__crt_stdio_output@@V?$standard_base@_WV?$stream_output_adapter@_W@__crt_stdio_output@@@2@@__crt_stdio_output@@AAE_NXZ 1006dcf6 f i libucrt:output.obj
 0001:0006cd14       ?state_case_percent@?$output_processor@_WV?$string_output_adapter@_W@__crt_stdio_output@@V?$format_validation_base@_WV?$string_output_adapter@_W@__crt_stdio_output@@@2@@__crt_stdio_output@@AAE_NXZ 1006dd14 f i libucrt:output.obj
 0001:0006cd32       ?state_case_percent@?$output_processor@_WV?$string_output_adapter@_W@__crt_stdio_output@@V?$positional_parameter_base@_WV?$string_output_adapter@_W@__crt_stdio_output@@@2@@__crt_stdio_output@@AAE_NXZ 1006dd32 f i libucrt:output.obj
 0001:0006cd50       ?state_case_percent@?$output_processor@_WV?$string_output_adapter@_W@__crt_stdio_output@@V?$standard_base@_WV?$string_output_adapter@_W@__crt_stdio_output@@@2@@__crt_stdio_output@@AAE_NXZ 1006dd50 f i libucrt:output.obj
 0001:0006cd6e       ?state_case_precision@?$output_processor@DV?$stream_output_adapter@D@__crt_stdio_output@@V?$format_validation_base@DV?$stream_output_adapter@D@__crt_stdio_output@@@2@@__crt_stdio_output@@AAE_NXZ 1006dd6e f i libucrt:output.obj
 0001:0006cda5       ?state_case_precision@?$output_processor@DV?$stream_output_adapter@D@__crt_stdio_output@@V?$positional_parameter_base@DV?$stream_output_adapter@D@__crt_stdio_output@@@2@@__crt_stdio_output@@AAE_NXZ 1006dda5 f i libucrt:output.obj
 0001:0006cded       ?state_case_precision@?$output_processor@DV?$stream_output_adapter@D@__crt_stdio_output@@V?$standard_base@DV?$stream_output_adapter@D@__crt_stdio_output@@@2@@__crt_stdio_output@@AAE_NXZ 1006dded f i libucrt:output.obj
 0001:0006ce24       ?state_case_precision@?$output_processor@DV?$string_output_adapter@D@__crt_stdio_output@@V?$format_validation_base@DV?$string_output_adapter@D@__crt_stdio_output@@@2@@__crt_stdio_output@@AAE_NXZ 1006de24 f i libucrt:output.obj
 0001:0006ce5b       ?state_case_precision@?$output_processor@DV?$string_output_adapter@D@__crt_stdio_output@@V?$positional_parameter_base@DV?$string_output_adapter@D@__crt_stdio_output@@@2@@__crt_stdio_output@@AAE_NXZ 1006de5b f i libucrt:output.obj
 0001:0006cea3       ?state_case_precision@?$output_processor@DV?$string_output_adapter@D@__crt_stdio_output@@V?$standard_base@DV?$string_output_adapter@D@__crt_stdio_output@@@2@@__crt_stdio_output@@AAE_NXZ 1006dea3 f i libucrt:output.obj
 0001:0006ceda       ?state_case_precision@?$output_processor@_WV?$stream_output_adapter@_W@__crt_stdio_output@@V?$format_validation_base@_WV?$stream_output_adapter@_W@__crt_stdio_output@@@2@@__crt_stdio_output@@AAE_NXZ 1006deda f i libucrt:output.obj
 0001:0006cf12       ?state_case_precision@?$output_processor@_WV?$stream_output_adapter@_W@__crt_stdio_output@@V?$positional_parameter_base@_WV?$stream_output_adapter@_W@__crt_stdio_output@@@2@@__crt_stdio_output@@AAE_NXZ 1006df12 f i libucrt:output.obj
 0001:0006cf5b       ?state_case_precision@?$output_processor@_WV?$stream_output_adapter@_W@__crt_stdio_output@@V?$standard_base@_WV?$stream_output_adapter@_W@__crt_stdio_output@@@2@@__crt_stdio_output@@AAE_NXZ 1006df5b f i libucrt:output.obj
 0001:0006cf93       ?state_case_precision@?$output_processor@_WV?$string_output_adapter@_W@__crt_stdio_output@@V?$format_validation_base@_WV?$string_output_adapter@_W@__crt_stdio_output@@@2@@__crt_stdio_output@@AAE_NXZ 1006df93 f i libucrt:output.obj
 0001:0006cfcb       ?state_case_precision@?$output_processor@_WV?$string_output_adapter@_W@__crt_stdio_output@@V?$positional_parameter_base@_WV?$string_output_adapter@_W@__crt_stdio_output@@@2@@__crt_stdio_output@@AAE_NXZ 1006dfcb f i libucrt:output.obj
 0001:0006d014       ?state_case_precision@?$output_processor@_WV?$string_output_adapter@_W@__crt_stdio_output@@V?$standard_base@_WV?$string_output_adapter@_W@__crt_stdio_output@@@2@@__crt_stdio_output@@AAE_NXZ 1006e014 f i libucrt:output.obj
 0001:0006d04c       ?state_case_size@?$output_processor@DV?$stream_output_adapter@D@__crt_stdio_output@@V?$format_validation_base@DV?$stream_output_adapter@D@__crt_stdio_output@@@2@@__crt_stdio_output@@AAE_NXZ 1006e04c f i libucrt:output.obj
 0001:0006d1fb       ?state_case_size@?$output_processor@DV?$stream_output_adapter@D@__crt_stdio_output@@V?$positional_parameter_base@DV?$stream_output_adapter@D@__crt_stdio_output@@@2@@__crt_stdio_output@@AAE_NXZ 1006e1fb f i libucrt:output.obj
 0001:0006d3aa       ?state_case_size@?$output_processor@DV?$stream_output_adapter@D@__crt_stdio_output@@V?$standard_base@DV?$stream_output_adapter@D@__crt_stdio_output@@@2@@__crt_stdio_output@@AAE_NXZ 1006e3aa f i libucrt:output.obj
 0001:0006d559       ?state_case_size@?$output_processor@DV?$string_output_adapter@D@__crt_stdio_output@@V?$format_validation_base@DV?$string_output_adapter@D@__crt_stdio_output@@@2@@__crt_stdio_output@@AAE_NXZ 1006e559 f i libucrt:output.obj
 0001:0006d708       ?state_case_size@?$output_processor@DV?$string_output_adapter@D@__crt_stdio_output@@V?$positional_parameter_base@DV?$string_output_adapter@D@__crt_stdio_output@@@2@@__crt_stdio_output@@AAE_NXZ 1006e708 f i libucrt:output.obj
 0001:0006d8b7       ?state_case_size@?$output_processor@DV?$string_output_adapter@D@__crt_stdio_output@@V?$standard_base@DV?$string_output_adapter@D@__crt_stdio_output@@@2@@__crt_stdio_output@@AAE_NXZ 1006e8b7 f i libucrt:output.obj
 0001:0006da66       ?state_case_size@?$output_processor@_WV?$stream_output_adapter@_W@__crt_stdio_output@@V?$format_validation_base@_WV?$stream_output_adapter@_W@__crt_stdio_output@@@2@@__crt_stdio_output@@AAE_NXZ 1006ea66 f i libucrt:output.obj
 0001:0006dc52       ?state_case_size@?$output_processor@_WV?$stream_output_adapter@_W@__crt_stdio_output@@V?$positional_parameter_base@_WV?$stream_output_adapter@_W@__crt_stdio_output@@@2@@__crt_stdio_output@@AAE_NXZ 1006ec52 f i libucrt:output.obj
 0001:0006de3e       ?state_case_size@?$output_processor@_WV?$stream_output_adapter@_W@__crt_stdio_output@@V?$standard_base@_WV?$stream_output_adapter@_W@__crt_stdio_output@@@2@@__crt_stdio_output@@AAE_NXZ 1006ee3e f i libucrt:output.obj
 0001:0006e02a       ?state_case_size@?$output_processor@_WV?$string_output_adapter@_W@__crt_stdio_output@@V?$format_validation_base@_WV?$string_output_adapter@_W@__crt_stdio_output@@@2@@__crt_stdio_output@@AAE_NXZ 1006f02a f i libucrt:output.obj
 0001:0006e216       ?state_case_size@?$output_processor@_WV?$string_output_adapter@_W@__crt_stdio_output@@V?$positional_parameter_base@_WV?$string_output_adapter@_W@__crt_stdio_output@@@2@@__crt_stdio_output@@AAE_NXZ 1006f216 f i libucrt:output.obj
 0001:0006e402       ?state_case_size@?$output_processor@_WV?$string_output_adapter@_W@__crt_stdio_output@@V?$standard_base@_WV?$string_output_adapter@_W@__crt_stdio_output@@@2@@__crt_stdio_output@@AAE_NXZ 1006f402 f i libucrt:output.obj
 0001:0006e5ee       ?state_case_type@?$output_processor@DV?$stream_output_adapter@D@__crt_stdio_output@@V?$format_validation_base@DV?$stream_output_adapter@D@__crt_stdio_output@@@2@@__crt_stdio_output@@AAE_NXZ 1006f5ee f i libucrt:output.obj
 0001:0006ea00       ?state_case_type@?$output_processor@DV?$stream_output_adapter@D@__crt_stdio_output@@V?$positional_parameter_base@DV?$stream_output_adapter@D@__crt_stdio_output@@@2@@__crt_stdio_output@@AAE_NXZ 1006fa00 f i libucrt:output.obj
 0001:0006ee25       ?state_case_type@?$output_processor@DV?$stream_output_adapter@D@__crt_stdio_output@@V?$standard_base@DV?$stream_output_adapter@D@__crt_stdio_output@@@2@@__crt_stdio_output@@AAE_NXZ 1006fe25 f i libucrt:output.obj
 0001:0006f237       ?state_case_type@?$output_processor@DV?$string_output_adapter@D@__crt_stdio_output@@V?$format_validation_base@DV?$string_output_adapter@D@__crt_stdio_output@@@2@@__crt_stdio_output@@AAE_NXZ 10070237 f i libucrt:output.obj
 0001:0006f66d       ?state_case_type@?$output_processor@DV?$string_output_adapter@D@__crt_stdio_output@@V?$positional_parameter_base@DV?$string_output_adapter@D@__crt_stdio_output@@@2@@__crt_stdio_output@@AAE_NXZ 1007066d f i libucrt:output.obj
 0001:0006fab6       ?state_case_type@?$output_processor@DV?$string_output_adapter@D@__crt_stdio_output@@V?$standard_base@DV?$string_output_adapter@D@__crt_stdio_output@@@2@@__crt_stdio_output@@AAE_NXZ 10070ab6 f i libucrt:output.obj
 0001:0006feec       ?state_case_type@?$output_processor@_WV?$stream_output_adapter@_W@__crt_stdio_output@@V?$format_validation_base@_WV?$stream_output_adapter@_W@__crt_stdio_output@@@2@@__crt_stdio_output@@AAE_NXZ 10070eec f i libucrt:output.obj
 0001:00070321       ?state_case_type@?$output_processor@_WV?$stream_output_adapter@_W@__crt_stdio_output@@V?$positional_parameter_base@_WV?$stream_output_adapter@_W@__crt_stdio_output@@@2@@__crt_stdio_output@@AAE_NXZ 10071321 f i libucrt:output.obj
 0001:00070769       ?state_case_type@?$output_processor@_WV?$stream_output_adapter@_W@__crt_stdio_output@@V?$standard_base@_WV?$stream_output_adapter@_W@__crt_stdio_output@@@2@@__crt_stdio_output@@AAE_NXZ 10071769 f i libucrt:output.obj
 0001:00070b9e       ?state_case_type@?$output_processor@_WV?$string_output_adapter@_W@__crt_stdio_output@@V?$format_validation_base@_WV?$string_output_adapter@_W@__crt_stdio_output@@@2@@__crt_stdio_output@@AAE_NXZ 10071b9e f i libucrt:output.obj
 0001:0007108f       ?state_case_type@?$output_processor@_WV?$string_output_adapter@_W@__crt_stdio_output@@V?$positional_parameter_base@_WV?$string_output_adapter@_W@__crt_stdio_output@@@2@@__crt_stdio_output@@AAE_NXZ 1007208f f i libucrt:output.obj
 0001:00071592       ?state_case_type@?$output_processor@_WV?$string_output_adapter@_W@__crt_stdio_output@@V?$standard_base@_WV?$string_output_adapter@_W@__crt_stdio_output@@@2@@__crt_stdio_output@@AAE_NXZ 10072592 f i libucrt:output.obj
 0001:00071a83       ?state_case_width@?$output_processor@DV?$stream_output_adapter@D@__crt_stdio_output@@V?$format_validation_base@DV?$stream_output_adapter@D@__crt_stdio_output@@@2@@__crt_stdio_output@@AAE_NXZ 10072a83 f i libucrt:output.obj
 0001:00071ac0       ?state_case_width@?$output_processor@DV?$stream_output_adapter@D@__crt_stdio_output@@V?$positional_parameter_base@DV?$stream_output_adapter@D@__crt_stdio_output@@@2@@__crt_stdio_output@@AAE_NXZ 10072ac0 f i libucrt:output.obj
 0001:00071b10       ?state_case_width@?$output_processor@DV?$stream_output_adapter@D@__crt_stdio_output@@V?$standard_base@DV?$stream_output_adapter@D@__crt_stdio_output@@@2@@__crt_stdio_output@@AAE_NXZ 10072b10 f i libucrt:output.obj
 0001:00071b4d       ?state_case_width@?$output_processor@DV?$string_output_adapter@D@__crt_stdio_output@@V?$format_validation_base@DV?$string_output_adapter@D@__crt_stdio_output@@@2@@__crt_stdio_output@@AAE_NXZ 10072b4d f i libucrt:output.obj
 0001:00071b8a       ?state_case_width@?$output_processor@DV?$string_output_adapter@D@__crt_stdio_output@@V?$positional_parameter_base@DV?$string_output_adapter@D@__crt_stdio_output@@@2@@__crt_stdio_output@@AAE_NXZ 10072b8a f i libucrt:output.obj
 0001:00071bda       ?state_case_width@?$output_processor@DV?$string_output_adapter@D@__crt_stdio_output@@V?$standard_base@DV?$string_output_adapter@D@__crt_stdio_output@@@2@@__crt_stdio_output@@AAE_NXZ 10072bda f i libucrt:output.obj
 0001:00071c17       ?state_case_width@?$output_processor@_WV?$stream_output_adapter@_W@__crt_stdio_output@@V?$format_validation_base@_WV?$stream_output_adapter@_W@__crt_stdio_output@@@2@@__crt_stdio_output@@AAE_NXZ 10072c17 f i libucrt:output.obj
 0001:00071c55       ?state_case_width@?$output_processor@_WV?$stream_output_adapter@_W@__crt_stdio_output@@V?$positional_parameter_base@_WV?$stream_output_adapter@_W@__crt_stdio_output@@@2@@__crt_stdio_output@@AAE_NXZ 10072c55 f i libucrt:output.obj
 0001:00071ca6       ?state_case_width@?$output_processor@_WV?$stream_output_adapter@_W@__crt_stdio_output@@V?$standard_base@_WV?$stream_output_adapter@_W@__crt_stdio_output@@@2@@__crt_stdio_output@@AAE_NXZ 10072ca6 f i libucrt:output.obj
 0001:00071ce4       ?state_case_width@?$output_processor@_WV?$string_output_adapter@_W@__crt_stdio_output@@V?$format_validation_base@_WV?$string_output_adapter@_W@__crt_stdio_output@@@2@@__crt_stdio_output@@AAE_NXZ 10072ce4 f i libucrt:output.obj
 0001:00071d22       ?state_case_width@?$output_processor@_WV?$string_output_adapter@_W@__crt_stdio_output@@V?$positional_parameter_base@_WV?$string_output_adapter@_W@__crt_stdio_output@@@2@@__crt_stdio_output@@AAE_NXZ 10072d22 f i libucrt:output.obj
 0001:00071d73       ?state_case_width@?$output_processor@_WV?$string_output_adapter@_W@__crt_stdio_output@@V?$standard_base@_WV?$string_output_adapter@_W@__crt_stdio_output@@@2@@__crt_stdio_output@@AAE_NXZ 10072d73 f i libucrt:output.obj
 0001:00071db1       ?state_count@?$format_validation_base@DV?$stream_output_adapter@D@__crt_stdio_output@@@__crt_stdio_output@@KAIXZ 10072db1 f i libucrt:output.obj
 0001:00071db5       ?state_count@?$format_validation_base@DV?$string_output_adapter@D@__crt_stdio_output@@@__crt_stdio_output@@KAIXZ 10072db5 f i libucrt:output.obj
 0001:00071db9       ?state_count@?$format_validation_base@_WV?$stream_output_adapter@_W@__crt_stdio_output@@@__crt_stdio_output@@KAIXZ 10072db9 f i libucrt:output.obj
 0001:00071dbd       ?state_count@?$format_validation_base@_WV?$string_output_adapter@_W@__crt_stdio_output@@@__crt_stdio_output@@KAIXZ 10072dbd f i libucrt:output.obj
 0001:00071dc1       ?state_count@?$standard_base@DV?$stream_output_adapter@D@__crt_stdio_output@@@__crt_stdio_output@@KAIXZ 10072dc1 f i libucrt:output.obj
 0001:00071dc5       ?state_count@?$standard_base@DV?$string_output_adapter@D@__crt_stdio_output@@@__crt_stdio_output@@KAIXZ 10072dc5 f i libucrt:output.obj
 0001:00071dc9       ?state_count@?$standard_base@_WV?$stream_output_adapter@_W@__crt_stdio_output@@@__crt_stdio_output@@KAIXZ 10072dc9 f i libucrt:output.obj
 0001:00071dcd       ?state_count@?$standard_base@_WV?$string_output_adapter@_W@__crt_stdio_output@@@__crt_stdio_output@@KAIXZ 10072dcd f i libucrt:output.obj
 0001:00071dd1       ?state_transition_table@?$format_validation_base@DV?$stream_output_adapter@D@__crt_stdio_output@@@__crt_stdio_output@@KAABV?$spectre_mitigated_lookup_table@Ustate_transition_pair@__crt_stdio_output@@$0IA@@2@XZ 10072dd1 f i libucrt:output.obj
 0001:00071dd7       ?state_transition_table@?$format_validation_base@DV?$string_output_adapter@D@__crt_stdio_output@@@__crt_stdio_output@@KAABV?$spectre_mitigated_lookup_table@Ustate_transition_pair@__crt_stdio_output@@$0IA@@2@XZ 10072dd7 f i libucrt:output.obj
 0001:00071ddd       ?state_transition_table@?$format_validation_base@_WV?$stream_output_adapter@_W@__crt_stdio_output@@@__crt_stdio_output@@KAABV?$spectre_mitigated_lookup_table@Ustate_transition_pair@__crt_stdio_output@@$0IA@@2@XZ 10072ddd f i libucrt:output.obj
 0001:00071de3       ?state_transition_table@?$format_validation_base@_WV?$string_output_adapter@_W@__crt_stdio_output@@@__crt_stdio_output@@KAABV?$spectre_mitigated_lookup_table@Ustate_transition_pair@__crt_stdio_output@@$0IA@@2@XZ 10072de3 f i libucrt:output.obj
 0001:00071de9       ?state_transition_table@?$standard_base@DV?$stream_output_adapter@D@__crt_stdio_output@@@__crt_stdio_output@@KAABV?$spectre_mitigated_lookup_table@Ustate_transition_pair@__crt_stdio_output@@$0IA@@2@XZ 10072de9 f i libucrt:output.obj
 0001:00071def       ?state_transition_table@?$standard_base@DV?$string_output_adapter@D@__crt_stdio_output@@@__crt_stdio_output@@KAABV?$spectre_mitigated_lookup_table@Ustate_transition_pair@__crt_stdio_output@@$0IA@@2@XZ 10072def f i libucrt:output.obj
 0001:00071df5       ?state_transition_table@?$standard_base@_WV?$stream_output_adapter@_W@__crt_stdio_output@@@__crt_stdio_output@@KAABV?$spectre_mitigated_lookup_table@Ustate_transition_pair@__crt_stdio_output@@$0IA@@2@XZ 10072df5 f i libucrt:output.obj
 0001:00071dfb       ?state_transition_table@?$standard_base@_WV?$string_output_adapter@_W@__crt_stdio_output@@@__crt_stdio_output@@KAABV?$spectre_mitigated_lookup_table@Ustate_transition_pair@__crt_stdio_output@@$0IA@@2@XZ 10072dfb f i libucrt:output.obj
 0001:00071e01       ?tchar_string@?$common_data@D@__crt_stdio_output@@IAEAAPADD@Z 10072e01 f i libucrt:output.obj
 0001:00071e07       ?tchar_string@?$common_data@D@__crt_stdio_output@@IAEAAPADXZ 10072e07 f i libucrt:output.obj
 0001:00071e0b       ?tchar_string@?$common_data@_W@__crt_stdio_output@@IAEAAPA_WXZ 10072e0b f i libucrt:output.obj
 0001:00071e0f       ?tchar_string@?$common_data@_W@__crt_stdio_output@@IAEAAPA_W_W@Z 10072e0f f i libucrt:output.obj
 0001:00071e15       ?to_integer_size@__crt_stdio_output@@YAIW4length_modifier@1@@Z 10072e15 f i libucrt:output.obj
 0001:00071e7e       ?type_case_X@?$output_processor@DV?$stream_output_adapter@D@__crt_stdio_output@@V?$format_validation_base@DV?$stream_output_adapter@D@__crt_stdio_output@@@2@@__crt_stdio_output@@AAE_NXZ 10072e7e f i libucrt:output.obj
 0001:00071e88       ?type_case_X@?$output_processor@DV?$stream_output_adapter@D@__crt_stdio_output@@V?$positional_parameter_base@DV?$stream_output_adapter@D@__crt_stdio_output@@@2@@__crt_stdio_output@@AAE_NXZ 10072e88 f i libucrt:output.obj
 0001:00071e92       ?type_case_X@?$output_processor@DV?$stream_output_adapter@D@__crt_stdio_output@@V?$standard_base@DV?$stream_output_adapter@D@__crt_stdio_output@@@2@@__crt_stdio_output@@AAE_NXZ 10072e92 f i libucrt:output.obj
 0001:00071e9c       ?type_case_X@?$output_processor@DV?$string_output_adapter@D@__crt_stdio_output@@V?$format_validation_base@DV?$string_output_adapter@D@__crt_stdio_output@@@2@@__crt_stdio_output@@AAE_NXZ 10072e9c f i libucrt:output.obj
 0001:00071ea6       ?type_case_X@?$output_processor@DV?$string_output_adapter@D@__crt_stdio_output@@V?$positional_parameter_base@DV?$string_output_adapter@D@__crt_stdio_output@@@2@@__crt_stdio_output@@AAE_NXZ 10072ea6 f i libucrt:output.obj
 0001:00071eb0       ?type_case_X@?$output_processor@DV?$string_output_adapter@D@__crt_stdio_output@@V?$standard_base@DV?$string_output_adapter@D@__crt_stdio_output@@@2@@__crt_stdio_output@@AAE_NXZ 10072eb0 f i libucrt:output.obj
 0001:00071eba       ?type_case_X@?$output_processor@_WV?$stream_output_adapter@_W@__crt_stdio_output@@V?$format_validation_base@_WV?$stream_output_adapter@_W@__crt_stdio_output@@@2@@__crt_stdio_output@@AAE_NXZ 10072eba f i libucrt:output.obj
 0001:00071ec4       ?type_case_X@?$output_processor@_WV?$stream_output_adapter@_W@__crt_stdio_output@@V?$positional_parameter_base@_WV?$stream_output_adapter@_W@__crt_stdio_output@@@2@@__crt_stdio_output@@AAE_NXZ 10072ec4 f i libucrt:output.obj
 0001:00071ece       ?type_case_X@?$output_processor@_WV?$stream_output_adapter@_W@__crt_stdio_output@@V?$standard_base@_WV?$stream_output_adapter@_W@__crt_stdio_output@@@2@@__crt_stdio_output@@AAE_NXZ 10072ece f i libucrt:output.obj
 0001:00071ed8       ?type_case_X@?$output_processor@_WV?$string_output_adapter@_W@__crt_stdio_output@@V?$format_validation_base@_WV?$string_output_adapter@_W@__crt_stdio_output@@@2@@__crt_stdio_output@@AAE_NXZ 10072ed8 f i libucrt:output.obj
 0001:00071ee2       ?type_case_X@?$output_processor@_WV?$string_output_adapter@_W@__crt_stdio_output@@V?$positional_parameter_base@_WV?$string_output_adapter@_W@__crt_stdio_output@@@2@@__crt_stdio_output@@AAE_NXZ 10072ee2 f i libucrt:output.obj
 0001:00071eec       ?type_case_X@?$output_processor@_WV?$string_output_adapter@_W@__crt_stdio_output@@V?$standard_base@_WV?$string_output_adapter@_W@__crt_stdio_output@@@2@@__crt_stdio_output@@AAE_NXZ 10072eec f i libucrt:output.obj
 0001:00071ef6       ?type_case_Z@?$output_processor@DV?$stream_output_adapter@D@__crt_stdio_output@@V?$format_validation_base@DV?$stream_output_adapter@D@__crt_stdio_output@@@2@@__crt_stdio_output@@AAE_NXZ 10072ef6 f i libucrt:output.obj
 0001:00071f71       ?type_case_Z@?$output_processor@DV?$stream_output_adapter@D@__crt_stdio_output@@V?$positional_parameter_base@DV?$stream_output_adapter@D@__crt_stdio_output@@@2@@__crt_stdio_output@@AAE_NXZ 10072f71 f i libucrt:output.obj
 0001:00072009       ?type_case_Z@?$output_processor@DV?$stream_output_adapter@D@__crt_stdio_output@@V?$standard_base@DV?$stream_output_adapter@D@__crt_stdio_output@@@2@@__crt_stdio_output@@AAE_NXZ 10073009 f i libucrt:output.obj
 0001:00072084       ?type_case_Z@?$output_processor@DV?$string_output_adapter@D@__crt_stdio_output@@V?$format_validation_base@DV?$string_output_adapter@D@__crt_stdio_output@@@2@@__crt_stdio_output@@AAE_NXZ 10073084 f i libucrt:output.obj
 0001:000720ff       ?type_case_Z@?$output_processor@DV?$string_output_adapter@D@__crt_stdio_output@@V?$positional_parameter_base@DV?$string_output_adapter@D@__crt_stdio_output@@@2@@__crt_stdio_output@@AAE_NXZ 100730ff f i libucrt:output.obj
 0001:00072197       ?type_case_Z@?$output_processor@DV?$string_output_adapter@D@__crt_stdio_output@@V?$standard_base@DV?$string_output_adapter@D@__crt_stdio_output@@@2@@__crt_stdio_output@@AAE_NXZ 10073197 f i libucrt:output.obj
 0001:00072212       ?type_case_Z@?$output_processor@_WV?$stream_output_adapter@_W@__crt_stdio_output@@V?$format_validation_base@_WV?$stream_output_adapter@_W@__crt_stdio_output@@@2@@__crt_stdio_output@@AAE_NXZ 10073212 f i libucrt:output.obj
 0001:0007228d       ?type_case_Z@?$output_processor@_WV?$stream_output_adapter@_W@__crt_stdio_output@@V?$positional_parameter_base@_WV?$stream_output_adapter@_W@__crt_stdio_output@@@2@@__crt_stdio_output@@AAE_NXZ 1007328d f i libucrt:output.obj
 0001:00072325       ?type_case_Z@?$output_processor@_WV?$stream_output_adapter@_W@__crt_stdio_output@@V?$standard_base@_WV?$stream_output_adapter@_W@__crt_stdio_output@@@2@@__crt_stdio_output@@AAE_NXZ 10073325 f i libucrt:output.obj
 0001:000723a0       ?type_case_Z@?$output_processor@_WV?$string_output_adapter@_W@__crt_stdio_output@@V?$format_validation_base@_WV?$string_output_adapter@_W@__crt_stdio_output@@@2@@__crt_stdio_output@@AAE_NXZ 100733a0 f i libucrt:output.obj
 0001:0007241b       ?type_case_Z@?$output_processor@_WV?$string_output_adapter@_W@__crt_stdio_output@@V?$positional_parameter_base@_WV?$string_output_adapter@_W@__crt_stdio_output@@@2@@__crt_stdio_output@@AAE_NXZ 1007341b f i libucrt:output.obj
 0001:000724b3       ?type_case_Z@?$output_processor@_WV?$string_output_adapter@_W@__crt_stdio_output@@V?$standard_base@_WV?$string_output_adapter@_W@__crt_stdio_output@@@2@@__crt_stdio_output@@AAE_NXZ 100734b3 f i libucrt:output.obj
 0001:0007252e       ?type_case_a@?$output_processor@DV?$stream_output_adapter@D@__crt_stdio_output@@V?$format_validation_base@DV?$stream_output_adapter@D@__crt_stdio_output@@@2@@__crt_stdio_output@@AAE_NXZ 1007352e f i libucrt:output.obj
 0001:00072723       ?type_case_a@?$output_processor@DV?$stream_output_adapter@D@__crt_stdio_output@@V?$positional_parameter_base@DV?$stream_output_adapter@D@__crt_stdio_output@@@2@@__crt_stdio_output@@AAE_NXZ 10073723 f i libucrt:output.obj
 0001:0007293c       ?type_case_a@?$output_processor@DV?$stream_output_adapter@D@__crt_stdio_output@@V?$standard_base@DV?$stream_output_adapter@D@__crt_stdio_output@@@2@@__crt_stdio_output@@AAE_NXZ 1007393c f i libucrt:output.obj
 0001:00072b31       ?type_case_a@?$output_processor@DV?$string_output_adapter@D@__crt_stdio_output@@V?$format_validation_base@DV?$string_output_adapter@D@__crt_stdio_output@@@2@@__crt_stdio_output@@AAE_NXZ 10073b31 f i libucrt:output.obj
 0001:00072d26       ?type_case_a@?$output_processor@DV?$string_output_adapter@D@__crt_stdio_output@@V?$positional_parameter_base@DV?$string_output_adapter@D@__crt_stdio_output@@@2@@__crt_stdio_output@@AAE_NXZ 10073d26 f i libucrt:output.obj
 0001:00072f3f       ?type_case_a@?$output_processor@DV?$string_output_adapter@D@__crt_stdio_output@@V?$standard_base@DV?$string_output_adapter@D@__crt_stdio_output@@@2@@__crt_stdio_output@@AAE_NXZ 10073f3f f i libucrt:output.obj
 0001:00073134       ?type_case_a@?$output_processor@_WV?$stream_output_adapter@_W@__crt_stdio_output@@V?$format_validation_base@_WV?$stream_output_adapter@_W@__crt_stdio_output@@@2@@__crt_stdio_output@@AAE_NXZ 10074134 f i libucrt:output.obj
 0001:00073344       ?type_case_a@?$output_processor@_WV?$stream_output_adapter@_W@__crt_stdio_output@@V?$positional_parameter_base@_WV?$stream_output_adapter@_W@__crt_stdio_output@@@2@@__crt_stdio_output@@AAE_NXZ 10074344 f i libucrt:output.obj
 0001:00073579       ?type_case_a@?$output_processor@_WV?$stream_output_adapter@_W@__crt_stdio_output@@V?$standard_base@_WV?$stream_output_adapter@_W@__crt_stdio_output@@@2@@__crt_stdio_output@@AAE_NXZ 10074579 f i libucrt:output.obj
 0001:00073789       ?type_case_a@?$output_processor@_WV?$string_output_adapter@_W@__crt_stdio_output@@V?$format_validation_base@_WV?$string_output_adapter@_W@__crt_stdio_output@@@2@@__crt_stdio_output@@AAE_NXZ 10074789 f i libucrt:output.obj
 0001:00073999       ?type_case_a@?$output_processor@_WV?$string_output_adapter@_W@__crt_stdio_output@@V?$positional_parameter_base@_WV?$string_output_adapter@_W@__crt_stdio_output@@@2@@__crt_stdio_output@@AAE_NXZ 10074999 f i libucrt:output.obj
 0001:00073bce       ?type_case_a@?$output_processor@_WV?$string_output_adapter@_W@__crt_stdio_output@@V?$standard_base@_WV?$string_output_adapter@_W@__crt_stdio_output@@@2@@__crt_stdio_output@@AAE_NXZ 10074bce f i libucrt:output.obj
 0001:00073dde       ?type_case_c@?$output_processor@DV?$stream_output_adapter@D@__crt_stdio_output@@V?$format_validation_base@DV?$stream_output_adapter@D@__crt_stdio_output@@@2@@__crt_stdio_output@@AAE_NXZ 10074dde f i libucrt:output.obj
 0001:00073de8       ?type_case_c@?$output_processor@DV?$stream_output_adapter@D@__crt_stdio_output@@V?$positional_parameter_base@DV?$stream_output_adapter@D@__crt_stdio_output@@@2@@__crt_stdio_output@@AAE_NXZ 10074de8 f i libucrt:output.obj
 0001:00073df2       ?type_case_c@?$output_processor@DV?$stream_output_adapter@D@__crt_stdio_output@@V?$standard_base@DV?$stream_output_adapter@D@__crt_stdio_output@@@2@@__crt_stdio_output@@AAE_NXZ 10074df2 f i libucrt:output.obj
 0001:00073dfc       ?type_case_c@?$output_processor@DV?$string_output_adapter@D@__crt_stdio_output@@V?$format_validation_base@DV?$string_output_adapter@D@__crt_stdio_output@@@2@@__crt_stdio_output@@AAE_NXZ 10074dfc f i libucrt:output.obj
 0001:00073e06       ?type_case_c@?$output_processor@DV?$string_output_adapter@D@__crt_stdio_output@@V?$positional_parameter_base@DV?$string_output_adapter@D@__crt_stdio_output@@@2@@__crt_stdio_output@@AAE_NXZ 10074e06 f i libucrt:output.obj
 0001:00073e10       ?type_case_c@?$output_processor@DV?$string_output_adapter@D@__crt_stdio_output@@V?$standard_base@DV?$string_output_adapter@D@__crt_stdio_output@@@2@@__crt_stdio_output@@AAE_NXZ 10074e10 f i libucrt:output.obj
 0001:00073e1a       ?type_case_c@?$output_processor@_WV?$stream_output_adapter@_W@__crt_stdio_output@@V?$format_validation_base@_WV?$stream_output_adapter@_W@__crt_stdio_output@@@2@@__crt_stdio_output@@AAE_NXZ 10074e1a f i libucrt:output.obj
 0001:00073e24       ?type_case_c@?$output_processor@_WV?$stream_output_adapter@_W@__crt_stdio_output@@V?$positional_parameter_base@_WV?$stream_output_adapter@_W@__crt_stdio_output@@@2@@__crt_stdio_output@@AAE_NXZ 10074e24 f i libucrt:output.obj
 0001:00073e2e       ?type_case_c@?$output_processor@_WV?$stream_output_adapter@_W@__crt_stdio_output@@V?$standard_base@_WV?$stream_output_adapter@_W@__crt_stdio_output@@@2@@__crt_stdio_output@@AAE_NXZ 10074e2e f i libucrt:output.obj
 0001:00073e38       ?type_case_c@?$output_processor@_WV?$string_output_adapter@_W@__crt_stdio_output@@V?$format_validation_base@_WV?$string_output_adapter@_W@__crt_stdio_output@@@2@@__crt_stdio_output@@AAE_NXZ 10074e38 f i libucrt:output.obj
 0001:00073e42       ?type_case_c@?$output_processor@_WV?$string_output_adapter@_W@__crt_stdio_output@@V?$positional_parameter_base@_WV?$string_output_adapter@_W@__crt_stdio_output@@@2@@__crt_stdio_output@@AAE_NXZ 10074e42 f i libucrt:output.obj
 0001:00073e4c       ?type_case_c@?$output_processor@_WV?$string_output_adapter@_W@__crt_stdio_output@@V?$standard_base@_WV?$string_output_adapter@_W@__crt_stdio_output@@@2@@__crt_stdio_output@@AAE_NXZ 10074e4c f i libucrt:output.obj
 0001:00073e56       ?type_case_c_tchar@?$output_processor@DV?$stream_output_adapter@D@__crt_stdio_output@@V?$format_validation_base@DV?$stream_output_adapter@D@__crt_stdio_output@@@2@@__crt_stdio_output@@AAE_ND@Z 10074e56 f i libucrt:output.obj
 0001:00073f10       ?type_case_c_tchar@?$output_processor@DV?$stream_output_adapter@D@__crt_stdio_output@@V?$positional_parameter_base@DV?$stream_output_adapter@D@__crt_stdio_output@@@2@@__crt_stdio_output@@AAE_ND@Z 10074f10 f i libucrt:output.obj
 0001:00073ffe       ?type_case_c_tchar@?$output_processor@DV?$stream_output_adapter@D@__crt_stdio_output@@V?$standard_base@DV?$stream_output_adapter@D@__crt_stdio_output@@@2@@__crt_stdio_output@@AAE_ND@Z 10074ffe f i libucrt:output.obj
 0001:000740b8       ?type_case_c_tchar@?$output_processor@DV?$string_output_adapter@D@__crt_stdio_output@@V?$format_validation_base@DV?$string_output_adapter@D@__crt_stdio_output@@@2@@__crt_stdio_output@@AAE_ND@Z 100750b8 f i libucrt:output.obj
 0001:00074172       ?type_case_c_tchar@?$output_processor@DV?$string_output_adapter@D@__crt_stdio_output@@V?$positional_parameter_base@DV?$string_output_adapter@D@__crt_stdio_output@@@2@@__crt_stdio_output@@AAE_ND@Z 10075172 f i libucrt:output.obj
 0001:00074260       ?type_case_c_tchar@?$output_processor@DV?$string_output_adapter@D@__crt_stdio_output@@V?$standard_base@DV?$string_output_adapter@D@__crt_stdio_output@@@2@@__crt_stdio_output@@AAE_ND@Z 10075260 f i libucrt:output.obj
 0001:0007431a       ?type_case_c_tchar@?$output_processor@_WV?$stream_output_adapter@_W@__crt_stdio_output@@V?$format_validation_base@_WV?$stream_output_adapter@_W@__crt_stdio_output@@@2@@__crt_stdio_output@@AAE_N_W@Z 1007531a f i libucrt:output.obj
 0001:000743ec       ?type_case_c_tchar@?$output_processor@_WV?$stream_output_adapter@_W@__crt_stdio_output@@V?$positional_parameter_base@_WV?$stream_output_adapter@_W@__crt_stdio_output@@@2@@__crt_stdio_output@@AAE_N_W@Z 100753ec f i libucrt:output.obj
 0001:000744e9       ?type_case_c_tchar@?$output_processor@_WV?$stream_output_adapter@_W@__crt_stdio_output@@V?$standard_base@_WV?$stream_output_adapter@_W@__crt_stdio_output@@@2@@__crt_stdio_output@@AAE_N_W@Z 100754e9 f i libucrt:output.obj
 0001:000745bb       ?type_case_c_tchar@?$output_processor@_WV?$string_output_adapter@_W@__crt_stdio_output@@V?$format_validation_base@_WV?$string_output_adapter@_W@__crt_stdio_output@@@2@@__crt_stdio_output@@AAE_N_W@Z 100755bb f i libucrt:output.obj
 0001:0007468d       ?type_case_c_tchar@?$output_processor@_WV?$string_output_adapter@_W@__crt_stdio_output@@V?$positional_parameter_base@_WV?$string_output_adapter@_W@__crt_stdio_output@@@2@@__crt_stdio_output@@AAE_N_W@Z 1007568d f i libucrt:output.obj
 0001:0007478a       ?type_case_c_tchar@?$output_processor@_WV?$string_output_adapter@_W@__crt_stdio_output@@V?$standard_base@_WV?$string_output_adapter@_W@__crt_stdio_output@@@2@@__crt_stdio_output@@AAE_N_W@Z 1007578a f i libucrt:output.obj
 0001:0007485c       ?type_case_d@?$output_processor@DV?$stream_output_adapter@D@__crt_stdio_output@@V?$format_validation_base@DV?$stream_output_adapter@D@__crt_stdio_output@@@2@@__crt_stdio_output@@AAE_NXZ 1007585c f i libucrt:output.obj
 0001:0007486b       ?type_case_d@?$output_processor@DV?$stream_output_adapter@D@__crt_stdio_output@@V?$positional_parameter_base@DV?$stream_output_adapter@D@__crt_stdio_output@@@2@@__crt_stdio_output@@AAE_NXZ 1007586b f i libucrt:output.obj
 0001:0007487a       ?type_case_d@?$output_processor@DV?$stream_output_adapter@D@__crt_stdio_output@@V?$standard_base@DV?$stream_output_adapter@D@__crt_stdio_output@@@2@@__crt_stdio_output@@AAE_NXZ 1007587a f i libucrt:output.obj
 0001:00074889       ?type_case_d@?$output_processor@DV?$string_output_adapter@D@__crt_stdio_output@@V?$format_validation_base@DV?$string_output_adapter@D@__crt_stdio_output@@@2@@__crt_stdio_output@@AAE_NXZ 10075889 f i libucrt:output.obj
 0001:00074898       ?type_case_d@?$output_processor@DV?$string_output_adapter@D@__crt_stdio_output@@V?$positional_parameter_base@DV?$string_output_adapter@D@__crt_stdio_output@@@2@@__crt_stdio_output@@AAE_NXZ 10075898 f i libucrt:output.obj
 0001:000748a7       ?type_case_d@?$output_processor@DV?$string_output_adapter@D@__crt_stdio_output@@V?$standard_base@DV?$string_output_adapter@D@__crt_stdio_output@@@2@@__crt_stdio_output@@AAE_NXZ 100758a7 f i libucrt:output.obj
 0001:000748b6       ?type_case_d@?$output_processor@_WV?$stream_output_adapter@_W@__crt_stdio_output@@V?$format_validation_base@_WV?$stream_output_adapter@_W@__crt_stdio_output@@@2@@__crt_stdio_output@@AAE_NXZ 100758b6 f i libucrt:output.obj
 0001:000748c5       ?type_case_d@?$output_processor@_WV?$stream_output_adapter@_W@__crt_stdio_output@@V?$positional_parameter_base@_WV?$stream_output_adapter@_W@__crt_stdio_output@@@2@@__crt_stdio_output@@AAE_NXZ 100758c5 f i libucrt:output.obj
 0001:000748d4       ?type_case_d@?$output_processor@_WV?$stream_output_adapter@_W@__crt_stdio_output@@V?$standard_base@_WV?$stream_output_adapter@_W@__crt_stdio_output@@@2@@__crt_stdio_output@@AAE_NXZ 100758d4 f i libucrt:output.obj
 0001:000748e3       ?type_case_d@?$output_processor@_WV?$string_output_adapter@_W@__crt_stdio_output@@V?$format_validation_base@_WV?$string_output_adapter@_W@__crt_stdio_output@@@2@@__crt_stdio_output@@AAE_NXZ 100758e3 f i libucrt:output.obj
 0001:000748f2       ?type_case_d@?$output_processor@_WV?$string_output_adapter@_W@__crt_stdio_output@@V?$positional_parameter_base@_WV?$string_output_adapter@_W@__crt_stdio_output@@@2@@__crt_stdio_output@@AAE_NXZ 100758f2 f i libucrt:output.obj
 0001:00074901       ?type_case_d@?$output_processor@_WV?$string_output_adapter@_W@__crt_stdio_output@@V?$standard_base@_WV?$string_output_adapter@_W@__crt_stdio_output@@@2@@__crt_stdio_output@@AAE_NXZ 10075901 f i libucrt:output.obj
 0001:00074910       ?type_case_n@?$output_processor@DV?$stream_output_adapter@D@__crt_stdio_output@@V?$format_validation_base@DV?$stream_output_adapter@D@__crt_stdio_output@@@2@@__crt_stdio_output@@AAE_NXZ 10075910 f i libucrt:output.obj
 0001:000749b6       ?type_case_n@?$output_processor@DV?$stream_output_adapter@D@__crt_stdio_output@@V?$positional_parameter_base@DV?$stream_output_adapter@D@__crt_stdio_output@@@2@@__crt_stdio_output@@AAE_NXZ 100759b6 f i libucrt:output.obj
 0001:00074a8e       ?type_case_n@?$output_processor@DV?$stream_output_adapter@D@__crt_stdio_output@@V?$standard_base@DV?$stream_output_adapter@D@__crt_stdio_output@@@2@@__crt_stdio_output@@AAE_NXZ 10075a8e f i libucrt:output.obj
 0001:00074b34       ?type_case_n@?$output_processor@DV?$string_output_adapter@D@__crt_stdio_output@@V?$format_validation_base@DV?$string_output_adapter@D@__crt_stdio_output@@@2@@__crt_stdio_output@@AAE_NXZ 10075b34 f i libucrt:output.obj
 0001:00074bda       ?type_case_n@?$output_processor@DV?$string_output_adapter@D@__crt_stdio_output@@V?$positional_parameter_base@DV?$string_output_adapter@D@__crt_stdio_output@@@2@@__crt_stdio_output@@AAE_NXZ 10075bda f i libucrt:output.obj
 0001:00074cb2       ?type_case_n@?$output_processor@DV?$string_output_adapter@D@__crt_stdio_output@@V?$standard_base@DV?$string_output_adapter@D@__crt_stdio_output@@@2@@__crt_stdio_output@@AAE_NXZ 10075cb2 f i libucrt:output.obj
 0001:00074d58       ?type_case_n@?$output_processor@_WV?$stream_output_adapter@_W@__crt_stdio_output@@V?$format_validation_base@_WV?$stream_output_adapter@_W@__crt_stdio_output@@@2@@__crt_stdio_output@@AAE_NXZ 10075d58 f i libucrt:output.obj
 0001:00074dfe       ?type_case_n@?$output_processor@_WV?$stream_output_adapter@_W@__crt_stdio_output@@V?$positional_parameter_base@_WV?$stream_output_adapter@_W@__crt_stdio_output@@@2@@__crt_stdio_output@@AAE_NXZ 10075dfe f i libucrt:output.obj
 0001:00074ed6       ?type_case_n@?$output_processor@_WV?$stream_output_adapter@_W@__crt_stdio_output@@V?$standard_base@_WV?$stream_output_adapter@_W@__crt_stdio_output@@@2@@__crt_stdio_output@@AAE_NXZ 10075ed6 f i libucrt:output.obj
 0001:00074f7c       ?type_case_n@?$output_processor@_WV?$string_output_adapter@_W@__crt_stdio_output@@V?$format_validation_base@_WV?$string_output_adapter@_W@__crt_stdio_output@@@2@@__crt_stdio_output@@AAE_NXZ 10075f7c f i libucrt:output.obj
 0001:00075022       ?type_case_n@?$output_processor@_WV?$string_output_adapter@_W@__crt_stdio_output@@V?$positional_parameter_base@_WV?$string_output_adapter@_W@__crt_stdio_output@@@2@@__crt_stdio_output@@AAE_NXZ 10076022 f i libucrt:output.obj
 0001:000750fa       ?type_case_n@?$output_processor@_WV?$string_output_adapter@_W@__crt_stdio_output@@V?$standard_base@_WV?$string_output_adapter@_W@__crt_stdio_output@@@2@@__crt_stdio_output@@AAE_NXZ 100760fa f i libucrt:output.obj
 0001:000751a0       ?type_case_o@?$output_processor@DV?$stream_output_adapter@D@__crt_stdio_output@@V?$format_validation_base@DV?$stream_output_adapter@D@__crt_stdio_output@@@2@@__crt_stdio_output@@AAE_NXZ 100761a0 f i libucrt:output.obj
 0001:000751c4       ?type_case_o@?$output_processor@DV?$stream_output_adapter@D@__crt_stdio_output@@V?$positional_parameter_base@DV?$stream_output_adapter@D@__crt_stdio_output@@@2@@__crt_stdio_output@@AAE_NXZ 100761c4 f i libucrt:output.obj
 0001:000751e8       ?type_case_o@?$output_processor@DV?$stream_output_adapter@D@__crt_stdio_output@@V?$standard_base@DV?$stream_output_adapter@D@__crt_stdio_output@@@2@@__crt_stdio_output@@AAE_NXZ 100761e8 f i libucrt:output.obj
 0001:0007520c       ?type_case_o@?$output_processor@DV?$string_output_adapter@D@__crt_stdio_output@@V?$format_validation_base@DV?$string_output_adapter@D@__crt_stdio_output@@@2@@__crt_stdio_output@@AAE_NXZ 1007620c f i libucrt:output.obj
 0001:00075230       ?type_case_o@?$output_processor@DV?$string_output_adapter@D@__crt_stdio_output@@V?$positional_parameter_base@DV?$string_output_adapter@D@__crt_stdio_output@@@2@@__crt_stdio_output@@AAE_NXZ 10076230 f i libucrt:output.obj
 0001:00075254       ?type_case_o@?$output_processor@DV?$string_output_adapter@D@__crt_stdio_output@@V?$standard_base@DV?$string_output_adapter@D@__crt_stdio_output@@@2@@__crt_stdio_output@@AAE_NXZ 10076254 f i libucrt:output.obj
 0001:00075278       ?type_case_o@?$output_processor@_WV?$stream_output_adapter@_W@__crt_stdio_output@@V?$format_validation_base@_WV?$stream_output_adapter@_W@__crt_stdio_output@@@2@@__crt_stdio_output@@AAE_NXZ 10076278 f i libucrt:output.obj
 0001:0007529c       ?type_case_o@?$output_processor@_WV?$stream_output_adapter@_W@__crt_stdio_output@@V?$positional_parameter_base@_WV?$stream_output_adapter@_W@__crt_stdio_output@@@2@@__crt_stdio_output@@AAE_NXZ 1007629c f i libucrt:output.obj
 0001:000752c0       ?type_case_o@?$output_processor@_WV?$stream_output_adapter@_W@__crt_stdio_output@@V?$standard_base@_WV?$stream_output_adapter@_W@__crt_stdio_output@@@2@@__crt_stdio_output@@AAE_NXZ 100762c0 f i libucrt:output.obj
 0001:000752e4       ?type_case_o@?$output_processor@_WV?$string_output_adapter@_W@__crt_stdio_output@@V?$format_validation_base@_WV?$string_output_adapter@_W@__crt_stdio_output@@@2@@__crt_stdio_output@@AAE_NXZ 100762e4 f i libucrt:output.obj
 0001:00075308       ?type_case_o@?$output_processor@_WV?$string_output_adapter@_W@__crt_stdio_output@@V?$positional_parameter_base@_WV?$string_output_adapter@_W@__crt_stdio_output@@@2@@__crt_stdio_output@@AAE_NXZ 10076308 f i libucrt:output.obj
 0001:0007532c       ?type_case_o@?$output_processor@_WV?$string_output_adapter@_W@__crt_stdio_output@@V?$standard_base@_WV?$string_output_adapter@_W@__crt_stdio_output@@@2@@__crt_stdio_output@@AAE_NXZ 1007632c f i libucrt:output.obj
 0001:00075350       ?type_case_p@?$output_processor@DV?$stream_output_adapter@D@__crt_stdio_output@@V?$format_validation_base@DV?$stream_output_adapter@D@__crt_stdio_output@@@2@@__crt_stdio_output@@AAE_NXZ 10076350 f i libucrt:output.obj
 0001:0007536b       ?type_case_p@?$output_processor@DV?$stream_output_adapter@D@__crt_stdio_output@@V?$positional_parameter_base@DV?$stream_output_adapter@D@__crt_stdio_output@@@2@@__crt_stdio_output@@AAE_NXZ 1007636b f i libucrt:output.obj
 0001:00075386       ?type_case_p@?$output_processor@DV?$stream_output_adapter@D@__crt_stdio_output@@V?$standard_base@DV?$stream_output_adapter@D@__crt_stdio_output@@@2@@__crt_stdio_output@@AAE_NXZ 10076386 f i libucrt:output.obj
 0001:000753a1       ?type_case_p@?$output_processor@DV?$string_output_adapter@D@__crt_stdio_output@@V?$format_validation_base@DV?$string_output_adapter@D@__crt_stdio_output@@@2@@__crt_stdio_output@@AAE_NXZ 100763a1 f i libucrt:output.obj
 0001:000753bc       ?type_case_p@?$output_processor@DV?$string_output_adapter@D@__crt_stdio_output@@V?$positional_parameter_base@DV?$string_output_adapter@D@__crt_stdio_output@@@2@@__crt_stdio_output@@AAE_NXZ 100763bc f i libucrt:output.obj
 0001:000753d7       ?type_case_p@?$output_processor@DV?$string_output_adapter@D@__crt_stdio_output@@V?$standard_base@DV?$string_output_adapter@D@__crt_stdio_output@@@2@@__crt_stdio_output@@AAE_NXZ 100763d7 f i libucrt:output.obj
 0001:000753f2       ?type_case_p@?$output_processor@_WV?$stream_output_adapter@_W@__crt_stdio_output@@V?$format_validation_base@_WV?$stream_output_adapter@_W@__crt_stdio_output@@@2@@__crt_stdio_output@@AAE_NXZ 100763f2 f i libucrt:output.obj
 0001:0007540d       ?type_case_p@?$output_processor@_WV?$stream_output_adapter@_W@__crt_stdio_output@@V?$positional_parameter_base@_WV?$stream_output_adapter@_W@__crt_stdio_output@@@2@@__crt_stdio_output@@AAE_NXZ 1007640d f i libucrt:output.obj
 0001:00075428       ?type_case_p@?$output_processor@_WV?$stream_output_adapter@_W@__crt_stdio_output@@V?$standard_base@_WV?$stream_output_adapter@_W@__crt_stdio_output@@@2@@__crt_stdio_output@@AAE_NXZ 10076428 f i libucrt:output.obj
 0001:00075443       ?type_case_p@?$output_processor@_WV?$string_output_adapter@_W@__crt_stdio_output@@V?$format_validation_base@_WV?$string_output_adapter@_W@__crt_stdio_output@@@2@@__crt_stdio_output@@AAE_NXZ 10076443 f i libucrt:output.obj
 0001:0007545e       ?type_case_p@?$output_processor@_WV?$string_output_adapter@_W@__crt_stdio_output@@V?$positional_parameter_base@_WV?$string_output_adapter@_W@__crt_stdio_output@@@2@@__crt_stdio_output@@AAE_NXZ 1007645e f i libucrt:output.obj
 0001:00075479       ?type_case_p@?$output_processor@_WV?$string_output_adapter@_W@__crt_stdio_output@@V?$standard_base@_WV?$string_output_adapter@_W@__crt_stdio_output@@@2@@__crt_stdio_output@@AAE_NXZ 10076479 f i libucrt:output.obj
 0001:00075494       ?type_case_s@?$output_processor@DV?$stream_output_adapter@D@__crt_stdio_output@@V?$format_validation_base@DV?$stream_output_adapter@D@__crt_stdio_output@@@2@@__crt_stdio_output@@AAE_NXZ 10076494 f i libucrt:output.obj
 0001:00075522       ?type_case_s@?$output_processor@DV?$stream_output_adapter@D@__crt_stdio_output@@V?$positional_parameter_base@DV?$stream_output_adapter@D@__crt_stdio_output@@@2@@__crt_stdio_output@@AAE_NXZ 10076522 f i libucrt:output.obj
 0001:000755bf       ?type_case_s@?$output_processor@DV?$stream_output_adapter@D@__crt_stdio_output@@V?$standard_base@DV?$stream_output_adapter@D@__crt_stdio_output@@@2@@__crt_stdio_output@@AAE_NXZ 100765bf f i libucrt:output.obj
 0001:0007564d       ?type_case_s@?$output_processor@DV?$string_output_adapter@D@__crt_stdio_output@@V?$format_validation_base@DV?$string_output_adapter@D@__crt_stdio_output@@@2@@__crt_stdio_output@@AAE_NXZ 1007664d f i libucrt:output.obj
 0001:000756db       ?type_case_s@?$output_processor@DV?$string_output_adapter@D@__crt_stdio_output@@V?$positional_parameter_base@DV?$string_output_adapter@D@__crt_stdio_output@@@2@@__crt_stdio_output@@AAE_NXZ 100766db f i libucrt:output.obj
 0001:00075778       ?type_case_s@?$output_processor@DV?$string_output_adapter@D@__crt_stdio_output@@V?$standard_base@DV?$string_output_adapter@D@__crt_stdio_output@@@2@@__crt_stdio_output@@AAE_NXZ 10076778 f i libucrt:output.obj
 0001:00075806       ?type_case_s@?$output_processor@_WV?$stream_output_adapter@_W@__crt_stdio_output@@V?$format_validation_base@_WV?$stream_output_adapter@_W@__crt_stdio_output@@@2@@__crt_stdio_output@@AAE_NXZ 10076806 f i libucrt:output.obj
 0001:00075897       ?type_case_s@?$output_processor@_WV?$stream_output_adapter@_W@__crt_stdio_output@@V?$positional_parameter_base@_WV?$stream_output_adapter@_W@__crt_stdio_output@@@2@@__crt_stdio_output@@AAE_NXZ 10076897 f i libucrt:output.obj
 0001:00075937       ?type_case_s@?$output_processor@_WV?$stream_output_adapter@_W@__crt_stdio_output@@V?$standard_base@_WV?$stream_output_adapter@_W@__crt_stdio_output@@@2@@__crt_stdio_output@@AAE_NXZ 10076937 f i libucrt:output.obj
 0001:000759c8       ?type_case_s@?$output_processor@_WV?$string_output_adapter@_W@__crt_stdio_output@@V?$format_validation_base@_WV?$string_output_adapter@_W@__crt_stdio_output@@@2@@__crt_stdio_output@@AAE_NXZ 100769c8 f i libucrt:output.obj
 0001:00075a59       ?type_case_s@?$output_processor@_WV?$string_output_adapter@_W@__crt_stdio_output@@V?$positional_parameter_base@_WV?$string_output_adapter@_W@__crt_stdio_output@@@2@@__crt_stdio_output@@AAE_NXZ 10076a59 f i libucrt:output.obj
 0001:00075af9       ?type_case_s@?$output_processor@_WV?$string_output_adapter@_W@__crt_stdio_output@@V?$standard_base@_WV?$string_output_adapter@_W@__crt_stdio_output@@@2@@__crt_stdio_output@@AAE_NXZ 10076af9 f i libucrt:output.obj
 0001:00075b8a       ?type_case_s_compute_narrow_string_length@?$output_processor@DV?$stream_output_adapter@D@__crt_stdio_output@@V?$format_validation_base@DV?$stream_output_adapter@D@__crt_stdio_output@@@2@@__crt_stdio_output@@AAEHHD@Z 10076b8a f i libucrt:output.obj
 0001:00075ba5       ?type_case_s_compute_narrow_string_length@?$output_processor@DV?$stream_output_adapter@D@__crt_stdio_output@@V?$positional_parameter_base@DV?$stream_output_adapter@D@__crt_stdio_output@@@2@@__crt_stdio_output@@AAEHHD@Z 10076ba5 f i libucrt:output.obj
 0001:00075bc0       ?type_case_s_compute_narrow_string_length@?$output_processor@DV?$stream_output_adapter@D@__crt_stdio_output@@V?$standard_base@DV?$stream_output_adapter@D@__crt_stdio_output@@@2@@__crt_stdio_output@@AAEHHD@Z 10076bc0 f i libucrt:output.obj
 0001:00075bdb       ?type_case_s_compute_narrow_string_length@?$output_processor@DV?$string_output_adapter@D@__crt_stdio_output@@V?$format_validation_base@DV?$string_output_adapter@D@__crt_stdio_output@@@2@@__crt_stdio_output@@AAEHHD@Z 10076bdb f i libucrt:output.obj
 0001:00075bf6       ?type_case_s_compute_narrow_string_length@?$output_processor@DV?$string_output_adapter@D@__crt_stdio_output@@V?$positional_parameter_base@DV?$string_output_adapter@D@__crt_stdio_output@@@2@@__crt_stdio_output@@AAEHHD@Z 10076bf6 f i libucrt:output.obj
 0001:00075c11       ?type_case_s_compute_narrow_string_length@?$output_processor@DV?$string_output_adapter@D@__crt_stdio_output@@V?$standard_base@DV?$string_output_adapter@D@__crt_stdio_output@@@2@@__crt_stdio_output@@AAEHHD@Z 10076c11 f i libucrt:output.obj
 0001:00075c2c       ?type_case_s_compute_narrow_string_length@?$output_processor@_WV?$stream_output_adapter@_W@__crt_stdio_output@@V?$format_validation_base@_WV?$stream_output_adapter@_W@__crt_stdio_output@@@2@@__crt_stdio_output@@AAEHH_W@Z 10076c2c f i libucrt:output.obj
 0001:00075c96       ?type_case_s_compute_narrow_string_length@?$output_processor@_WV?$stream_output_adapter@_W@__crt_stdio_output@@V?$positional_parameter_base@_WV?$stream_output_adapter@_W@__crt_stdio_output@@@2@@__crt_stdio_output@@AAEHH_W@Z 10076c96 f i libucrt:output.obj
 0001:00075d00       ?type_case_s_compute_narrow_string_length@?$output_processor@_WV?$stream_output_adapter@_W@__crt_stdio_output@@V?$standard_base@_WV?$stream_output_adapter@_W@__crt_stdio_output@@@2@@__crt_stdio_output@@AAEHH_W@Z 10076d00 f i libucrt:output.obj
 0001:00075d6a       ?type_case_s_compute_narrow_string_length@?$output_processor@_WV?$string_output_adapter@_W@__crt_stdio_output@@V?$format_validation_base@_WV?$string_output_adapter@_W@__crt_stdio_output@@@2@@__crt_stdio_output@@AAEHH_W@Z 10076d6a f i libucrt:output.obj
 0001:00075dd4       ?type_case_s_compute_narrow_string_length@?$output_processor@_WV?$string_output_adapter@_W@__crt_stdio_output@@V?$positional_parameter_base@_WV?$string_output_adapter@_W@__crt_stdio_output@@@2@@__crt_stdio_output@@AAEHH_W@Z 10076dd4 f i libucrt:output.obj
 0001:00075e3e       ?type_case_s_compute_narrow_string_length@?$output_processor@_WV?$string_output_adapter@_W@__crt_stdio_output@@V?$standard_base@_WV?$string_output_adapter@_W@__crt_stdio_output@@@2@@__crt_stdio_output@@AAEHH_W@Z 10076e3e f i libucrt:output.obj
 0001:00075ea8       ?type_case_u@?$output_processor@DV?$stream_output_adapter@D@__crt_stdio_output@@V?$format_validation_base@DV?$stream_output_adapter@D@__crt_stdio_output@@@2@@__crt_stdio_output@@AAE_NXZ 10076ea8 f i libucrt:output.obj
 0001:00075eb2       ?type_case_u@?$output_processor@DV?$stream_output_adapter@D@__crt_stdio_output@@V?$positional_parameter_base@DV?$stream_output_adapter@D@__crt_stdio_output@@@2@@__crt_stdio_output@@AAE_NXZ 10076eb2 f i libucrt:output.obj
 0001:00075ebc       ?type_case_u@?$output_processor@DV?$stream_output_adapter@D@__crt_stdio_output@@V?$standard_base@DV?$stream_output_adapter@D@__crt_stdio_output@@@2@@__crt_stdio_output@@AAE_NXZ 10076ebc f i libucrt:output.obj
 0001:00075ec6       ?type_case_u@?$output_processor@DV?$string_output_adapter@D@__crt_stdio_output@@V?$format_validation_base@DV?$string_output_adapter@D@__crt_stdio_output@@@2@@__crt_stdio_output@@AAE_NXZ 10076ec6 f i libucrt:output.obj
 0001:00075ed0       ?type_case_u@?$output_processor@DV?$string_output_adapter@D@__crt_stdio_output@@V?$positional_parameter_base@DV?$string_output_adapter@D@__crt_stdio_output@@@2@@__crt_stdio_output@@AAE_NXZ 10076ed0 f i libucrt:output.obj
 0001:00075eda       ?type_case_u@?$output_processor@DV?$string_output_adapter@D@__crt_stdio_output@@V?$standard_base@DV?$string_output_adapter@D@__crt_stdio_output@@@2@@__crt_stdio_output@@AAE_NXZ 10076eda f i libucrt:output.obj
 0001:00075ee4       ?type_case_u@?$output_processor@_WV?$stream_output_adapter@_W@__crt_stdio_output@@V?$format_validation_base@_WV?$stream_output_adapter@_W@__crt_stdio_output@@@2@@__crt_stdio_output@@AAE_NXZ 10076ee4 f i libucrt:output.obj
 0001:00075eee       ?type_case_u@?$output_processor@_WV?$stream_output_adapter@_W@__crt_stdio_output@@V?$positional_parameter_base@_WV?$stream_output_adapter@_W@__crt_stdio_output@@@2@@__crt_stdio_output@@AAE_NXZ 10076eee f i libucrt:output.obj
 0001:00075ef8       ?type_case_u@?$output_processor@_WV?$stream_output_adapter@_W@__crt_stdio_output@@V?$standard_base@_WV?$stream_output_adapter@_W@__crt_stdio_output@@@2@@__crt_stdio_output@@AAE_NXZ 10076ef8 f i libucrt:output.obj
 0001:00075f02       ?type_case_u@?$output_processor@_WV?$string_output_adapter@_W@__crt_stdio_output@@V?$format_validation_base@_WV?$string_output_adapter@_W@__crt_stdio_output@@@2@@__crt_stdio_output@@AAE_NXZ 10076f02 f i libucrt:output.obj
 0001:00075f0c       ?type_case_u@?$output_processor@_WV?$string_output_adapter@_W@__crt_stdio_output@@V?$positional_parameter_base@_WV?$string_output_adapter@_W@__crt_stdio_output@@@2@@__crt_stdio_output@@AAE_NXZ 10076f0c f i libucrt:output.obj
 0001:00075f16       ?type_case_u@?$output_processor@_WV?$string_output_adapter@_W@__crt_stdio_output@@V?$standard_base@_WV?$string_output_adapter@_W@__crt_stdio_output@@@2@@__crt_stdio_output@@AAE_NXZ 10076f16 f i libucrt:output.obj
 0001:00075f20       ?type_case_x@?$output_processor@DV?$stream_output_adapter@D@__crt_stdio_output@@V?$format_validation_base@DV?$stream_output_adapter@D@__crt_stdio_output@@@2@@__crt_stdio_output@@AAE_NXZ 10076f20 f i libucrt:output.obj
 0001:00075f2a       ?type_case_x@?$output_processor@DV?$stream_output_adapter@D@__crt_stdio_output@@V?$positional_parameter_base@DV?$stream_output_adapter@D@__crt_stdio_output@@@2@@__crt_stdio_output@@AAE_NXZ 10076f2a f i libucrt:output.obj
 0001:00075f34       ?type_case_x@?$output_processor@DV?$stream_output_adapter@D@__crt_stdio_output@@V?$standard_base@DV?$stream_output_adapter@D@__crt_stdio_output@@@2@@__crt_stdio_output@@AAE_NXZ 10076f34 f i libucrt:output.obj
 0001:00075f3e       ?type_case_x@?$output_processor@DV?$string_output_adapter@D@__crt_stdio_output@@V?$format_validation_base@DV?$string_output_adapter@D@__crt_stdio_output@@@2@@__crt_stdio_output@@AAE_NXZ 10076f3e f i libucrt:output.obj
 0001:00075f48       ?type_case_x@?$output_processor@DV?$string_output_adapter@D@__crt_stdio_output@@V?$positional_parameter_base@DV?$string_output_adapter@D@__crt_stdio_output@@@2@@__crt_stdio_output@@AAE_NXZ 10076f48 f i libucrt:output.obj
 0001:00075f52       ?type_case_x@?$output_processor@DV?$string_output_adapter@D@__crt_stdio_output@@V?$standard_base@DV?$string_output_adapter@D@__crt_stdio_output@@@2@@__crt_stdio_output@@AAE_NXZ 10076f52 f i libucrt:output.obj
 0001:00075f5c       ?type_case_x@?$output_processor@_WV?$stream_output_adapter@_W@__crt_stdio_output@@V?$format_validation_base@_WV?$stream_output_adapter@_W@__crt_stdio_output@@@2@@__crt_stdio_output@@AAE_NXZ 10076f5c f i libucrt:output.obj
 0001:00075f66       ?type_case_x@?$output_processor@_WV?$stream_output_adapter@_W@__crt_stdio_output@@V?$positional_parameter_base@_WV?$stream_output_adapter@_W@__crt_stdio_output@@@2@@__crt_stdio_output@@AAE_NXZ 10076f66 f i libucrt:output.obj
 0001:00075f70       ?type_case_x@?$output_processor@_WV?$stream_output_adapter@_W@__crt_stdio_output@@V?$standard_base@_WV?$stream_output_adapter@_W@__crt_stdio_output@@@2@@__crt_stdio_output@@AAE_NXZ 10076f70 f i libucrt:output.obj
 0001:00075f7a       ?type_case_x@?$output_processor@_WV?$string_output_adapter@_W@__crt_stdio_output@@V?$format_validation_base@_WV?$string_output_adapter@_W@__crt_stdio_output@@@2@@__crt_stdio_output@@AAE_NXZ 10076f7a f i libucrt:output.obj
 0001:00075f84       ?type_case_x@?$output_processor@_WV?$string_output_adapter@_W@__crt_stdio_output@@V?$positional_parameter_base@_WV?$string_output_adapter@_W@__crt_stdio_output@@@2@@__crt_stdio_output@@AAE_NXZ 10076f84 f i libucrt:output.obj
 0001:00075f8e       ?type_case_x@?$output_processor@_WV?$string_output_adapter@_W@__crt_stdio_output@@V?$standard_base@_WV?$string_output_adapter@_W@__crt_stdio_output@@@2@@__crt_stdio_output@@AAE_NXZ 10076f8e f i libucrt:output.obj
 0001:00075f98       ?unget@?$c_string_character_source@D@__crt_strtox@@QAEXD@Z 10076f98 f i libucrt:output.obj
 0001:00075fcb       ?unget@?$c_string_character_source@_W@__crt_strtox@@QAEX_W@Z 10076fcb f i libucrt:output.obj
 0001:00076004       ?unsafe_value@?$cached@H@__crt_cached_ptd_host@@QAEHXZ 10077004 f i libucrt:output.obj
 0001:00076007       ?unsafe_value@?$cached@K@__crt_cached_ptd_host@@QAEKXZ 10077007 f i libucrt:output.obj
 0001:0007600a       ?unset_flag@?$output_processor@DV?$stream_output_adapter@D@__crt_stdio_output@@V?$format_validation_base@DV?$stream_output_adapter@D@__crt_stdio_output@@@2@@__crt_stdio_output@@AAEXI@Z 1007700a f i libucrt:output.obj
 0001:0007601f       ?unset_flag@?$output_processor@DV?$stream_output_adapter@D@__crt_stdio_output@@V?$positional_parameter_base@DV?$stream_output_adapter@D@__crt_stdio_output@@@2@@__crt_stdio_output@@AAEXI@Z 1007701f f i libucrt:output.obj
 0001:00076034       ?unset_flag@?$output_processor@DV?$stream_output_adapter@D@__crt_stdio_output@@V?$standard_base@DV?$stream_output_adapter@D@__crt_stdio_output@@@2@@__crt_stdio_output@@AAEXI@Z 10077034 f i libucrt:output.obj
 0001:00076049       ?unset_flag@?$output_processor@DV?$string_output_adapter@D@__crt_stdio_output@@V?$format_validation_base@DV?$string_output_adapter@D@__crt_stdio_output@@@2@@__crt_stdio_output@@AAEXI@Z 10077049 f i libucrt:output.obj
 0001:0007605e       ?unset_flag@?$output_processor@DV?$string_output_adapter@D@__crt_stdio_output@@V?$positional_parameter_base@DV?$string_output_adapter@D@__crt_stdio_output@@@2@@__crt_stdio_output@@AAEXI@Z 1007705e f i libucrt:output.obj
 0001:00076073       ?unset_flag@?$output_processor@DV?$string_output_adapter@D@__crt_stdio_output@@V?$standard_base@DV?$string_output_adapter@D@__crt_stdio_output@@@2@@__crt_stdio_output@@AAEXI@Z 10077073 f i libucrt:output.obj
 0001:00076088       ?unset_flag@?$output_processor@_WV?$stream_output_adapter@_W@__crt_stdio_output@@V?$format_validation_base@_WV?$stream_output_adapter@_W@__crt_stdio_output@@@2@@__crt_stdio_output@@AAEXI@Z 10077088 f i libucrt:output.obj
 0001:0007609d       ?unset_flag@?$output_processor@_WV?$stream_output_adapter@_W@__crt_stdio_output@@V?$positional_parameter_base@_WV?$stream_output_adapter@_W@__crt_stdio_output@@@2@@__crt_stdio_output@@AAEXI@Z 1007709d f i libucrt:output.obj
 0001:000760b2       ?unset_flag@?$output_processor@_WV?$stream_output_adapter@_W@__crt_stdio_output@@V?$standard_base@_WV?$stream_output_adapter@_W@__crt_stdio_output@@@2@@__crt_stdio_output@@AAEXI@Z 100770b2 f i libucrt:output.obj
 0001:000760c7       ?unset_flag@?$output_processor@_WV?$string_output_adapter@_W@__crt_stdio_output@@V?$format_validation_base@_WV?$string_output_adapter@_W@__crt_stdio_output@@@2@@__crt_stdio_output@@AAEXI@Z 100770c7 f i libucrt:output.obj
 0001:000760dc       ?unset_flag@?$output_processor@_WV?$string_output_adapter@_W@__crt_stdio_output@@V?$positional_parameter_base@_WV?$string_output_adapter@_W@__crt_stdio_output@@@2@@__crt_stdio_output@@AAEXI@Z 100770dc f i libucrt:output.obj
 0001:000760f1       ?unset_flag@?$output_processor@_WV?$string_output_adapter@_W@__crt_stdio_output@@V?$standard_base@_WV?$string_output_adapter@_W@__crt_stdio_output@@@2@@__crt_stdio_output@@AAEXI@Z 100770f1 f i libucrt:output.obj
 0001:00076106       ?update_field_width@?$positional_parameter_base@DV?$stream_output_adapter@D@__crt_stdio_output@@@__crt_stdio_output@@IAE_NXZ 10077106 f i libucrt:output.obj
 0001:00076210       ?update_field_width@?$positional_parameter_base@DV?$string_output_adapter@D@__crt_stdio_output@@@__crt_stdio_output@@IAE_NXZ 10077210 f i libucrt:output.obj
 0001:0007631a       ?update_field_width@?$positional_parameter_base@_WV?$stream_output_adapter@_W@__crt_stdio_output@@@__crt_stdio_output@@IAE_NXZ 1007731a f i libucrt:output.obj
 0001:00076425       ?update_field_width@?$positional_parameter_base@_WV?$string_output_adapter@_W@__crt_stdio_output@@@__crt_stdio_output@@IAE_NXZ 10077425 f i libucrt:output.obj
 0001:00076530       ?update_field_width@?$standard_base@DV?$stream_output_adapter@D@__crt_stdio_output@@@__crt_stdio_output@@IAE_NXZ 10077530 f i libucrt:output.obj
 0001:00076545       ?update_field_width@?$standard_base@DV?$string_output_adapter@D@__crt_stdio_output@@@__crt_stdio_output@@IAE_NXZ 10077545 f i libucrt:output.obj
 0001:0007655a       ?update_field_width@?$standard_base@_WV?$stream_output_adapter@_W@__crt_stdio_output@@@__crt_stdio_output@@IAE_NXZ 1007755a f i libucrt:output.obj
 0001:0007656f       ?update_field_width@?$standard_base@_WV?$string_output_adapter@_W@__crt_stdio_output@@@__crt_stdio_output@@IAE_NXZ 1007756f f i libucrt:output.obj
 0001:00076590       ?update_locale@__crt_cached_ptd_host@@AAEXXZ 10077590 f i libucrt:output.obj
 0001:000765a0       ?update_locale_slow@__crt_cached_ptd_host@@AAEXXZ 100775a0 f i libucrt:output.obj
 0001:00076611       ?update_precision@?$positional_parameter_base@DV?$stream_output_adapter@D@__crt_stdio_output@@@__crt_stdio_output@@IAE_NXZ 10077611 f i libucrt:output.obj
 0001:0007671b       ?update_precision@?$positional_parameter_base@DV?$string_output_adapter@D@__crt_stdio_output@@@__crt_stdio_output@@IAE_NXZ 1007771b f i libucrt:output.obj
 0001:00076825       ?update_precision@?$positional_parameter_base@_WV?$stream_output_adapter@_W@__crt_stdio_output@@@__crt_stdio_output@@IAE_NXZ 10077825 f i libucrt:output.obj
 0001:00076930       ?update_precision@?$positional_parameter_base@_WV?$string_output_adapter@_W@__crt_stdio_output@@@__crt_stdio_output@@IAE_NXZ 10077930 f i libucrt:output.obj
 0001:00076a3b       ?update_precision@?$standard_base@DV?$stream_output_adapter@D@__crt_stdio_output@@@__crt_stdio_output@@IAE_NXZ 10077a3b f i libucrt:output.obj
 0001:00076a50       ?update_precision@?$standard_base@DV?$string_output_adapter@D@__crt_stdio_output@@@__crt_stdio_output@@IAE_NXZ 10077a50 f i libucrt:output.obj
 0001:00076a65       ?update_precision@?$standard_base@_WV?$stream_output_adapter@_W@__crt_stdio_output@@@__crt_stdio_output@@IAE_NXZ 10077a65 f i libucrt:output.obj
 0001:00076a7a       ?update_precision@?$standard_base@_WV?$string_output_adapter@_W@__crt_stdio_output@@@__crt_stdio_output@@IAE_NXZ 10077a7a f i libucrt:output.obj
 0001:00076a8f       ?valid@?$cached@H@__crt_cached_ptd_host@@QBE_NXZ 10077a8f f i libucrt:output.obj
 0001:00076a93       ?valid@?$cached@K@__crt_cached_ptd_host@@QBE_NXZ 10077a93 f i libucrt:output.obj
 0001:00076a97       ?valid@__crt_stdio_stream@@QBE_NXZ 10077a97 f i libucrt:output.obj
 0001:00076a9e       ?validate@?$c_string_character_source@D@__crt_strtox@@QBE_NXZ 10077a9e f i libucrt:output.obj
 0001:00076abf       ?validate@?$c_string_character_source@_W@__crt_strtox@@QBE_NXZ 10077abf f i libucrt:output.obj
 0001:00076ae0       ?validate@?$stream_output_adapter@D@__crt_stdio_output@@QBE_NAAV__crt_cached_ptd_host@@@Z 10077ae0 f i libucrt:output.obj
 0001:00076b26       ?validate@?$stream_output_adapter@_W@__crt_stdio_output@@QBE_NAAV__crt_cached_ptd_host@@@Z 10077b26 f i libucrt:output.obj
 0001:00076b63       ?validate@?$string_output_adapter@D@__crt_stdio_output@@QBE_NAAV__crt_cached_ptd_host@@@Z 10077b63 f i libucrt:output.obj
 0001:00076ba0       ?validate@?$string_output_adapter@_W@__crt_stdio_output@@QBE_NAAV__crt_cached_ptd_host@@@Z 10077ba0 f i libucrt:output.obj
 0001:00076bdd       ?validate_and_store_parameter_data@?$positional_parameter_base@DV?$stream_output_adapter@D@__crt_stdio_output@@@__crt_stdio_output@@AAE_NAAUparameter_data@12@W4parameter_type@12@DW4length_modifier@2@@Z 10077bdd f i libucrt:output.obj
 0001:00076c57       ?validate_and_store_parameter_data@?$positional_parameter_base@DV?$string_output_adapter@D@__crt_stdio_output@@@__crt_stdio_output@@AAE_NAAUparameter_data@12@W4parameter_type@12@DW4length_modifier@2@@Z 10077c57 f i libucrt:output.obj
 0001:00076cd1       ?validate_and_store_parameter_data@?$positional_parameter_base@_WV?$stream_output_adapter@_W@__crt_stdio_output@@@__crt_stdio_output@@AAE_NAAUparameter_data@12@W4parameter_type@12@_WW4length_modifier@2@@Z 10077cd1 f i libucrt:output.obj
 0001:00076d4e       ?validate_and_store_parameter_data@?$positional_parameter_base@_WV?$string_output_adapter@_W@__crt_stdio_output@@@__crt_stdio_output@@AAE_NAAUparameter_data@12@W4parameter_type@12@_WW4length_modifier@2@@Z 10077d4e f i libucrt:output.obj
 0001:00076dcb       ?validate_and_update_state_at_beginning_of_format_character@?$positional_parameter_base@DV?$stream_output_adapter@D@__crt_stdio_output@@@__crt_stdio_output@@IAE_NXZ 10077dcb f i libucrt:output.obj
 0001:00076f27       ?validate_and_update_state_at_beginning_of_format_character@?$positional_parameter_base@DV?$string_output_adapter@D@__crt_stdio_output@@@__crt_stdio_output@@IAE_NXZ 10077f27 f i libucrt:output.obj
 0001:00077083       ?validate_and_update_state_at_beginning_of_format_character@?$positional_parameter_base@_WV?$stream_output_adapter@_W@__crt_stdio_output@@@__crt_stdio_output@@IAE_NXZ 10078083 f i libucrt:output.obj
 0001:000771f0       ?validate_and_update_state_at_beginning_of_format_character@?$positional_parameter_base@_WV?$string_output_adapter@_W@__crt_stdio_output@@@__crt_stdio_output@@IAE_NXZ 100781f0 f i libucrt:output.obj
 0001:0007735d       ?validate_and_update_state_at_beginning_of_format_character@?$standard_base@DV?$stream_output_adapter@D@__crt_stdio_output@@@__crt_stdio_output@@IAE_NXZ 1007835d f i libucrt:output.obj
 0001:00077360       ?validate_and_update_state_at_beginning_of_format_character@?$standard_base@DV?$string_output_adapter@D@__crt_stdio_output@@@__crt_stdio_output@@IAE_NXZ 10078360 f i libucrt:output.obj
 0001:00077363       ?validate_and_update_state_at_beginning_of_format_character@?$standard_base@_WV?$stream_output_adapter@_W@__crt_stdio_output@@@__crt_stdio_output@@IAE_NXZ 10078363 f i libucrt:output.obj
 0001:00077366       ?validate_and_update_state_at_beginning_of_format_character@?$standard_base@_WV?$string_output_adapter@_W@__crt_stdio_output@@@__crt_stdio_output@@IAE_NXZ 10078366 f i libucrt:output.obj
 0001:00077369       ?validate_and_update_state_at_end_of_format_string@?$format_validation_base@DV?$stream_output_adapter@D@__crt_stdio_output@@@__crt_stdio_output@@IAE_NXZ 10078369 f i libucrt:output.obj
 0001:000773a6       ?validate_and_update_state_at_end_of_format_string@?$format_validation_base@DV?$string_output_adapter@D@__crt_stdio_output@@@__crt_stdio_output@@IAE_NXZ 100783a6 f i libucrt:output.obj
 0001:000773e3       ?validate_and_update_state_at_end_of_format_string@?$format_validation_base@_WV?$stream_output_adapter@_W@__crt_stdio_output@@@__crt_stdio_output@@IAE_NXZ 100783e3 f i libucrt:output.obj
 0001:00077420       ?validate_and_update_state_at_end_of_format_string@?$format_validation_base@_WV?$string_output_adapter@_W@__crt_stdio_output@@@__crt_stdio_output@@IAE_NXZ 10078420 f i libucrt:output.obj
 0001:0007745d       ?validate_and_update_state_at_end_of_format_string@?$positional_parameter_base@DV?$stream_output_adapter@D@__crt_stdio_output@@@__crt_stdio_output@@IAE_NXZ 1007845d f i libucrt:output.obj
 0001:00077545       ?validate_and_update_state_at_end_of_format_string@?$positional_parameter_base@DV?$string_output_adapter@D@__crt_stdio_output@@@__crt_stdio_output@@IAE_NXZ 10078545 f i libucrt:output.obj
 0001:0007762d       ?validate_and_update_state_at_end_of_format_string@?$positional_parameter_base@_WV?$stream_output_adapter@_W@__crt_stdio_output@@@__crt_stdio_output@@IAE_NXZ 1007862d f i libucrt:output.obj
 0001:00077715       ?validate_and_update_state_at_end_of_format_string@?$positional_parameter_base@_WV?$string_output_adapter@_W@__crt_stdio_output@@@__crt_stdio_output@@IAE_NXZ 10078715 f i libucrt:output.obj
 0001:000777fd       ?validate_and_update_state_at_end_of_format_string@?$standard_base@DV?$stream_output_adapter@D@__crt_stdio_output@@@__crt_stdio_output@@IBE_NXZ 100787fd f i libucrt:output.obj
 0001:00077800       ?validate_and_update_state_at_end_of_format_string@?$standard_base@DV?$string_output_adapter@D@__crt_stdio_output@@@__crt_stdio_output@@IBE_NXZ 10078800 f i libucrt:output.obj
 0001:00077803       ?validate_and_update_state_at_end_of_format_string@?$standard_base@_WV?$stream_output_adapter@_W@__crt_stdio_output@@@__crt_stdio_output@@IBE_NXZ 10078803 f i libucrt:output.obj
 0001:00077806       ?validate_and_update_state_at_end_of_format_string@?$standard_base@_WV?$string_output_adapter@_W@__crt_stdio_output@@@__crt_stdio_output@@IBE_NXZ 10078806 f i libucrt:output.obj
 0001:00077809       ?validate_state_for_type_case_a@?$positional_parameter_base@DV?$stream_output_adapter@D@__crt_stdio_output@@@__crt_stdio_output@@IAE_NXZ 10078809 f i libucrt:output.obj
 0001:0007787f       ?validate_state_for_type_case_a@?$positional_parameter_base@DV?$string_output_adapter@D@__crt_stdio_output@@@__crt_stdio_output@@IAE_NXZ 1007887f f i libucrt:output.obj
 0001:000778f5       ?validate_state_for_type_case_a@?$positional_parameter_base@_WV?$stream_output_adapter@_W@__crt_stdio_output@@@__crt_stdio_output@@IAE_NXZ 100788f5 f i libucrt:output.obj
 0001:0007796b       ?validate_state_for_type_case_a@?$positional_parameter_base@_WV?$string_output_adapter@_W@__crt_stdio_output@@@__crt_stdio_output@@IAE_NXZ 1007896b f i libucrt:output.obj
 0001:000779e1       ?validate_state_for_type_case_a@?$standard_base@DV?$stream_output_adapter@D@__crt_stdio_output@@@__crt_stdio_output@@IBE_NXZ 100789e1 f i libucrt:output.obj
 0001:000779e4       ?validate_state_for_type_case_a@?$standard_base@DV?$string_output_adapter@D@__crt_stdio_output@@@__crt_stdio_output@@IBE_NXZ 100789e4 f i libucrt:output.obj
 0001:000779e7       ?validate_state_for_type_case_a@?$standard_base@_WV?$stream_output_adapter@_W@__crt_stdio_output@@@__crt_stdio_output@@IBE_NXZ 100789e7 f i libucrt:output.obj
 0001:000779ea       ?validate_state_for_type_case_a@?$standard_base@_WV?$string_output_adapter@_W@__crt_stdio_output@@@__crt_stdio_output@@IBE_NXZ 100789ea f i libucrt:output.obj
 0001:000779ed       ?validate_stream_is_ansi_if_required@?$__acrt_stdio_char_traits@D@@SA_NQAU_iobuf@@@Z 100789ed f i libucrt:output.obj
 0001:00077a95       ?validate_stream_is_ansi_if_required@?$__acrt_stdio_char_traits@_W@@SA_NQAU_iobuf@@@Z 10078a95 f i libucrt:output.obj
 0001:00077a98       ?wide_character_to_digit@__crt_strtox@@YAH_W@Z 10078a98 f i libucrt:output.obj
 0001:00077ca1       ?wide_null_string@?$output_processor@DV?$stream_output_adapter@D@__crt_stdio_output@@V?$format_validation_base@DV?$stream_output_adapter@D@__crt_stdio_output@@@2@@__crt_stdio_output@@CAPA_WXZ 10078ca1 f i libucrt:output.obj
 0001:00077ca7       ?wide_null_string@?$output_processor@DV?$stream_output_adapter@D@__crt_stdio_output@@V?$positional_parameter_base@DV?$stream_output_adapter@D@__crt_stdio_output@@@2@@__crt_stdio_output@@CAPA_WXZ 10078ca7 f i libucrt:output.obj
 0001:00077cad       ?wide_null_string@?$output_processor@DV?$stream_output_adapter@D@__crt_stdio_output@@V?$standard_base@DV?$stream_output_adapter@D@__crt_stdio_output@@@2@@__crt_stdio_output@@CAPA_WXZ 10078cad f i libucrt:output.obj
 0001:00077cb3       ?wide_null_string@?$output_processor@DV?$string_output_adapter@D@__crt_stdio_output@@V?$format_validation_base@DV?$string_output_adapter@D@__crt_stdio_output@@@2@@__crt_stdio_output@@CAPA_WXZ 10078cb3 f i libucrt:output.obj
 0001:00077cb9       ?wide_null_string@?$output_processor@DV?$string_output_adapter@D@__crt_stdio_output@@V?$positional_parameter_base@DV?$string_output_adapter@D@__crt_stdio_output@@@2@@__crt_stdio_output@@CAPA_WXZ 10078cb9 f i libucrt:output.obj
 0001:00077cbf       ?wide_null_string@?$output_processor@DV?$string_output_adapter@D@__crt_stdio_output@@V?$standard_base@DV?$string_output_adapter@D@__crt_stdio_output@@@2@@__crt_stdio_output@@CAPA_WXZ 10078cbf f i libucrt:output.obj
 0001:00077cc5       ?wide_null_string@?$output_processor@_WV?$stream_output_adapter@_W@__crt_stdio_output@@V?$format_validation_base@_WV?$stream_output_adapter@_W@__crt_stdio_output@@@2@@__crt_stdio_output@@CAPA_WXZ 10078cc5 f i libucrt:output.obj
 0001:00077ccb       ?wide_null_string@?$output_processor@_WV?$stream_output_adapter@_W@__crt_stdio_output@@V?$positional_parameter_base@_WV?$stream_output_adapter@_W@__crt_stdio_output@@@2@@__crt_stdio_output@@CAPA_WXZ 10078ccb f i libucrt:output.obj
 0001:00077cd1       ?wide_null_string@?$output_processor@_WV?$stream_output_adapter@_W@__crt_stdio_output@@V?$standard_base@_WV?$stream_output_adapter@_W@__crt_stdio_output@@@2@@__crt_stdio_output@@CAPA_WXZ 10078cd1 f i libucrt:output.obj
 0001:00077cd7       ?wide_null_string@?$output_processor@_WV?$string_output_adapter@_W@__crt_stdio_output@@V?$format_validation_base@_WV?$string_output_adapter@_W@__crt_stdio_output@@@2@@__crt_stdio_output@@CAPA_WXZ 10078cd7 f i libucrt:output.obj
 0001:00077cdd       ?wide_null_string@?$output_processor@_WV?$string_output_adapter@_W@__crt_stdio_output@@V?$positional_parameter_base@_WV?$string_output_adapter@_W@__crt_stdio_output@@@2@@__crt_stdio_output@@CAPA_WXZ 10078cdd f i libucrt:output.obj
 0001:00077ce3       ?wide_null_string@?$output_processor@_WV?$string_output_adapter@_W@__crt_stdio_output@@V?$standard_base@_WV?$string_output_adapter@_W@__crt_stdio_output@@@2@@__crt_stdio_output@@CAPA_WXZ 10078ce3 f i libucrt:output.obj
 0001:00077ce9       ?write_character@?$output_adapter_common@DV?$stream_output_adapter@D@__crt_stdio_output@@@__crt_stdio_output@@QBEXDQAHAAV__crt_cached_ptd_host@@@Z 10078ce9 f i libucrt:output.obj
 0001:00077d13       ?write_character@?$output_adapter_common@_WV?$stream_output_adapter@_W@__crt_stdio_output@@@__crt_stdio_output@@QBEX_WQAHAAV__crt_cached_ptd_host@@@Z 10078d13 f i libucrt:output.obj
 0001:00077d3d       ?write_character@?$string_output_adapter@D@__crt_stdio_output@@QBE_NDQAHAAV__crt_cached_ptd_host@@@Z 10078d3d f i libucrt:output.obj
 0001:00077d8f       ?write_character@?$string_output_adapter@_W@__crt_stdio_output@@QBE_N_WQAHAAV__crt_cached_ptd_host@@@Z 10078d8f f i libucrt:output.obj
 0001:00077de5       ?write_character_without_count_update@?$stream_output_adapter@D@__crt_stdio_output@@QBE_NDAAV__crt_cached_ptd_host@@@Z 10078de5 f i libucrt:output.obj
 0001:00077e2d       ?write_character_without_count_update@?$stream_output_adapter@_W@__crt_stdio_output@@QBE_N_WAAV__crt_cached_ptd_host@@@Z 10078e2d f i libucrt:output.obj
 0001:00077e79       ?write_stored_string_tchar@?$output_processor@DV?$stream_output_adapter@D@__crt_stdio_output@@V?$format_validation_base@DV?$stream_output_adapter@D@__crt_stdio_output@@@2@@__crt_stdio_output@@AAE_ND@Z 10078e79 f i libucrt:output.obj
 0001:00077f4e       ?write_stored_string_tchar@?$output_processor@DV?$stream_output_adapter@D@__crt_stdio_output@@V?$positional_parameter_base@DV?$stream_output_adapter@D@__crt_stdio_output@@@2@@__crt_stdio_output@@AAE_ND@Z 10078f4e f i libucrt:output.obj
 0001:00078023       ?write_stored_string_tchar@?$output_processor@DV?$stream_output_adapter@D@__crt_stdio_output@@V?$standard_base@DV?$stream_output_adapter@D@__crt_stdio_output@@@2@@__crt_stdio_output@@AAE_ND@Z 10079023 f i libucrt:output.obj
 0001:000780f8       ?write_stored_string_tchar@?$output_processor@DV?$string_output_adapter@D@__crt_stdio_output@@V?$format_validation_base@DV?$string_output_adapter@D@__crt_stdio_output@@@2@@__crt_stdio_output@@AAE_ND@Z 100790f8 f i libucrt:output.obj
 0001:000781cd       ?write_stored_string_tchar@?$output_processor@DV?$string_output_adapter@D@__crt_stdio_output@@V?$positional_parameter_base@DV?$string_output_adapter@D@__crt_stdio_output@@@2@@__crt_stdio_output@@AAE_ND@Z 100791cd f i libucrt:output.obj
 0001:000782a2       ?write_stored_string_tchar@?$output_processor@DV?$string_output_adapter@D@__crt_stdio_output@@V?$standard_base@DV?$string_output_adapter@D@__crt_stdio_output@@@2@@__crt_stdio_output@@AAE_ND@Z 100792a2 f i libucrt:output.obj
 0001:00078377       ?write_stored_string_tchar@?$output_processor@_WV?$stream_output_adapter@_W@__crt_stdio_output@@V?$format_validation_base@_WV?$stream_output_adapter@_W@__crt_stdio_output@@@2@@__crt_stdio_output@@AAE_N_W@Z 10079377 f i libucrt:output.obj
 0001:0007844f       ?write_stored_string_tchar@?$output_processor@_WV?$stream_output_adapter@_W@__crt_stdio_output@@V?$positional_parameter_base@_WV?$stream_output_adapter@_W@__crt_stdio_output@@@2@@__crt_stdio_output@@AAE_N_W@Z 1007944f f i libucrt:output.obj
 0001:00078527       ?write_stored_string_tchar@?$output_processor@_WV?$stream_output_adapter@_W@__crt_stdio_output@@V?$standard_base@_WV?$stream_output_adapter@_W@__crt_stdio_output@@@2@@__crt_stdio_output@@AAE_N_W@Z 10079527 f i libucrt:output.obj
 0001:000785ff       ?write_stored_string_tchar@?$output_processor@_WV?$string_output_adapter@_W@__crt_stdio_output@@V?$format_validation_base@_WV?$string_output_adapter@_W@__crt_stdio_output@@@2@@__crt_stdio_output@@AAE_N_W@Z 100795ff f i libucrt:output.obj
 0001:00078713       ?write_stored_string_tchar@?$output_processor@_WV?$string_output_adapter@_W@__crt_stdio_output@@V?$positional_parameter_base@_WV?$string_output_adapter@_W@__crt_stdio_output@@@2@@__crt_stdio_output@@AAE_N_W@Z 10079713 f i libucrt:output.obj
 0001:00078827       ?write_stored_string_tchar@?$output_processor@_WV?$string_output_adapter@_W@__crt_stdio_output@@V?$standard_base@_WV?$string_output_adapter@_W@__crt_stdio_output@@@2@@__crt_stdio_output@@AAE_N_W@Z 10079827 f i libucrt:output.obj
 0001:0007893b       ?write_string@?$stream_output_adapter@D@__crt_stdio_output@@QBEXQBDHQAHAAV__crt_cached_ptd_host@@@Z 1007993b f i libucrt:output.obj
 0001:00078972       ?write_string@?$stream_output_adapter@_W@__crt_stdio_output@@QBEXQB_WHQAHAAV__crt_cached_ptd_host@@@Z 10079972 f i libucrt:output.obj
 0001:000789a9       ?write_string@?$string_output_adapter@D@__crt_stdio_output@@QBEXQBDHQAHAAV__crt_cached_ptd_host@@@Z 100799a9 f i libucrt:output.obj
 0001:00078a29       ?write_string@?$string_output_adapter@_W@__crt_stdio_output@@QBEXQB_WHQAHAAV__crt_cached_ptd_host@@@Z 10079a29 f i libucrt:output.obj
 0001:00078ab6       ?write_string_impl@?$output_adapter_common@DV?$stream_output_adapter@D@__crt_stdio_output@@@__crt_stdio_output@@IBEXQBDHQAHAAV__crt_cached_ptd_host@@@Z 10079ab6 f i libucrt:output.obj
 0001:00078b54       ?write_string_impl@?$output_adapter_common@_WV?$stream_output_adapter@_W@__crt_stdio_output@@@__crt_stdio_output@@IBEXQB_WHQAHAAV__crt_cached_ptd_host@@@Z 10079b54 f i libucrt:output.obj
 0001:00078bf6       ___acrt_disable_global_locale_sync 10079bf6 f i libucrt:output.obj
 0001:00078c0d       ___acrt_enable_global_locale_sync 10079c0d f i libucrt:output.obj
 0001:00078c27       ___acrt_isleadbyte_l_noupdate 10079c27 f i libucrt:output.obj
 0001:00078c4c       ___acrt_locale_changed     10079c4c f i libucrt:output.obj
 0001:00078c59       ___acrt_locale_get_ctype_array_value 10079c59 f i libucrt:output.obj
 0001:00078c83       ___ascii_iswalpha          10079c83 f i libucrt:output.obj
 0001:00078cae       ___ascii_toupper           10079cae f i libucrt:output.obj
 0001:00078cca       ___ascii_towupper          10079cca f i libucrt:output.obj
 0001:00078ce6       ___stdio_common_vfprintf   10079ce6 f   libucrt:output.obj
 0001:00078db3       ___stdio_common_vfprintf_p 10079db3 f   libucrt:output.obj
 0001:00078e80       ___stdio_common_vfprintf_s 10079e80 f   libucrt:output.obj
 0001:00078f4d       ___stdio_common_vfwprintf  10079f4d f   libucrt:output.obj
 0001:0007901a       ___stdio_common_vfwprintf_p 1007a01a f   libucrt:output.obj
 0001:000790e7       ___stdio_common_vfwprintf_s 1007a0e7 f   libucrt:output.obj
 0001:000791b4       ___stdio_common_vsnprintf_s 1007a1b4 f   libucrt:output.obj
 0001:00079209       ___stdio_common_vsnwprintf_s 1007a209 f   libucrt:output.obj
 0001:0007925e       ___stdio_common_vsprintf   1007a25e f   libucrt:output.obj
 0001:000792af       ___stdio_common_vsprintf_p 1007a2af f   libucrt:output.obj
 0001:00079300       ___stdio_common_vsprintf_s 1007a300 f   libucrt:output.obj
 0001:00079351       ___stdio_common_vswprintf  1007a351 f   libucrt:output.obj
 0001:000793a2       ___stdio_common_vswprintf_p 1007a3a2 f   libucrt:output.obj
 0001:000793f3       ___stdio_common_vswprintf_s 1007a3f3 f   libucrt:output.obj
 0001:00079444       __ctype_fast_check_internal 1007a444 f i libucrt:output.obj
 0001:00079464       __isdigit_fast_internal    1007a464 f i libucrt:output.obj
 0001:00079484       __tolower_fast_internal    1007a484 f i libucrt:output.obj
 0001:000794a3       _calloc                    1007a4a3 f   libucrt:calloc.obj
 0001:000794b0       _realloc                   1007a4b0 f   libucrt:realloc.obj
 0001:000794bd       ??$?B$$A6GXPAXK0@Z@__crt_fast_encoded_nullptr_t@@QBEP6GXPAXK0@ZXZ 1007a4bd f i libucrt:exit.obj
 0001:0007958d       ??$__crt_fast_decode_pointer@P6GXPAXK0@Z@@YAP6GXPAXK0@ZQ6GX0K0@Z@Z 1007a58d f i libucrt:exit.obj
 0001:000795ae       ??$__crt_fast_encode_pointer@P6GXPAXK0@Z@@YAP6GXPAXK0@ZQ6GX0K0@Z@Z 1007a5ae f i libucrt:exit.obj
 0001:000795d4       ??$__crt_get_proc_address@P6GXI@Z@@YAP6GXI@ZQAUHINSTANCE__@@QBD@Z 1007a5d4 f i libucrt:exit.obj
 0001:0007963a       ??0?$__crt_unique_handle_t@U__crt_hmodule_traits@@@@QAE@QAUHINSTANCE__@@@Z 1007a63a f i libucrt:exit.obj
 0001:0007964e       ??1?$__crt_unique_handle_t@U__crt_hmodule_traits@@@@QAE@XZ 1007a64e f i libucrt:exit.obj
 0001:000797a2       ?__acrt_select_exit_lock@@YA?AW4__acrt_lock_id@@XZ 1007a7a2 f i libucrt:exit.obj
 0001:000797a6       ?__crt_fast_encode_pointer@@YA?AU__crt_fast_encoded_nullptr_t@@$$T@Z 1007a7a6 f i libucrt:exit.obj
 0001:000797b3       ?__crt_rotate_pointer_value@@YAIIH@Z 1007a7b3 f i libucrt:exit.obj
 0001:000797dc       ?close@?$__crt_unique_handle_t@U__crt_hmodule_traits@@@@QAEXXZ 1007a7dc f i libucrt:exit.obj
 0001:000797f8       ?close@__crt_hmodule_traits@@SA_NPAUHINSTANCE__@@@Z 1007a7f8 f i libucrt:exit.obj
 0001:0007990b       ?get@?$__crt_unique_handle_t@U__crt_hmodule_traits@@@@QBEPAUHINSTANCE__@@XZ 1007a90b f i libucrt:exit.obj
 0001:0007990e       ?get_address_of@?$__crt_unique_handle_t@U__crt_hmodule_traits@@@@QAEPAPAUHINSTANCE__@@XZ 1007a90e f i libucrt:exit.obj
 0001:00079911       ?get_invalid_value@__crt_hmodule_traits@@SAPAUHINSTANCE__@@XZ 1007a911 f i libucrt:exit.obj
 0001:00079a27       __Exit                     1007aa27 f   libucrt:exit.obj
 0001:00079a42       ___acrt_initialize_thread_local_exit_callback 1007aa42 f   libucrt:exit.obj
 0001:00079a54       __c_exit                   1007aa54 f   libucrt:exit.obj
 0001:00079a66       __cexit                    1007aa66 f   libucrt:exit.obj
 0001:00079a78       __exit                     1007aa78 f   libucrt:exit.obj
 0001:00079a93       __is_c_termination_complete 1007aa93 f   libucrt:exit.obj
 0001:00079a9a       __register_thread_local_exe_atexit_callback 1007aa9a f   libucrt:exit.obj
 0001:00079ac9       _exit                      1007aac9 f   libucrt:exit.obj
 0001:00079ae4       _quick_exit                1007aae4 f   libucrt:exit.obj
 0001:00079b00       _strncat                   1007ab00 f   libucrt:strncat.obj
 0001:00079c90       _strncpy                   1007ac90 f   libucrt:strncpy.obj
 0001:00079f6a       ?is_in_use@__crt_stdio_stream@@QBE_NXZ 1007af6a f i libucrt:fclose.obj
 0001:00079f79       __fclose_nolock            1007af79 f   libucrt:fclose.obj
 0001:00079fb5       _fclose                    1007afb5 f   libucrt:fclose.obj
 0001:0007a268       ??$open_file@ABQBDABQBDABHPAU_iobuf@@@?$__crt_char_traits@D@@SAPAU_iobuf@@ABQBD0ABH$$QAPAU1@@Z 1007b268 f i libucrt:fopen.obj
 0001:0007a293       ??$open_file@ABQB_WABQB_WABHPAU_iobuf@@@?$__crt_char_traits@_W@@SAPAU_iobuf@@ABQB_W0ABH$$QAPAU1@@Z 1007b293 f i libucrt:fopen.obj
 0001:0007a2be       ?unlock@__crt_stdio_stream@@QBEXXZ 1007b2be f i libucrt:fopen.obj
 0001:0007a2c9       __fsopen                   1007b2c9 f   libucrt:fopen.obj
 0001:0007a2d6       __wfopen                   1007b2d6 f   libucrt:fopen.obj
 0001:0007a2f2       __wfopen_s                 1007b2f2 f   libucrt:fopen.obj
 0001:0007a34a       __wfsopen                  1007b34a f   libucrt:fopen.obj
 0001:0007a357       _fopen                     1007b357 f   libucrt:fopen.obj
 0001:0007a373       _fopen_s                   1007b373 f   libucrt:fopen.obj
 0001:0007a3cb       ?__acrt_stdio_reset_buffer@@YAXV__crt_stdio_stream@@@Z 1007b3cb f i libucrt:fread.obj
 0001:0007a3e6       ?has_any_buffer@__crt_stdio_stream@@QBE_NXZ 1007b3e6 f i libucrt:fread.obj
 0001:0007a3f8       ?has_any_of@__crt_stdio_stream@@QBE_NJ@Z 1007b3f8 f i libucrt:fread.obj
 0001:0007a412       ?set_flags@__crt_stdio_stream@@QBE_NJ@Z 1007b412 f i libucrt:fread.obj
 0001:0007a43f       __fread_nolock             1007b43f f   libucrt:fread.obj
 0001:0007a463       __fread_nolock_s           1007b463 f   libucrt:fread.obj
 0001:0007a6b2       _fread                     1007b6b2 f   libucrt:fread.obj
 0001:0007a6d6       _fread_s                   1007b6d6 f   libucrt:fread.obj
 0001:0007a9ae       ?has_big_buffer@__crt_stdio_stream@@QBE_NXZ 1007b9ae f i libucrt:fwrite.obj
 0001:0007a9bd       __fwrite_internal          1007b9bd f   libucrt:fwrite.obj
 0001:0007aa51       __fwrite_nolock            1007ba51 f   libucrt:fwrite.obj
 0001:0007aa99       __fwrite_nolock_internal   1007ba99 f   libucrt:fwrite.obj
 0001:0007aca9       _fwrite                    1007bca9 f   libucrt:fwrite.obj
 0001:0007acf1       ??$__acrt_convert_wcs_mbs_cp@D_WV<lambda_62f6974d9771e494a5ea317cc32e971c>@@U__crt_win32_buffer_internal_dynamic_resizing@@@@YAHQBDAAV?$__crt_win32_buffer@_WU__crt_win32_buffer_internal_dynamic_resizing@@@@ABV<lambda_62f6974d9771e494a5ea317cc32e971c>@@I@Z 1007bcf1 f i libucrt:unlink.obj
 0001:0007adcf       ??$__acrt_mbs_to_wcs_cp@U__crt_win32_buffer_internal_dynamic_resizing@@@@YAHQBDAAV?$__crt_win32_buffer@_WU__crt_win32_buffer_internal_dynamic_resizing@@@@I@Z 1007bdcf f i libucrt:unlink.obj
 0001:0007adf3       ??0?$__crt_win32_buffer@_WU__crt_win32_buffer_internal_dynamic_resizing@@@@QAE@XZ 1007bdf3 f i libucrt:unlink.obj
 0001:0007ae0e       ??0_LocaleUpdate@@QAE@QAU__crt_locale_pointers@@@Z 1007be0e f i libucrt:unlink.obj
 0001:0007aeb0       ??1?$__crt_win32_buffer@_WU__crt_win32_buffer_internal_dynamic_resizing@@@@QAE@XZ 1007beb0 f i libucrt:unlink.obj
 0001:0007aeb5       ??1_LocaleUpdate@@QAE@XZ   1007beb5 f i libucrt:unlink.obj
 0001:0007aec9       ??R<lambda_62f6974d9771e494a5ea317cc32e971c>@@QBE@IQBDQA_WI@Z 1007bec9 f i libucrt:unlink.obj
 0001:0007aef2       ?GetLocaleT@_LocaleUpdate@@QAEPAU__crt_locale_pointers@@XZ 1007bef2 f i libucrt:unlink.obj
 0001:0007aef6       ?__acrt_get_utf8_acp_compatibility_codepage@@YAIXZ 1007bef6 f i libucrt:unlink.obj
 0001:0007af44       ?_deallocate@?$__crt_win32_buffer@_WU__crt_win32_buffer_internal_dynamic_resizing@@@@AAEXXZ 1007bf44 f i libucrt:unlink.obj
 0001:0007af64       ?allocate@?$__crt_win32_buffer@_WU__crt_win32_buffer_internal_dynamic_resizing@@@@QAEHI@Z 1007bf64 f i libucrt:unlink.obj
 0001:0007afb2       ?allocate@__crt_win32_buffer_internal_dynamic_resizing@@SAHQAPAXIABV__crt_win32_buffer_empty_debug_info@@@Z 1007bfb2 f i libucrt:unlink.obj
 0001:0007afd8       ?capacity@?$__crt_win32_buffer@_WU__crt_win32_buffer_internal_dynamic_resizing@@@@QBEIXZ 1007bfd8 f i libucrt:unlink.obj
 0001:0007afdc       ?data@?$__crt_win32_buffer@_WU__crt_win32_buffer_internal_dynamic_resizing@@@@QAEPA_WXZ 1007bfdc f i libucrt:unlink.obj
 0001:0007afe0       ?deallocate@__crt_win32_buffer_internal_dynamic_resizing@@SAXQAXABV__crt_win32_buffer_empty_debug_info@@@Z 1007bfe0 f i libucrt:unlink.obj
 0001:0007aff4       ?debug_info@?$__crt_win32_buffer@_WU__crt_win32_buffer_internal_dynamic_resizing@@@@QBEABV__crt_win32_buffer_empty_debug_info@@XZ 1007bff4 f i libucrt:unlink.obj
 0001:0007aff7       ?set_to_nullptr@?$__crt_win32_buffer@_WU__crt_win32_buffer_internal_dynamic_resizing@@@@QAEXXZ 1007bff7 f i libucrt:unlink.obj
 0001:0007b013       ?size@?$__crt_win32_buffer@_WU__crt_win32_buffer_internal_dynamic_resizing@@@@QAEXI@Z 1007c013 f i libucrt:unlink.obj
