 HybridControllerD2D2_slrt

 Timestamp is 67bd1813 (Mon Feb 24 20:08:35 2025)

 Preferred load address is 10000000

 Start         Length     Name                   Class
 0001:00000000 0000eb90H .text$di                CODE
 0001:0000eb90 000b1340H .text$mn                CODE
 0001:000bfed0 000053afH .text$x                 CODE
 0001:000c527f 0000103eH .text$yd                CODE
 0002:00000000 00000104H .CRT$XCA                DATA
 0002:00000104 00000110H .CRT$XCC                DATA
 0002:00000214 0000010cH .CRT$XCL                DATA
 0002:00000320 00000104H .CRT$XCZ                DATA
 0002:00000424 00000104H .CRT$XIA                DATA
 0002:00000528 00000118H .CRT$XIC                DATA
 0002:00000640 00000104H .CRT$XIZ                DATA
 0002:00000744 00000104H .CRT$XPA                DATA
 0002:00000848 0000010cH .CRT$XPX                DATA
 0002:00000954 00000104H .CRT$XPXA               DATA
 0002:00000a58 00000104H .CRT$XPZ                DATA
 0002:00000b5c 00000104H .CRT$XTA                DATA
 0002:00000c60 00000110H .CRT$XTZ                DATA
 0002:00000d70 0003d1d0H .rdata                  DATA
 0002:0003df40 00000104H .rdata$CastGuardVftablesA DATA
 0002:0003e044 00000104H .rdata$CastGuardVftablesC DATA
 0002:0003e148 00001f4cH .rdata$r                DATA
 0002:00040094 000005ccH .rdata$sxdata           DATA
 0002:00040660 000001d8H .rdata$zzzdbg           DATA
 0002:00040838 00000104H .rtc$IAA                DATA
 0002:0004093c 00000104H .rtc$IZZ                DATA
 0002:00040a40 00000104H .rtc$TAA                DATA
 0002:00040b44 00000104H .rtc$TZZ                DATA
 0002:00040c48 00005568H .xdata$x                DATA
 0002:000461b0 0000020fH .edata                  DATA
 0003:00000000 00001cf4H .data                   DATA
 0003:00001cf4 00000384H .data$r                 DATA
 0003:00002078 00000ee8H .data$rs                DATA
 0003:00002f60 0002a10cH .bss                    DATA
 0004:00000000 00000210H .idata$5                DATA
 0004:00000210 00000014H .idata$2                DATA
 0004:00000224 00000014H .idata$3                DATA
 0004:00000238 00000210H .idata$4                DATA
 0004:00000448 00000930H .idata$6                DATA
 0005:00000000 00000109H .00cfg                  DATA

  Address         Publics by Value              Rva+Base       Lib:Object

 0000:00000000       ___guard_longjmp_table     00000000     <absolute>
 0000:00000000       ___arm64x_redirection_metadata 00000000     <absolute>
 0000:00000000       ___dynamic_value_reloc_table 00000000     <absolute>
 0000:00000000       ___enclave_config          00000000     <absolute>
 0000:00000000       ___volatile_metadata       00000000     <absolute>
 0000:00000000       ___hybrid_auxiliary_iat    00000000     <absolute>
 0000:00000000       ___guard_fids_table        00000000     <absolute>
 0000:00000000       ___x64_code_ranges_to_entry_points_count 00000000     <absolute>
 0000:00000000       ___guard_iat_count         00000000     <absolute>
 0000:00000000       ___hybrid_code_map_count   00000000     <absolute>
 0000:00000000       ___AbsoluteZero            00000000     <absolute>
 0000:00000000       ___x64_code_ranges_to_entry_points 00000000     <absolute>
 0000:00000000       ___guard_longjmp_count     00000000     <absolute>
 0000:00000000       ___hybrid_code_map         00000000     <absolute>
 0000:00000000       ___arm64x_extra_rfe_table  00000000     <absolute>
 0000:00000000       ___guard_eh_cont_count     00000000     <absolute>
 0000:00000000       ___guard_check_icall_a64n_fptr 00000000     <absolute>
 0000:00000000       ___arm64x_extra_rfe_table_size 00000000     <absolute>
 0000:00000000       ___guard_eh_cont_table     00000000     <absolute>
 0000:00000000       ___arm64x_redirection_metadata_count 00000000     <absolute>
 0000:00000000       __except_list              00000000     <absolute>
 0000:00000000       ___guard_fids_count        00000000     <absolute>
 0000:00000000       ___guard_iat_table         00000000     <absolute>
 0000:00000000       ___arm64x_native_entrypoint 00000000     <absolute>
 0000:00000000       ___hybrid_auxiliary_iat_copy 00000000     <absolute>
 0000:00000100       ___guard_flags             00000100     <absolute>
 0000:00000100       ___safe_se_handler_count   00000100     <absolute>
 0000:00000000       ___ImageBase               10000000     <linker-defined>
 0001:0000eb90       _DllMain@12                1000fb90 f   xpctarget.obj
 0001:0000eba0       _HybridControllerD2D2_ChangeStepSize 1000fba0 f   xpctarget.obj
 0001:0000ebf0       _SLRTSetErrorStatus        1000fbf0 f   xpctarget.obj
 0001:0000ec10       _changeStepSize            1000fc10 f   xpctarget.obj
 0001:0000ec60       _getDLMVersion             1000fc60 f   xpctarget.obj
 0001:0000ec70       _getFullPathToRefMdl       1000fc70 f   xpctarget.obj
 0001:0000ed20       _getRefMdlPath             1000fd20 f   xpctarget.obj
 0001:0000eda0       _getRefMdlSignalNumber     1000fda0 f   xpctarget.obj
 0001:0000ee50       _getrlmdlinfo              1000fe50 f   xpctarget.obj
 0001:0000efb0       _slrtRegisterSignalToLoggingService 1000ffb0 f   xpctarget.obj
 0001:0000f110       _updateDiscreteEvents      10010110 f   xpctarget.obj
 0001:0000f120       _getNumRef                 10010120 f   appmappingData.obj
 0001:0000f130       ___local_stdio_printf_options 10010130 f i legacy_stdio.obj
 0001:0000f140       __vfprintf_l               10010140 f i legacy_stdio.obj
 0001:0000f170       _vprintf                   10010170 f i legacy_stdio.obj
 0001:0000f1b0       _rt_mxCreateCharMatrixFromStrings 100101b0 f   rt_matrx.obj
 0001:0000f310       _rt_mxCreateDoubleMatrix   10010310 f   rt_matrx.obj
 0001:0000f370       _rt_mxCreateNumericArray   10010370 f   rt_matrx.obj
 0001:0000f3e0       _rt_mxCreateString         100103e0 f   rt_matrx.obj
 0001:0000f470       _rt_mxDuplicateArray       10010470 f   rt_matrx.obj
 0001:0000f4d0       _rt_mxGetDimensions        100104d0 f   rt_matrx.obj
 0001:0000f510       _rt_mxGetEps               10010510 f   rt_matrx.obj
 0001:0000f520       _rt_mxGetString            10010520 f   rt_matrx.obj
 0001:0000f5a0       _rtPrintfNoOp              100105a0 f   rt_printf.obj
 0001:0000f5b0       __vsnprintf_l              100105b0 f i rt_logging.obj
 0001:0000f5f0       __vsprintf_l               100105f0 f i rt_logging.obj
 0001:0000f630       _fprintf                   10010630 f i rt_logging.obj
 0001:0000fb30       _printf                    10010b30 f i rt_logging.obj
 0001:0000fb70       _rt_CreateLogVar           10010b70 f   rt_logging.obj
 0001:0000fc00       _rt_CreateLogVarWithConvert 10010c00 f   rt_logging.obj
 0001:00010530       _rt_CreateStructLogVar     10011530 f   rt_logging.obj
 0001:00011330       _rt_GetMxIdFromDTypeId     10012330 f   rt_logging.obj
 0001:00011360       _rt_GetMxIdFromDTypeIdForRSim 10012360 f   rt_logging.obj
 0001:00013ef0       _rt_StartDataLogging       10014ef0 f   rt_logging.obj
 0001:000143c0       _rt_StartDataLoggingWithStartTime 100153c0 f   rt_logging.obj
 0001:00014840       _rt_StopDataLogging        10015840 f   rt_logging.obj
 0001:00014860       _rt_StopDataLoggingImpl    10015860 f   rt_logging.obj
 0001:00014f70       _rt_UpdateLogVar           10015f70 f   rt_logging.obj
 0001:00015f50       _rt_UpdateLogVarWithDiscontiguousData 10016f50 f   rt_logging.obj
 0001:00016210       _rt_UpdateStructLogVar     10017210 f   rt_logging.obj
 0001:000162a0       _rt_UpdateTXXFYLogVars     100172a0 f   rt_logging.obj
 0001:00016710       _rt_UpdateTXYLogVars       10017710 f   rt_logging.obj
 0001:00016950       _rt_getTempMemory          10017950 f   rt_logging.obj
 0001:000169a0       _rt_preProcessAndLogData   100179a0 f   rt_logging.obj
 0001:00016a40       _rt_preProcessAndLogDataWithIndex 10017a40 f   rt_logging.obj
 0001:00016af0       _sprintf                   10017af0 f i rt_logging.obj
 0001:00016b30       _HybridC_IfActionSubsystem1_Init 10017b30 f   HybridControllerD2D2.obj
 0001:00016b50       _HybridContro_IfActionSubsystem1 10017b50 f   HybridControllerD2D2.obj
 0001:00016b80       _HybridControllerD2D2      10017b80 f   HybridControllerD2D2.obj
 0001:0001c660       _Hybrid_IfActionSubsystem1_Start 1001d660 f   HybridControllerD2D2.obj
 0001:0001c670       _MdlInitialize             1001d670 f   HybridControllerD2D2.obj
 0001:0001c680       _MdlInitializeSampleTimes  1001d680 f   HybridControllerD2D2.obj
 0001:0001c690       _MdlInitializeSizes        1001d690 f   HybridControllerD2D2.obj
 0001:0001c6a0       _MdlOutputs                1001d6a0 f   HybridControllerD2D2.obj
 0001:0001c6b0       _MdlStart                  1001d6b0 f   HybridControllerD2D2.obj
 0001:0001c6c0       _MdlTerminate              1001d6c0 f   HybridControllerD2D2.obj
 0001:0001c740       _MdlUpdate                 1001d740 f   HybridControllerD2D2.obj
 0001:0001c750       _HybridControllerD2D2_GetCAPIStaticMap 1001d750 f   HybridControllerD2D2_capi.obj
 0001:0001c760       _HybridControllerD2D2_InitializeDataMapInfo 1001d760 f   HybridControllerD2D2_capi.obj
 0001:0001c830       _mdlXcp_GetMdlXcpInfo      1001d830 f   HybridControllerD2D2_xcp.obj
 0001:0001c840       _SLRT_update_TET           1001d840 f   HybridControllerD2D2_xcp_TET.obj
 0001:0001c910       _rtGetInf                  1001d910 f   rtGetInf.obj
 0001:0001c940       _rtGetInfF                 1001d940 f   rtGetInf.obj
 0001:0001c950       _rtGetMinusInf             1001d950 f   rtGetInf.obj
 0001:0001c980       _rtGetMinusInfF            1001d980 f   rtGetInf.obj
 0001:0001c990       _rtGetNaN                  1001d990 f   rtGetNaN.obj
 0001:0001c9c0       _rtGetNaNF                 1001d9c0 f   rtGetNaN.obj
 0001:0001c9d0       _rtIsInf                   1001d9d0 f   rt_nonfinite.obj
 0001:0001ca10       _rtIsInfF                  1001da10 f   rt_nonfinite.obj
 0001:0001ca50       _rtIsNaN                   1001da50 f   rt_nonfinite.obj
 0001:0001caa0       _rtIsNaNF                  1001daa0 f   rt_nonfinite.obj
 0001:0001cae0       _rt_InitInfAndNaN          1001dae0 f   rt_nonfinite.obj
 0001:0001cb70       _IO901_IO902_isr_public    1001db70 f   io901_io902_int_hooks.obj
 0001:0001cbe0       _IO901_IO902_start_public  1001dbe0 f   io901_io902_int_hooks.obj
 0001:0001cc90       _IO901_IO902_stop_public   1001dc90 f   io901_io902_int_hooks.obj
 0001:0001ccb0       _rt_CleanUpForStateLogWithMMI 1001dcb0 f   rt_logging_mmi.obj
 0001:0001cdc0       _rt_FillStateSigInfoFromMMI 1001ddc0 f   rt_logging_mmi.obj
 0001:0001d210       _rtwCAPI_CountSysRan       1001e210 f   rtw_modelmap_utils.obj
 0001:0001d2b0       _rtwCAPI_EncodePath        1001e2b0 f   rtw_modelmap_utils.obj
 0001:0001d350       _rtwCAPI_FillSysRan        1001e350 f   rtw_modelmap_utils.obj
 0001:0001d440       _rtwCAPI_FreeFullPaths     1001e440 f   rtw_modelmap_utils.obj
 0001:0001d4a0       _rtwCAPI_GetFullStateBlockPath 1001e4a0 f   rtw_modelmap_utils.obj
 0001:0001d620       _rtwCAPI_GetNumContStateRecords 1001e620 f   rtw_modelmap_utils.obj
 0001:0001d6a0       _rtwCAPI_GetNumSigLogRecords 1001e6a0 f   rtw_modelmap_utils.obj
 0001:0001d6f0       _rtwCAPI_GetNumSigLogRecordsForRTWLogging 1001e6f0 f   rtw_modelmap_utils.obj
 0001:0001d790       _rtwCAPI_GetNumStateRecords 1001e790 f   rtw_modelmap_utils.obj
 0001:0001d7e0       _rtwCAPI_GetNumStateRecordsForRTWLogging 1001e7e0 f   rtw_modelmap_utils.obj
 0001:0001d880       _rtwCAPI_GetSigAddrFromMap 1001e880 f   rtw_modelmap_utils.obj
 0001:0001d8c0       _rtwCAPI_GetSigLogRecordInfo 1001e8c0 f   rtw_modelmap_utils.obj
 0001:0001ddb0       _rtwCAPI_GetStateRecordInfo 1001edb0 f   rtw_modelmap_utils.obj
 0001:0001e390       _rtwCAPI_GetStateWidth     1001f390 f   rtw_modelmap_utils.obj
 0001:0001e3e0       _rtwCAPI_HasStates         1001f3e0 f   rtw_modelmap_utils.obj
 0001:0001e440       _rtwCAPI_UpdateFullPaths   1001f440 f   rtw_modelmap_utils.obj
 0001:0001e580       _correctA1                 1001f580 f   PredictorCorrector.obj
 0001:0001e5d0       _correctA2                 1001f5d0 f   PredictorCorrector.obj
 0001:0001e6d0       _correctA3                 1001f6d0 f   PredictorCorrector.obj
 0001:0001e890       _correctD1                 1001f890 f   PredictorCorrector.obj
 0001:0001e940       _correctD2                 1001f940 f   PredictorCorrector.obj
 0001:0001ea70       _correctD3                 1001fa70 f   PredictorCorrector.obj
 0001:0001ec30       _correctDV                 1001fc30 f   PredictorCorrector.obj
 0001:0001ed50       _correctDVA                1001fd50 f   PredictorCorrector.obj
 0001:0001ef20       _correctP1                 1001ff20 f   PredictorCorrector.obj
 0001:0001efb0       _correctP2                 1001ffb0 f   PredictorCorrector.obj
 0001:0001f080       _correctP3                 10020080 f   PredictorCorrector.obj
 0001:0001f1c0       _correctV1                 100201c0 f   PredictorCorrector.obj
 0001:0001f260       _correctV2                 10020260 f   PredictorCorrector.obj
 0001:0001f3a0       _correctV3                 100203a0 f   PredictorCorrector.obj
 0001:0001f5d0       _getNumSubSteps            100205d0 f   PredictorCorrector.obj
 0001:0001f730       _initData                  10020730 f   PredictorCorrector.obj
 0001:0001fa40       _predictA1                 10020a40 f   PredictorCorrector.obj
 0001:0001fa90       _predictA2                 10020a90 f   PredictorCorrector.obj
 0001:0001fb90       _predictA3                 10020b90 f   PredictorCorrector.obj
 0001:0001fd60       _predictD0                 10020d60 f   PredictorCorrector.obj
 0001:0001fdc0       _predictD1                 10020dc0 f   PredictorCorrector.obj
 0001:0001fe70       _predictD2                 10020e70 f   PredictorCorrector.obj
 0001:0001ff90       _predictD3                 10020f90 f   PredictorCorrector.obj
 0001:00020140       _predictDV                 10021140 f   PredictorCorrector.obj
 0001:00020240       _predictDVA                10021240 f   PredictorCorrector.obj
 0001:000202e0       _predictP0                 100212e0 f   PredictorCorrector.obj
 0001:00020340       _predictP1                 10021340 f   PredictorCorrector.obj
 0001:000203d0       _predictP2                 100213d0 f   PredictorCorrector.obj
 0001:000204a0       _predictP3                 100214a0 f   PredictorCorrector.obj
 0001:000205e0       _predictV1                 100215e0 f   PredictorCorrector.obj
 0001:00020670       _predictV2                 10021670 f   PredictorCorrector.obj
 0001:00020790       _predictV3                 10021790 f   PredictorCorrector.obj
 0001:000209b0       _setCurSig                 100219b0 f   PredictorCorrector.obj
 0001:00020a20       _setData                   10021a20 f   PredictorCorrector.obj
 0001:00020b40       _setDataDot                10021b40 f   PredictorCorrector.obj
 0001:00020bc0       _setDataDotDot             10021bc0 f   PredictorCorrector.obj
 0001:00020c30       _setNewSig                 10021c30 f   PredictorCorrector.obj
 0001:00020f30       _setNewSigDot              10021f30 f   PredictorCorrector.obj
 0001:00020fc0       _setNewSigDotDot           10021fc0 f   PredictorCorrector.obj
 0001:00021030       _setSig                    10022030 f   PredictorCorrector.obj
 0001:00021090       _setSigDot                 10022090 f   PredictorCorrector.obj
 0001:000210f0       _setSigDotDot              100220f0 f   PredictorCorrector.obj
 0001:00021150       _zeroData                  10022150 f   PredictorCorrector.obj
 0001:00021260       _zeroSig                   10022260 f   PredictorCorrector.obj
 0001:000212b0       _timestamp_x86             100222b0 f   host_timer_x86.obj
 0001:000212c0       _taskTimeEnd               100222c0 f   xpc_code_profiling_utility_functions.obj
 0001:000212d0       _taskTimeEnd_              100222d0 f   xpc_code_profiling_utility_functions.obj
 0001:000212e0       _taskTimeStart             100222e0 f   xpc_code_profiling_utility_functions.obj
 0001:000212f0       _taskTimeStart_            100222f0 f   xpc_code_profiling_utility_functions.obj
 0001:00021300       _xilProfilingTimerFreeze   10022300 f   xpc_code_profiling_utility_functions.obj
 0001:00021310       _xilProfilingTimerFreezeInternal 10022310 f   xpc_code_profiling_utility_functions.obj
 0001:00021320       _xilProfilingTimerUnFreeze 10022320 f   xpc_code_profiling_utility_functions.obj
 0001:00021330       _xilProfilingTimerUnFreezeInternal 10022330 f   xpc_code_profiling_utility_functions.obj
 0001:00021340       _xilUploadProfilingData    10022340 f   xpc_code_profiling_utility_functions.obj
 0001:00021680       _sg_IO901_IO902_read_s     10022680 f   sg_IO901_IO902_read_s.obj
 0001:00021dd0       _sg_IO901_IO902_setup_s    10022dd0 f   sg_IO901_IO902_setup_s.obj
 0001:000221c0       _sg_IO901_IO902_write_s    100231c0 f   sg_IO901_IO902_write_s.obj
 0001:000225c0       _xpcany2dword              100235c0 f   xpcany2dword.obj
 0001:00022900       _xpcdword2any              10023900 f   xpcdword2any.obj
 0001:00022940       _GetPCIDeviceFull          10023940 f   xpcruntime:xpcimports.obj
 0001:00022ab0       _GetPCIDeviceFunction      10023ab0 f   xpcruntime:xpcimports.obj
 0001:00022c20       _ShowPCIDevice             10023c20 f   xpcruntime:xpcimports.obj
 0001:00023240       _slrtGetPciConfigAtFunction 10024240 f   xpcruntime:xpcimports.obj
 0001:000235c0       _xpcGetPciConfigAtSlot     100245c0 f   xpcruntime:xpcimports.obj
 0001:000235e0       _xpcInitProcs              100245e0 f   xpcruntime:xpcimports.obj
 0001:00025010       _xpceuploadevent           10026010 f   xpcruntime:xpcimports.obj
 0001:00025020       ??$?6DU?$char_traits@D@std@@V?$allocator@D@1@@std@@YAAAV?$basic_ostream@DU?$char_traits@D@std@@@0@AAV10@ABV?$basic_string@DU?$char_traits@D@std@@V?$allocator@D@2@@0@@Z 10026020 f i libsg_MSVC160_vc:sg_common.obj
 0001:00025050       ??$?6U?$char_traits@D@std@@@std@@YAAAV?$basic_ostream@DU?$char_traits@D@std@@@0@AAV10@PBD@Z 10026050 f i libsg_MSVC160_vc:sg_common.obj
 0001:00025390       ??$_Allocate_manually_vector_aligned@U_Default_allocate_traits@std@@@std@@YAPAXI@Z 10026390 f i libsg_MSVC160_vc:sg_common.obj
 0001:000253d0       ??$_Destroy_range@V?$allocator@V?$basic_string@DU?$char_traits@D@std@@V?$allocator@D@2@@std@@@std@@@std@@YAXPAV?$basic_string@DU?$char_traits@D@std@@V?$allocator@D@2@@0@QAV10@AAV?$allocator@V?$basic_string@DU?$char_traits@D@std@@V?$allocator@D@2@@std@@@0@@Z 100263d0 f i libsg_MSVC160_vc:sg_common.obj
 0001:00025450       ??$_Emplace_reallocate@V?$basic_string@DU?$char_traits@D@std@@V?$allocator@D@2@@std@@@?$vector@V?$basic_string@DU?$char_traits@D@std@@V?$allocator@D@2@@std@@V?$allocator@V?$basic_string@DU?$char_traits@D@std@@V?$allocator@D@2@@std@@@2@@std@@QAEPAV?$basic_string@DU?$char_traits@D@std@@V?$allocator@D@2@@1@QAV21@$$QAV21@@Z 10026450 f i libsg_MSVC160_vc:sg_common.obj
 0001:000256a0       ??$_Float_put_desired_precision@N@std@@YAH_JH@Z 100266a0 f i libsg_MSVC160_vc:sg_common.obj
 0001:000256f0       ??$_Float_put_desired_precision@O@std@@YAH_JH@Z 100266f0 f i libsg_MSVC160_vc:sg_common.obj
 0001:00025740       ??$_Immortalize_memcpy_image@V_Iostream_error_category2@std@@@std@@YAABV_Iostream_error_category2@0@XZ 10026740 f i libsg_MSVC160_vc:sg_common.obj
 0001:00025750       ??$_Insert_string@DU?$char_traits@D@std@@I@std@@YAAAV?$basic_ostream@DU?$char_traits@D@std@@@0@AAV10@QBDI@Z 10026750 f i libsg_MSVC160_vc:sg_common.obj
 0001:00025a40       ??$_Integral_to_string@D_J@std@@YA?AV?$basic_string@DU?$char_traits@D@std@@V?$allocator@D@2@@0@_J@Z 10026a40 f i libsg_MSVC160_vc:sg_common.obj
 0001:00025af0       ??$_Maklocchr@D@std@@YADDPADABU_Cvtvec@@@Z 10026af0 f i libsg_MSVC160_vc:sg_common.obj
 0001:00025b00       ??$_Maklocstr@D@std@@YAPADPBDPADABU_Cvtvec@@@Z 10026b00 f i libsg_MSVC160_vc:sg_common.obj
 0001:00025b60       ??$_UIntegral_to_buff@D_K@std@@YAPADPAD_K@Z 10026b60 f i libsg_MSVC160_vc:sg_common.obj
 0001:00025ce0       ??$_Uninitialized_move@PAV?$basic_string@DU?$char_traits@D@std@@V?$allocator@D@2@@std@@V?$allocator@V?$basic_string@DU?$char_traits@D@std@@V?$allocator@D@2@@std@@@2@@std@@YAPAV?$basic_string@DU?$char_traits@D@std@@V?$allocator@D@2@@0@QAV10@0PAV10@AAV?$allocator@V?$basic_string@DU?$char_traits@D@std@@V?$allocator@D@2@@std@@@0@@Z 10026ce0 f i libsg_MSVC160_vc:sg_common.obj
 0001:00025d70       ??$endl@DU?$char_traits@D@std@@@std@@YAAAV?$basic_ostream@DU?$char_traits@D@std@@@0@AAV10@@Z 10026d70 f i libsg_MSVC160_vc:sg_common.obj
 0001:00025e40       ??$use_facet@V?$ctype@D@std@@@std@@YAABV?$ctype@D@0@ABVlocale@0@@Z 10026e40 f i libsg_MSVC160_vc:sg_common.obj
 0001:00026020       ??$use_facet@V?$num_put@DV?$ostreambuf_iterator@DU?$char_traits@D@std@@@std@@@std@@@std@@YAABV?$num_put@DV?$ostreambuf_iterator@DU?$char_traits@D@std@@@std@@@0@ABVlocale@0@@Z 10027020 f i libsg_MSVC160_vc:sg_common.obj
 0001:000261d0       ??$use_facet@V?$numpunct@D@std@@@std@@YAABV?$numpunct@D@0@ABVlocale@0@@Z 100271d0 f i libsg_MSVC160_vc:sg_common.obj
 0001:00026480       ??0?$basic_string@DU?$char_traits@D@std@@V?$allocator@D@2@@std@@QAE@ID@Z 10027480 f i libsg_MSVC160_vc:sg_common.obj
 0001:00026550       ??0_Locinfo@std@@QAE@PBD@Z 10027550 f i libsg_MSVC160_vc:sg_common.obj
 0001:00026620       ??0_System_error@std@@IAE@Verror_code@1@ABV?$basic_string@DU?$char_traits@D@std@@V?$allocator@D@2@@1@@Z 10027620 f i libsg_MSVC160_vc:sg_common.obj
 0001:00026870       ??0_System_error@std@@QAE@ABV01@@Z 10027870 f i libsg_MSVC160_vc:sg_common.obj
 0001:000268d0       ??0bad_alloc@std@@QAE@ABV01@@Z 100278d0 f i libsg_MSVC160_vc:sg_common.obj
 0001:00026910       ??0bad_array_new_length@std@@QAE@ABV01@@Z 10027910 f i libsg_MSVC160_vc:sg_common.obj
 0001:00026950       ??0bad_array_new_length@std@@QAE@XZ 10027950 f i libsg_MSVC160_vc:sg_common.obj
 0001:00026970       ??0bad_cast@std@@QAE@ABV01@@Z 10027970 f i libsg_MSVC160_vc:sg_common.obj
 0001:000269b0       ??0exception@std@@QAE@ABV01@@Z 100279b0 f i libsg_MSVC160_vc:sg_common.obj
 0001:000269f0       ??0failure@ios_base@std@@QAE@ABV012@@Z 100279f0 f i libsg_MSVC160_vc:sg_common.obj
 0001:00026a50       ??0failure@ios_base@std@@QAE@PBDABVerror_code@2@@Z 10027a50 f i libsg_MSVC160_vc:sg_common.obj
 0001:00026b70       ??0runtime_error@std@@QAE@ABV01@@Z 10027b70 f i libsg_MSVC160_vc:sg_common.obj
 0001:00026bb0       ??0sentry@?$basic_ostream@DU?$char_traits@D@std@@@std@@QAE@AAV12@@Z 10027bb0 f i libsg_MSVC160_vc:sg_common.obj
 0001:00026c70       ??0system_error@std@@QAE@ABV01@@Z 10027c70 f i libsg_MSVC160_vc:sg_common.obj
 0001:00026cd0       ??1?$_Tidy_guard@V?$numpunct@D@std@@@std@@QAE@XZ 10027cd0 f i libsg_MSVC160_vc:sg_common.obj
 0001:00026d00       ??1?$_Yarn@D@std@@QAE@XZ   10027d00 f i libsg_MSVC160_vc:sg_common.obj
 0001:00026d20       ??1?$_Yarn@_W@std@@QAE@XZ  10027d20 f i libsg_MSVC160_vc:sg_common.obj
 0001:00026d40       ??1?$basic_string@DU?$char_traits@D@std@@V?$allocator@D@2@@std@@QAE@XZ 10027d40 f i libsg_MSVC160_vc:sg_common.obj
 0001:00026da0       ??1?$ctype@D@std@@MAE@XZ   10027da0 f i libsg_MSVC160_vc:sg_common.obj
 0001:00026df0       ??1?$num_put@DV?$ostreambuf_iterator@DU?$char_traits@D@std@@@std@@@std@@MAE@XZ 10027df0 f i libsg_MSVC160_vc:sg_common.obj
 0001:00026e00       ??1?$numpunct@D@std@@MAE@XZ 10027e00 f i libsg_MSVC160_vc:sg_common.obj
 0001:00026e40       ??1?$unique_ptr@V_Facet_base@std@@U?$default_delete@V_Facet_base@std@@@2@@std@@QAE@XZ 10027e40 f i libsg_MSVC160_vc:sg_common.obj
 0001:00026e50       ??1?$vector@V?$basic_string@DU?$char_traits@D@std@@V?$allocator@D@2@@std@@V?$allocator@V?$basic_string@DU?$char_traits@D@std@@V?$allocator@D@2@@std@@@2@@std@@QAE@XZ 10027e50 f i libsg_MSVC160_vc:sg_common.obj
 0001:00026ef0       ??1_Facet_base@std@@UAE@XZ 10027ef0 f i libsg_MSVC160_vc:sg_common.obj
 0001:00026f00       ??1_Locinfo@std@@QAE@XZ    10027f00 f i libsg_MSVC160_vc:sg_common.obj
 0001:00027010       ??1_Sentry_base@?$basic_ostream@DU?$char_traits@D@std@@@std@@QAE@XZ 10028010 f i libsg_MSVC160_vc:sg_common.obj
 0001:00027070       ??1bad_array_new_length@std@@UAE@XZ 10028070 f i libsg_MSVC160_vc:sg_common.obj
 0001:00027090       ??1bad_cast@std@@UAE@XZ    10028090 f i libsg_MSVC160_vc:sg_common.obj
 0001:000270b0       ??1error_category@std@@UAE@XZ 100280b0 f i libsg_MSVC160_vc:sg_common.obj
 0001:000270c0       ??1exception@std@@UAE@XZ   100280c0 f i libsg_MSVC160_vc:sg_common.obj
 0001:000270e0       ??1facet@locale@std@@MAE@XZ 100280e0 f i libsg_MSVC160_vc:sg_common.obj
 0001:000270f0       ??1failure@ios_base@std@@UAE@XZ 100280f0 f i libsg_MSVC160_vc:sg_common.obj
 0001:00027110       ??1locale@std@@QAE@XZ      10028110 f i libsg_MSVC160_vc:sg_common.obj
 0001:00027130       ??1sentry@?$basic_ostream@DU?$char_traits@D@std@@@std@@QAE@XZ 10028130 f i libsg_MSVC160_vc:sg_common.obj
 0001:000271b0       ??1system_error@std@@UAE@XZ 100281b0 f i libsg_MSVC160_vc:sg_common.obj
 0001:000271d0       ??_E?$ctype@D@std@@MAEPAXI@Z 100281d0 f i libsg_MSVC160_vc:sg_common.obj
 0001:000271d0       ??_G?$ctype@D@std@@MAEPAXI@Z 100281d0 f i libsg_MSVC160_vc:sg_common.obj
 0001:00027240       ??_G?$num_put@DV?$ostreambuf_iterator@DU?$char_traits@D@std@@@std@@@std@@MAEPAXI@Z 10028240 f i libsg_MSVC160_vc:sg_common.obj
 0001:00027240       ??_E?$num_put@DV?$ostreambuf_iterator@DU?$char_traits@D@std@@@std@@@std@@MAEPAXI@Z 10028240 f i libsg_MSVC160_vc:sg_common.obj
 0001:00027270       ??_G?$numpunct@D@std@@MAEPAXI@Z 10028270 f i libsg_MSVC160_vc:sg_common.obj
 0001:00027270       ??_E?$numpunct@D@std@@MAEPAXI@Z 10028270 f i libsg_MSVC160_vc:sg_common.obj
 0001:000272d0       ??_E_Facet_base@std@@UAEPAXI@Z 100282d0 f i libsg_MSVC160_vc:sg_common.obj
 0001:000272d0       ??_G_Facet_base@std@@UAEPAXI@Z 100282d0 f i libsg_MSVC160_vc:sg_common.obj
 0001:00027300       ??_E_Iostream_error_category2@std@@UAEPAXI@Z 10028300 f i libsg_MSVC160_vc:sg_common.obj
 0001:00027300       ??_G_Iostream_error_category2@std@@UAEPAXI@Z 10028300 f i libsg_MSVC160_vc:sg_common.obj
 0001:00027330       ??_G_System_error@std@@UAEPAXI@Z 10028330 f i libsg_MSVC160_vc:sg_common.obj
 0001:00027330       ??_E_System_error@std@@UAEPAXI@Z 10028330 f i libsg_MSVC160_vc:sg_common.obj
 0001:00027370       ??_Ebad_alloc@std@@UAEPAXI@Z 10028370 f i libsg_MSVC160_vc:sg_common.obj
 0001:00027370       ??_Gbad_alloc@std@@UAEPAXI@Z 10028370 f i libsg_MSVC160_vc:sg_common.obj
 0001:000273b0       ??_Ebad_array_new_length@std@@UAEPAXI@Z 100283b0 f i libsg_MSVC160_vc:sg_common.obj
 0001:000273b0       ??_Gbad_array_new_length@std@@UAEPAXI@Z 100283b0 f i libsg_MSVC160_vc:sg_common.obj
 0001:000273f0       ??_Ebad_cast@std@@UAEPAXI@Z 100283f0 f i libsg_MSVC160_vc:sg_common.obj
 0001:000273f0       ??_Gbad_cast@std@@UAEPAXI@Z 100283f0 f i libsg_MSVC160_vc:sg_common.obj
 0001:00027430       ??_Gctype_base@std@@UAEPAXI@Z 10028430 f i libsg_MSVC160_vc:sg_common.obj
 0001:00027430       ??_Ectype_base@std@@UAEPAXI@Z 10028430 f i libsg_MSVC160_vc:sg_common.obj
 0001:00027460       ??_Gexception@std@@UAEPAXI@Z 10028460 f i libsg_MSVC160_vc:sg_common.obj
 0001:00027460       ??_Eexception@std@@UAEPAXI@Z 10028460 f i libsg_MSVC160_vc:sg_common.obj
 0001:000274a0       ??_Gfacet@locale@std@@MAEPAXI@Z 100284a0 f i libsg_MSVC160_vc:sg_common.obj
 0001:000274a0       ??_Efacet@locale@std@@MAEPAXI@Z 100284a0 f i libsg_MSVC160_vc:sg_common.obj
 0001:000274d0       ??_Gfailure@ios_base@std@@UAEPAXI@Z 100284d0 f i libsg_MSVC160_vc:sg_common.obj
 0001:000274d0       ??_Efailure@ios_base@std@@UAEPAXI@Z 100284d0 f i libsg_MSVC160_vc:sg_common.obj
 0001:00027510       ??_Eruntime_error@std@@UAEPAXI@Z 10028510 f i libsg_MSVC160_vc:sg_common.obj
 0001:00027510       ??_Gruntime_error@std@@UAEPAXI@Z 10028510 f i libsg_MSVC160_vc:sg_common.obj
 0001:00027550       ??_Gsystem_error@std@@UAEPAXI@Z 10028550 f i libsg_MSVC160_vc:sg_common.obj
 0001:00027550       ??_Esystem_error@std@@UAEPAXI@Z 10028550 f i libsg_MSVC160_vc:sg_common.obj
 0001:00027590       ?_Decref@facet@locale@std@@UAEPAV_Facet_base@3@XZ 10028590 f i libsg_MSVC160_vc:sg_common.obj
 0001:000275b0       ?_Ffmt@?$num_put@DV?$ostreambuf_iterator@DU?$char_traits@D@std@@@std@@@std@@ABAPADPADDH@Z 100285b0 f i libsg_MSVC160_vc:sg_common.obj
 0001:000276a0       ?_Fput@?$num_put@DV?$ostreambuf_iterator@DU?$char_traits@D@std@@@std@@@std@@ABA?AV?$ostreambuf_iterator@DU?$char_traits@D@std@@@2@V32@AAVios_base@2@DPBDI@Z 100286a0 f i libsg_MSVC160_vc:sg_common.obj
 0001:00027d80       ?_Incref@facet@locale@std@@UAEXXZ 10028d80 f i libsg_MSVC160_vc:sg_common.obj
 0001:00027d90       ?_Iput@?$num_put@DV?$ostreambuf_iterator@DU?$char_traits@D@std@@@std@@@std@@ABA?AV?$ostreambuf_iterator@DU?$char_traits@D@std@@@2@V32@AAVios_base@2@DPADI@Z 10028d90 f i libsg_MSVC160_vc:sg_common.obj
 0001:000283d0       ?_Osfx@?$basic_ostream@DU?$char_traits@D@std@@@std@@QAEXXZ 100293d0 f i libsg_MSVC160_vc:sg_common.obj
 0001:000284e0       ?_Put@?$num_put@DV?$ostreambuf_iterator@DU?$char_traits@D@std@@@std@@@std@@ABA?AV?$ostreambuf_iterator@DU?$char_traits@D@std@@@2@V32@PBDI@Z 100294e0 f i libsg_MSVC160_vc:sg_common.obj
 0001:00028570       ?_Rep@?$num_put@DV?$ostreambuf_iterator@DU?$char_traits@D@std@@@std@@@std@@ABA?AV?$ostreambuf_iterator@DU?$char_traits@D@std@@@2@V32@DI@Z 10029570 f i libsg_MSVC160_vc:sg_common.obj
 0001:00028600       ?_Throw_bad_array_new_length@std@@YAXXZ 10029600 f i libsg_MSVC160_vc:sg_common.obj
 0001:00028630       ?_Xlen_string@std@@YAXXZ   10029630 f i libsg_MSVC160_vc:sg_common.obj
 0001:00028640       ?_Xlength@?$vector@V?$basic_string@DU?$char_traits@D@std@@V?$allocator@D@2@@std@@V?$allocator@V?$basic_string@DU?$char_traits@D@std@@V?$allocator@D@2@@std@@@2@@std@@CAXXZ 10029640 f i libsg_MSVC160_vc:sg_common.obj
 0001:00028650       ?_Xran@?$_String_val@U?$_Simple_types@D@std@@@std@@SAXXZ 10029650 f i libsg_MSVC160_vc:sg_common.obj
 0001:00028660       ?allocate@?$allocator@D@std@@QAEPADI@Z 10029660 f i libsg_MSVC160_vc:sg_common.obj
 0001:000286d0       ?append@?$basic_string@DU?$char_traits@D@std@@V?$allocator@D@2@@std@@QAEAAV12@QBDI@Z 100296d0 f i libsg_MSVC160_vc:sg_common.obj
 0001:00028880       ?assign@?$basic_string@DU?$char_traits@D@std@@V?$allocator@D@2@@std@@QAEAAV12@QBDI@Z 10029880 f i libsg_MSVC160_vc:sg_common.obj
 0001:000289b0       ?clear@ios_base@std@@QAEXH_N@Z 100299b0 f i libsg_MSVC160_vc:sg_common.obj
 0001:00028a40       ?dec@std@@YAAAVios_base@1@AAV21@@Z 10029a40 f i libsg_MSVC160_vc:sg_common.obj
 0001:00028a60       ?default_error_condition@error_category@std@@UBE?AVerror_condition@2@H@Z 10029a60 f i libsg_MSVC160_vc:sg_common.obj
 0001:00028a80       ?do_decimal_point@?$numpunct@D@std@@MBEDXZ 10029a80 f i libsg_MSVC160_vc:sg_common.obj
 0001:00028a90       ?do_falsename@?$numpunct@D@std@@MBE?AV?$basic_string@DU?$char_traits@D@std@@V?$allocator@D@2@@2@XZ 10029a90 f i libsg_MSVC160_vc:sg_common.obj
 0001:00028af0       ?do_grouping@?$numpunct@D@std@@MBE?AV?$basic_string@DU?$char_traits@D@std@@V?$allocator@D@2@@2@XZ 10029af0 f i libsg_MSVC160_vc:sg_common.obj
 0001:00028b50       ?do_narrow@?$ctype@D@std@@MBEDDD@Z 10029b50 f i libsg_MSVC160_vc:sg_common.obj
 0001:00028b60       ?do_narrow@?$ctype@D@std@@MBEPBDPBD0DPAD@Z 10029b60 f i libsg_MSVC160_vc:sg_common.obj
 0001:00028b90       ?do_put@?$num_put@DV?$ostreambuf_iterator@DU?$char_traits@D@std@@@std@@@std@@MBE?AV?$ostreambuf_iterator@DU?$char_traits@D@std@@@2@V32@AAVios_base@2@DJ@Z 10029b90 f i libsg_MSVC160_vc:sg_common.obj
 0001:00028c90       ?do_put@?$num_put@DV?$ostreambuf_iterator@DU?$char_traits@D@std@@@std@@@std@@MBE?AV?$ostreambuf_iterator@DU?$char_traits@D@std@@@2@V32@AAVios_base@2@DK@Z 10029c90 f i libsg_MSVC160_vc:sg_common.obj
 0001:00028d90       ?do_put@?$num_put@DV?$ostreambuf_iterator@DU?$char_traits@D@std@@@std@@@std@@MBE?AV?$ostreambuf_iterator@DU?$char_traits@D@std@@@2@V32@AAVios_base@2@DN@Z 10029d90 f i libsg_MSVC160_vc:sg_common.obj
 0001:00028fc0       ?do_put@?$num_put@DV?$ostreambuf_iterator@DU?$char_traits@D@std@@@std@@@std@@MBE?AV?$ostreambuf_iterator@DU?$char_traits@D@std@@@2@V32@AAVios_base@2@DO@Z 10029fc0 f i libsg_MSVC160_vc:sg_common.obj
 0001:000291f0       ?do_put@?$num_put@DV?$ostreambuf_iterator@DU?$char_traits@D@std@@@std@@@std@@MBE?AV?$ostreambuf_iterator@DU?$char_traits@D@std@@@2@V32@AAVios_base@2@DPBX@Z 1002a1f0 f i libsg_MSVC160_vc:sg_common.obj
 0001:00029270       ?do_put@?$num_put@DV?$ostreambuf_iterator@DU?$char_traits@D@std@@@std@@@std@@MBE?AV?$ostreambuf_iterator@DU?$char_traits@D@std@@@2@V32@AAVios_base@2@D_J@Z 1002a270 f i libsg_MSVC160_vc:sg_common.obj
 0001:00029380       ?do_put@?$num_put@DV?$ostreambuf_iterator@DU?$char_traits@D@std@@@std@@@std@@MBE?AV?$ostreambuf_iterator@DU?$char_traits@D@std@@@2@V32@AAVios_base@2@D_K@Z 1002a380 f i libsg_MSVC160_vc:sg_common.obj
 0001:00029490       ?do_put@?$num_put@DV?$ostreambuf_iterator@DU?$char_traits@D@std@@@std@@@std@@MBE?AV?$ostreambuf_iterator@DU?$char_traits@D@std@@@2@V32@AAVios_base@2@D_N@Z 1002a490 f i libsg_MSVC160_vc:sg_common.obj
 0001:00029710       ?do_thousands_sep@?$numpunct@D@std@@MBEDXZ 1002a710 f i libsg_MSVC160_vc:sg_common.obj
 0001:00029720       ?do_tolower@?$ctype@D@std@@MBEDD@Z 1002a720 f i libsg_MSVC160_vc:sg_common.obj
 0001:00029740       ?do_tolower@?$ctype@D@std@@MBEPBDPADPBD@Z 1002a740 f i libsg_MSVC160_vc:sg_common.obj
 0001:00029780       ?do_toupper@?$ctype@D@std@@MBEDD@Z 1002a780 f i libsg_MSVC160_vc:sg_common.obj
 0001:000297a0       ?do_toupper@?$ctype@D@std@@MBEPBDPADPBD@Z 1002a7a0 f i libsg_MSVC160_vc:sg_common.obj
 0001:000297e0       ?do_truename@?$numpunct@D@std@@MBE?AV?$basic_string@DU?$char_traits@D@std@@V?$allocator@D@2@@2@XZ 1002a7e0 f i libsg_MSVC160_vc:sg_common.obj
 0001:00029840       ?do_widen@?$ctype@D@std@@MBEDD@Z 1002a840 f i libsg_MSVC160_vc:sg_common.obj
 0001:00029850       ?do_widen@?$ctype@D@std@@MBEPBDPBD0PAD@Z 1002a850 f i libsg_MSVC160_vc:sg_common.obj
 0001:00029880       ?equivalent@error_category@std@@UBE_NABVerror_code@2@H@Z 1002a880 f i libsg_MSVC160_vc:sg_common.obj
 0001:000298b0       ?equivalent@error_category@std@@UBE_NHABVerror_condition@2@@Z 1002a8b0 f i libsg_MSVC160_vc:sg_common.obj
 0001:00029900       ?flush@?$basic_ostream@DU?$char_traits@D@std@@@std@@QAEAAV12@XZ 1002a900 f i libsg_MSVC160_vc:sg_common.obj
 0001:00029a40       ?hex@std@@YAAAVios_base@1@AAV21@@Z 1002aa40 f i libsg_MSVC160_vc:sg_common.obj
 0001:00029a60       ?make_error_code@std@@YA?AVerror_code@1@W4io_errc@1@@Z 1002aa60 f i libsg_MSVC160_vc:sg_common.obj
 0001:00029a80       ?message@_Iostream_error_category2@std@@UBE?AV?$basic_string@DU?$char_traits@D@std@@V?$allocator@D@2@@2@H@Z 1002aa80 f i libsg_MSVC160_vc:sg_common.obj
 0001:00029b60       ?name@_Iostream_error_category2@std@@UBEPBDXZ 1002ab60 f i libsg_MSVC160_vc:sg_common.obj
 0001:00029b70       ?put@?$basic_ostream@DU?$char_traits@D@std@@@std@@QAEAAV12@D@Z 1002ab70 f i libsg_MSVC160_vc:sg_common.obj
 0001:00029d50       ?resize@?$basic_string@DU?$char_traits@D@std@@V?$allocator@D@2@@std@@QAEXID@Z 1002ad50 f i libsg_MSVC160_vc:sg_common.obj
 0001:00029f10       ?setstate@?$basic_ios@DU?$char_traits@D@std@@@std@@QAEXH_N@Z 1002af10 f i libsg_MSVC160_vc:sg_common.obj
 0001:00029f70       ?to_string@std@@YA?AV?$basic_string@DU?$char_traits@D@std@@V?$allocator@D@2@@1@_J@Z 1002af70 f i libsg_MSVC160_vc:sg_common.obj
 0001:0002a020       ?what@exception@std@@UBEPBDXZ 1002b020 f i libsg_MSVC160_vc:sg_common.obj
 0001:0002a040       _createEncryptedMacFile    1002b040 f   libsg_MSVC160_vc:sg_common.obj
 0001:0002a0d0       _createHashValue           1002b0d0 f   libsg_MSVC160_vc:sg_common.obj
 0001:0002a100       _getLowestBit              1002b100 f   libsg_MSVC160_vc:sg_common.obj
 0001:0002a130       _getPCIConfigData          1002b130 f   libsg_MSVC160_vc:sg_common.obj
 0001:0002a150       _getTargetAuthentication   1002b150 f   libsg_MSVC160_vc:sg_common.obj
 0001:0002b2f0       _printWarningMessage       1002c2f0 f   libsg_MSVC160_vc:sg_common.obj
 0001:0002b330       _readPciBar                1002c330 f   libsg_MSVC160_vc:sg_common.obj
 0001:0002b470       _setPCIConfigAddress       1002c470 f   libsg_MSVC160_vc:sg_common.obj
 0001:0002b4c0       _setPCIConfigData          1002c4c0 f   libsg_MSVC160_vc:sg_common.obj
 0001:0002b4e0       _sg_allocPhysicalMemory_v2 1002c4e0 f   libsg_MSVC160_vc:sg_common.obj
 0001:0002b500       _sg_checkTargetAuthentication 1002c500 f   libsg_MSVC160_vc:sg_common.obj
 0001:0002b530       _sg_createMutex            1002c530 f   libsg_MSVC160_vc:sg_common.obj
 0001:0002b550       _sg_createSemaphore        1002c550 f   libsg_MSVC160_vc:sg_common.obj
 0001:0002b570       _sg_createThread           1002c570 f   libsg_MSVC160_vc:sg_common.obj
 0001:0002b5b0       _sg_destroyMutex           1002c5b0 f   libsg_MSVC160_vc:sg_common.obj
 0001:0002b5d0       _sg_destroySemaphore       1002c5d0 f   libsg_MSVC160_vc:sg_common.obj
 0001:0002b5f0       _sg_destroyThread          1002c5f0 f   libsg_MSVC160_vc:sg_common.obj
 0001:0002b620       _sg_detectPciDevice        1002c620 f   libsg_MSVC160_vc:sg_common.obj
 0001:0002b650       _sg_doesFsNodeExist        1002c650 f   libsg_MSVC160_vc:sg_common.obj
 0001:0002b670       _sg_findPciDevice          1002c670 f   libsg_MSVC160_vc:sg_common.obj
 0001:0002b9a0       _sg_fullFile               1002c9a0 f   libsg_MSVC160_vc:sg_common.obj
 0001:0002ba70       _sg_getConfigBaseDir       1002ca70 f   libsg_MSVC160_vc:sg_common.obj
 0001:0002bab0       _sg_getElapsedTime         1002cab0 f   libsg_MSVC160_vc:sg_common.obj
 0001:0002bad0       _sg_getModelBaseDir        1002cad0 f   libsg_MSVC160_vc:sg_common.obj
 0001:0002bb10       _sg_initModelRun           1002cb10 f   libsg_MSVC160_vc:sg_common.obj
 0001:0002bb20       _sg_isFirstModelLoad       1002cb20 f   libsg_MSVC160_vc:sg_common.obj
 0001:0002bb30       _sg_lockMutex              1002cb30 f   libsg_MSVC160_vc:sg_common.obj
 0001:0002bb50       _sg_mapIo                  1002cb50 f   libsg_MSVC160_vc:sg_common.obj
 0001:0002bb70       _sg_mapMemory              1002cb70 f   libsg_MSVC160_vc:sg_common.obj
 0001:0002bba0       _sg_releaseSemaphore       1002cba0 f   libsg_MSVC160_vc:sg_common.obj
 0001:0002bbc0       _sg_setAbilities           1002cbc0 f   libsg_MSVC160_vc:sg_common.obj
 0001:0002bbd0       _sg_setDriveLetter         1002cbd0 f   libsg_MSVC160_vc:sg_common.obj
 0001:0002bbe0       _sg_showPciDevice          1002cbe0 f   libsg_MSVC160_vc:sg_common.obj
 0001:0002bcc0       _sg_tryLockMutex           1002ccc0 f   libsg_MSVC160_vc:sg_common.obj
 0001:0002bce0       _sg_unlockMutex            1002cce0 f   libsg_MSVC160_vc:sg_common.obj
 0001:0002bd00       _sg_waitForSemaphore       1002cd00 f   libsg_MSVC160_vc:sg_common.obj
 0001:0002bd20       _sg_wait_ns                1002cd20 f   libsg_MSVC160_vc:sg_common.obj
 0001:0002bd80       _sg_wait_s                 1002cd80 f   libsg_MSVC160_vc:sg_common.obj
 0001:0002bdb0       _sprintf_s                 1002cdb0 f i libsg_MSVC160_vc:sg_common.obj
 0001:0002bdf0       _sg_getCpuTemperature      1002cdf0 f   libsg_MSVC160_vc:sg_target.obj
 0001:0002be20       _sg_getTargetMatlabVersion 1002ce20 f   libsg_MSVC160_vc:sg_target.obj
 0001:0002c0b0       _sg_target_getHostLinkMac  1002d0b0 f   libsg_MSVC160_vc:sg_target.obj
 0001:0002c0f0       _sg_target_getTccActivationTemp 1002d0f0 f   libsg_MSVC160_vc:sg_target.obj
 0001:0002c100       ?MurmurHash3_x64_128@@YAXPBXHIPAX@Z 1002d100 f   libsg_MSVC160_vc:MurmurHash3.obj
 0001:0002c660       ?MurmurHash3_x86_128@@YAXPBXHIPAX@Z 1002d660 f   libsg_MSVC160_vc:MurmurHash3.obj
 0001:0002ca40       ?MurmurHash3_x86_32@@YAXPBXHIPAX@Z 1002da40 f   libsg_MSVC160_vc:MurmurHash3.obj
 0001:0002cb30       __ftoui3                   1002db30 f   LIBCMT:ftol3.obj
 0001:0002cb90       __ftoul3                   1002db90 f   LIBCMT:ftol3.obj
 0001:0002cc20       __ftol3                    1002dc20 f   LIBCMT:ftol3.obj
 0001:0002ccb0       __dtoui3                   1002dcb0 f   LIBCMT:ftol3.obj
 0001:0002cd50       __dtoul3                   1002dd50 f   LIBCMT:ftol3.obj
 0001:0002ce20       __dtol3                    1002de20 f   LIBCMT:ftol3.obj
 0001:0002cf00       __ultod3                   1002df00 f   LIBCMT:ftol3.obj
 0001:0002cf70       __ltod3                    1002df70 f   LIBCMT:ftol3.obj
 0001:0002cfc1       ___raise_securityfailure   1002dfc1 f   LIBCMT:gs_report.obj
 0001:0002cff3       ___report_gsfailure        1002dff3 f   LIBCMT:gs_report.obj
 0001:0002d12b       ___report_rangecheckfailure 1002e12b f   LIBCMT:gs_report.obj
 0001:0002d13a       ___report_securityfailure  1002e13a f   LIBCMT:gs_report.obj
 0001:0002d23c       ___report_securityfailureEx 1002e23c f   LIBCMT:gs_report.obj
 0001:0002d396       @__security_check_cookie@4 1002e396 f   LIBCMT:secchk.obj
 0001:0002d3a7       ___isa_available_init      1002e3a7 f   LIBCMT:cpu_disp.obj
 0001:0002d9f9       __CRT_INIT@12              1002e9f9 f   LIBCMT:dll_dllmain.obj
 0001:0002da04       __DllMainCRTStartup@12     1002ea04 f   LIBCMT:dll_dllmain.obj
 0001:0002da2f       ??2@YAPAXI@Z               1002ea2f f   LIBCMT:new_scalar.obj
 0001:0002da6b       ??3@YAXPAXI@Z              1002ea6b f   LIBCMT:delete_scalar_size.obj
 0001:0002da7c       ??_U@YAPAXI@Z              1002ea7c f   LIBCMT:new_array.obj
 0001:0002da87       ??_V@YAXPAX@Z              1002ea87 f   LIBCMT:delete_array.obj
 0001:0002da8c       ??1type_info@@UAE@XZ       1002ea8c f   LIBCMT:std_type_info_static.obj
 0001:0002da93       ??_Etype_info@@UAEPAXI@Z   1002ea93 f i LIBCMT:std_type_info_static.obj
 0001:0002da93       ??_Gtype_info@@UAEPAXI@Z   1002ea93 f i LIBCMT:std_type_info_static.obj
 0001:0002dac0       __allmul                   1002eac0 f   LIBCMT:llmul.obj
 0001:0002db61       ___security_init_cookie    1002eb61 f   LIBCMT:gs_support.obj
 0001:0002dbbe       ?__scrt_initialize_type_info@@YAXXZ 1002ebbe f   LIBCMT:tncleanup.obj
 0001:0002dbcd       ?__scrt_uninitialize_type_info@@YAXXZ 1002ebcd f   LIBCMT:tncleanup.obj
 0001:0002dbdc       ___local_stdio_scanf_options 1002ebdc f i LIBCMT:default_local_stdio_options.obj
 0001:0002dbe2       ___scrt_initialize_default_local_stdio_options 1002ebe2 f   LIBCMT:default_local_stdio_options.obj
 0001:0002dc06       ?configure_argv@__scrt_narrow_argv_policy@@SAHXZ 1002ec06 f i LIBCMT:utility.obj
 0001:0002dc6b       ?initialize_environment@__scrt_narrow_environment_policy@@SAHXZ 1002ec6b f i LIBCMT:utility.obj
 0001:0002dcb1       _NtCurrentTeb              1002ecb1 f i LIBCMT:utility.obj
 0001:0002dcb8       ___scrt_acquire_startup_lock 1002ecb8 f   LIBCMT:utility.obj
 0001:0002dcf6       ___scrt_dllmain_after_initialize_c 1002ecf6 f   LIBCMT:utility.obj
 0001:0002dd2b       ___scrt_dllmain_before_initialize_c 1002ed2b f   LIBCMT:utility.obj
 0001:0002dd3c       ___scrt_dllmain_crt_thread_attach 1002ed3c f   LIBCMT:utility.obj
 0001:0002dd62       ___scrt_dllmain_crt_thread_detach 1002ed62 f   LIBCMT:utility.obj
 0001:0002dd72       ___scrt_dllmain_exception_filter 1002ed72 f   LIBCMT:utility.obj
 0001:0002ddb3       ___scrt_dllmain_uninitialize_c 1002edb3 f   LIBCMT:utility.obj
 0001:0002ddde       ___scrt_dllmain_uninitialize_critical 1002edde f   LIBCMT:utility.obj
 0001:0002ddee       ___scrt_initialize_crt     1002edee f   LIBCMT:utility.obj
 0001:0002de35       ___scrt_initialize_onexit_tables 1002ee35 f   LIBCMT:utility.obj
 0001:0002dedd       ___scrt_is_nonwritable_in_current_image 1002eedd f   LIBCMT:utility.obj
 0001:0002df96       ___scrt_release_startup_lock 1002ef96 f   LIBCMT:utility.obj
 0001:0002dfba       ___scrt_uninitialize_crt   1002efba f   LIBCMT:utility.obj
 0001:0002dfec       __onexit                   1002efec f   LIBCMT:utility.obj
 0001:0002e024       _at_quick_exit             1002f024 f   LIBCMT:utility.obj
 0001:0002e04f       _atexit                    1002f04f f   LIBCMT:utility.obj
 0001:0002e069       ___scrt_get_dyn_tls_init_callback 1002f069 f   LIBCMT:dyn_tls_init.obj
 0001:0002e06f       ___scrt_fastfail           1002f06f f   LIBCMT:utility_desktop.obj
 0001:0002e1d0       ___scrt_get_show_window_mode 1002f1d0 f   LIBCMT:utility_desktop.obj
 0001:0002e20d       ___scrt_initialize_mta     1002f20d f   LIBCMT:utility_desktop.obj
 0001:0002e212       ___scrt_initialize_winrt   1002f212 f   LIBCMT:utility_desktop.obj
 0001:0002e215       ___scrt_is_managed_app     1002f215 f   LIBCMT:utility_desktop.obj
 0001:0002e268       ___scrt_set_unhandled_exception_filter 1002f268 f   LIBCMT:utility_desktop.obj
 0001:0002e277       ___scrt_exe_initialize_mta 1002f277 f   LIBCMT:utility_desktop.obj
 0001:0002e277       ___scrt_stub_for_initialize_mta 1002f277 f   LIBCMT:utility_desktop.obj
 0001:0002e27a       ___scrt_unhandled_exception_filter@4 1002f27a f   LIBCMT:utility_desktop.obj
 0001:0002e2e5       __crt_debugger_hook        1002f2e5 f   LIBCMT:utility_desktop.obj
 0001:0002e2ef       __RTC_Initialize           1002f2ef f   LIBCMT:initsect.obj
 0001:0002e326       __RTC_Terminate            1002f326 f   LIBCMT:initsect.obj
 0001:0002e360       __SEH_prolog4              1002f360 f   LIBCMT:sehprolg4.obj
 0001:0002e3c0       __SEH_epilog4              1002f3c0 f   LIBCMT:sehprolg4.obj
 0001:0002e3d9       @_guard_check_icall_nop@4  1002f3d9 f i LIBCMT:guard_support.obj
 0001:0002e3dc       _ReadNoFence               1002f3dc f i LIBCMT:guard_support.obj
 0001:0002e3e8       _ReadPointerNoFence        1002f3e8 f i LIBCMT:guard_support.obj
 0001:0002e3f4       ___castguard_check_failure_debugbreak 1002f3f4 f i LIBCMT:guard_support.obj
 0001:0002e415       ___castguard_check_failure_fastfail 1002f415 f i LIBCMT:guard_support.obj
 0001:0002e43b       ___castguard_check_failure_nop 1002f43b f i LIBCMT:guard_support.obj
 0001:0002e43e       ___castguard_check_failure_os_handled 1002f43e f i LIBCMT:guard_support.obj
 0001:0002e4a6       ___castguard_slow_path_check_debugbreak 1002f4a6 f i LIBCMT:guard_support.obj
 0001:0002e4de       ___castguard_slow_path_check_fastfail 1002f4de f i LIBCMT:guard_support.obj
 0001:0002e51b       ___castguard_slow_path_check_nop 1002f51b f i LIBCMT:guard_support.obj
 0001:0002e51e       ___castguard_slow_path_check_os_handled 1002f51e f i LIBCMT:guard_support.obj
 0001:0002e59d       __guard_icall_checks_enforced 1002f59d f i LIBCMT:guard_support.obj
 0001:0002e5b3       ??0bad_alloc@std@@AAE@QBD@Z 1002f5b3 f i LIBCMT:throw_bad_alloc.obj
 0001:0002e5d7       ??0bad_alloc@std@@QAE@XZ   1002f5d7 f i LIBCMT:throw_bad_alloc.obj
 0001:0002e5f5       ??0exception@std@@QAE@QBDH@Z 1002f5f5 f i LIBCMT:throw_bad_alloc.obj
 0001:0002e619       ??1bad_alloc@std@@UAE@XZ   1002f619 f i LIBCMT:throw_bad_alloc.obj
 0001:0002e62e       ?__scrt_throw_std_bad_alloc@@YAXXZ 1002f62e f   LIBCMT:throw_bad_alloc.obj
 0001:0002e652       ?__scrt_throw_std_bad_array_new_length@@YAXXZ 1002f652 f   LIBCMT:throw_bad_alloc.obj
 0001:0002e676       ??3@YAXPAX@Z               1002f676 f   LIBCMT:delete_scalar.obj
 0001:0002e67b       __get_startup_argv_mode    1002f67b f   LIBCMT:argv_mode.obj
 0001:0002e67f       ___scrt_is_ucrt_dll_in_use 1002f67f f   LIBCMT:ucrt_detection.obj
 0001:0002e68e       ??0_Init_locks@std@@QAE@XZ 1002f68e f   libcpmt:xlock.obj
 0001:0002e6c6       ??0_Lockit@std@@QAE@H@Z    1002f6c6 f   libcpmt:xlock.obj
 0001:0002e703       ??0_Lockit@std@@QAE@XZ     1002f703 f   libcpmt:xlock.obj
 0001:0002e715       ??1_Init_locks@std@@QAE@XZ 1002f715 f   libcpmt:xlock.obj
 0001:0002e745       ??1_Lockit@std@@QAE@XZ     1002f745 f   libcpmt:xlock.obj
 0001:0002e76b       ?_Init_locks_ctor@_Init_locks@std@@CAXPAV12@@Z 1002f76b f   libcpmt:xlock.obj
 0001:0002e79b       ?_Init_locks_dtor@_Init_locks@std@@CAXPAV12@@Z 1002f79b f   libcpmt:xlock.obj
 0001:0002e7cb       ?_Lockit_ctor@_Lockit@std@@CAXPAV12@@Z 1002f7cb f   libcpmt:xlock.obj
 0001:0002e7da       ?_Lockit_ctor@_Lockit@std@@CAXPAV12@H@Z 1002f7da f   libcpmt:xlock.obj
 0001:0002e80d       ?_Lockit_ctor@_Lockit@std@@SAXH@Z 1002f80d f   libcpmt:xlock.obj
 0001:0002e83a       ?_Lockit_dtor@_Lockit@std@@CAXPAV12@@Z 1002f83a f   libcpmt:xlock.obj
 0001:0002e856       ?_Lockit_dtor@_Lockit@std@@SAXH@Z 1002f856 f   libcpmt:xlock.obj
 0001:0002e883       __Lock_at_thread_exit_mutex 1002f883 f   libcpmt:xlock.obj
 0001:0002e892       __Unlock_at_thread_exit_mutex 1002f892 f   libcpmt:xlock.obj
 0001:0002e8a1       ??0bad_function_call@std@@QAE@ABV01@@Z 1002f8a1 f i libcpmt:xthrow.obj
 0001:0002e8c2       ??0bad_function_call@std@@QAE@XZ 1002f8c2 f i libcpmt:xthrow.obj
 0001:0002e8d7       ??0exception@std@@QAE@QBD@Z 1002f8d7 f i libcpmt:xthrow.obj
 0001:0002e919       ??0exception@std@@QAE@XZ   1002f919 f i libcpmt:xthrow.obj
 0001:0002e92e       ??0invalid_argument@std@@QAE@ABV01@@Z 1002f92e f i libcpmt:xthrow.obj
 0001:0002e94f       ??0invalid_argument@std@@QAE@PBD@Z 1002f94f f i libcpmt:xthrow.obj
 0001:0002e975       ??0length_error@std@@QAE@ABV01@@Z 1002f975 f i libcpmt:xthrow.obj
 0001:0002e996       ??0length_error@std@@QAE@PBD@Z 1002f996 f i libcpmt:xthrow.obj
 0001:0002e9bc       ??0logic_error@std@@QAE@ABV01@@Z 1002f9bc f i libcpmt:xthrow.obj
 0001:0002e9dd       ??0logic_error@std@@QAE@PBD@Z 1002f9dd f i libcpmt:xthrow.obj
 0001:0002ea03       ??0out_of_range@std@@QAE@ABV01@@Z 1002fa03 f i libcpmt:xthrow.obj
 0001:0002ea24       ??0out_of_range@std@@QAE@PBD@Z 1002fa24 f i libcpmt:xthrow.obj
 0001:0002ea4a       ??0overflow_error@std@@QAE@ABV01@@Z 1002fa4a f i libcpmt:xthrow.obj
 0001:0002ea6b       ??0overflow_error@std@@QAE@PBD@Z 1002fa6b f i libcpmt:xthrow.obj
 0001:0002ea91       ??0regex_error@std@@QAE@ABV01@@Z 1002fa91 f i libcpmt:xthrow.obj
 0001:0002eabe       ??0regex_error@std@@QAE@W4error_type@regex_constants@1@@Z 1002fabe f i libcpmt:xthrow.obj
 0001:0002eaf7       ??0runtime_error@std@@QAE@PBD@Z 1002faf7 f i libcpmt:xthrow.obj
 0001:0002eb1d       ??1bad_function_call@std@@UAE@XZ 1002fb1d f i libcpmt:xthrow.obj
 0001:0002eb32       ??1invalid_argument@std@@UAE@XZ 1002fb32 f i libcpmt:xthrow.obj
 0001:0002eb47       ??1length_error@std@@UAE@XZ 1002fb47 f i libcpmt:xthrow.obj
 0001:0002eb5c       ??1logic_error@std@@UAE@XZ 1002fb5c f i libcpmt:xthrow.obj
 0001:0002eb71       ??1out_of_range@std@@UAE@XZ 1002fb71 f i libcpmt:xthrow.obj
 0001:0002eb86       ??1overflow_error@std@@UAE@XZ 1002fb86 f i libcpmt:xthrow.obj
 0001:0002eb9b       ??1regex_error@std@@UAE@XZ 1002fb9b f i libcpmt:xthrow.obj
 0001:0002ebb0       ??1runtime_error@std@@UAE@XZ 1002fbb0 f i libcpmt:xthrow.obj
 0001:0002ebc5       ??_Gbad_function_call@std@@UAEPAXI@Z 1002fbc5 f i libcpmt:xthrow.obj
 0001:0002ebc5       ??_Ebad_function_call@std@@UAEPAXI@Z 1002fbc5 f i libcpmt:xthrow.obj
 0001:0002ebfd       ??_Ginvalid_argument@std@@UAEPAXI@Z 1002fbfd f i libcpmt:xthrow.obj
 0001:0002ebfd       ??_Einvalid_argument@std@@UAEPAXI@Z 1002fbfd f i libcpmt:xthrow.obj
 0001:0002ec35       ??_Elength_error@std@@UAEPAXI@Z 1002fc35 f i libcpmt:xthrow.obj
 0001:0002ec35       ??_Glength_error@std@@UAEPAXI@Z 1002fc35 f i libcpmt:xthrow.obj
 0001:0002ec6d       ??_Glogic_error@std@@UAEPAXI@Z 1002fc6d f i libcpmt:xthrow.obj
 0001:0002ec6d       ??_Elogic_error@std@@UAEPAXI@Z 1002fc6d f i libcpmt:xthrow.obj
 0001:0002eca5       ??_Eout_of_range@std@@UAEPAXI@Z 1002fca5 f i libcpmt:xthrow.obj
 0001:0002eca5       ??_Gout_of_range@std@@UAEPAXI@Z 1002fca5 f i libcpmt:xthrow.obj
 0001:0002ecdd       ??_Goverflow_error@std@@UAEPAXI@Z 1002fcdd f i libcpmt:xthrow.obj
 0001:0002ecdd       ??_Eoverflow_error@std@@UAEPAXI@Z 1002fcdd f i libcpmt:xthrow.obj
 0001:0002ed15       ??_Eregex_error@std@@UAEPAXI@Z 1002fd15 f i libcpmt:xthrow.obj
 0001:0002ed15       ??_Gregex_error@std@@UAEPAXI@Z 1002fd15 f i libcpmt:xthrow.obj
 0001:0002ed4d       ?_Stringify@regex_error@std@@CAPBDW4error_type@regex_constants@2@@Z 1002fd4d f i libcpmt:xthrow.obj
 0001:0002ee3d       ?_Xbad_alloc@std@@YAXXZ    1002fe3d f   libcpmt:xthrow.obj
 0001:0002ee61       ?_Xbad_function_call@std@@YAXXZ 1002fe61 f   libcpmt:xthrow.obj
 0001:0002ee85       ?_Xinvalid_argument@std@@YAXPBD@Z 1002fe85 f   libcpmt:xthrow.obj
 0001:0002eead       ?_Xlength_error@std@@YAXPBD@Z 1002fead f   libcpmt:xthrow.obj
 0001:0002eed5       ?_Xout_of_range@std@@YAXPBD@Z 1002fed5 f   libcpmt:xthrow.obj
 0001:0002eefd       ?_Xoverflow_error@std@@YAXPBD@Z 1002fefd f   libcpmt:xthrow.obj
 0001:0002ef25       ?_Xregex_error@std@@YAXW4error_type@regex_constants@1@@Z 1002ff25 f   libcpmt:xthrow.obj
 0001:0002ef4d       ?_Xruntime_error@std@@YAXPBD@Z 1002ff4d f   libcpmt:xthrow.obj
 0001:0002ef75       ?what@bad_function_call@std@@UBEPBDXZ 1002ff75 f i libcpmt:xthrow.obj
 0001:0002ef7b       ?uncaught_exception@std@@YA_NXZ 1002ff7b f   libcpmt:uncaught_exception.obj
 0001:0002ef80       ?_Syserror_map@std@@YAPBDH@Z 1002ff80 f   libcpmt:syserror.obj
 0001:0002efae       ?_Winerror_map@std@@YAHH@Z 1002ffae f   libcpmt:syserror.obj
 0001:0002efd8       ?_Winerror_message@std@@YAKKPADK@Z 1002ffd8 f   libcpmt:syserror.obj
 0001:0002f008       ??0?$_Yarn@D@std@@QAE@PBD@Z 10030008 f i libcpmt:locale0.obj
 0001:0002f02b       ??0_Fac_node@std@@QAE@PAU01@PAV_Facet_base@1@@Z 1003002b f i libcpmt:locale0.obj
 0001:0002f044       ??0_Facet_base@std@@QAE@XZ 10030044 f i libcpmt:locale0.obj
 0001:0002f04f       ??0_Locimp@locale@std@@AAE@ABV012@@Z 1003004f f i libcpmt:locale0.obj
 0001:0002f0d3       ??0_Locimp@locale@std@@AAE@_N@Z 100300d3 f i libcpmt:locale0.obj
 0001:0002f124       ??0facet@locale@std@@IAE@I@Z 10030124 f i libcpmt:locale0.obj
 0001:0002f143       ??0id@locale@std@@QAE@I@Z  10030143 f i libcpmt:locale0.obj
 0001:0002f154       ??0locale@std@@AAE@PAV_Locimp@01@@Z 10030154 f i libcpmt:locale0.obj
 0001:0002f166       ??0locale@std@@QAE@W4_Uninitialized@1@@Z 10030166 f i libcpmt:locale0.obj
 0001:0002f16b       ??1_Fac_node@std@@QAE@XZ   1003016b f i libcpmt:locale0.obj
 0001:0002f1a8       ??1_Fac_tidy_reg_t@std@@QAE@XZ 100301a8 f i libcpmt:locale0.obj
 0001:0002f1d8       ??1_Locimp@locale@std@@MAE@XZ 100301d8 f i libcpmt:locale0.obj
 0001:0002f20d       ??2@YAPAXIPAX@Z            1003020d f i libcpmt:locale0.obj
 0001:0002f217       ??4?$_Yarn@D@std@@QAEAAV01@PBD@Z 10030217 f i libcpmt:locale0.obj
 0001:0002f280       ??_G_Fac_node@std@@QAEPAXI@Z 10030280 f i libcpmt:locale0.obj
 0001:0002f2aa       ??_E_Locimp@locale@std@@MAEPAXI@Z 100302aa f i libcpmt:locale0.obj
 0001:0002f2aa       ??_G_Locimp@locale@std@@MAEPAXI@Z 100302aa f i libcpmt:locale0.obj
 0001:0002f2d4       ?_C_str@?$_Yarn@D@std@@QBEPBDXZ 100302d4 f i libcpmt:locale0.obj
 0001:0002f2e0       ?_Empty@?$_Yarn@D@std@@QBE_NXZ 100302e0 f i libcpmt:locale0.obj
 0001:0002f2e7       ?_Facet_Register@std@@YAXPAV_Facet_base@1@@Z 100302e7 f   libcpmt:locale0.obj
 0001:0002f31e       ?_Getgloballocale@locale@std@@CAPAV_Locimp@12@XZ 1003031e f   libcpmt:locale0.obj
 0001:0002f324       ?_Init@locale@std@@CAPAV_Locimp@12@_N@Z 10030324 f   libcpmt:locale0.obj
 0001:0002f3d8       ?_Locimp_dtor@_Locimp@locale@std@@CAXPAV123@@Z 100303d8 f   libcpmt:locale0.obj
 0001:0002f464       ?_Locinfo_ctor@_Locinfo@std@@SAXPAV12@PBD@Z 10030464 f   libcpmt:locale0.obj
 0001:0002f4c1       ?_Locinfo_dtor@_Locinfo@std@@SAXPAV12@@Z 100304c1 f   libcpmt:locale0.obj
 0001:0002f4e1       ?_New_Locimp@_Locimp@locale@std@@CAPAV123@ABV123@@Z 100304e1 f   libcpmt:locale0.obj
 0001:0002f51d       ?_New_Locimp@_Locimp@locale@std@@CAPAV123@_N@Z 1003051d f   libcpmt:locale0.obj
 0001:0002f548       ?_Setgloballocale@locale@std@@CAXPAX@Z 10030548 f   libcpmt:locale0.obj
 0001:0002f57a       ?_Tidy@?$_Yarn@D@std@@AAEXXZ 1003057a f i libcpmt:locale0.obj
 0001:0002f594       ?c_str@?$_Yarn@D@std@@QBEPBDXZ 10030594 f i libcpmt:locale0.obj
 0001:0002f5a0       ?classic@locale@std@@SAABV12@XZ 100305a0 f   libcpmt:locale0.obj
 0001:0002f5b1       ?empty@locale@std@@SA?AV12@XZ 100305b1 f   libcpmt:locale0.obj
 0001:0002f5d5       __Deletegloballocale       100305d5 f   libcpmt:locale0.obj
 0001:0002f652       __Getctype                 10030652 f   libcpmt:_tolower.obj
 0001:0002f6d7       __Tolower                  100306d7 f   libcpmt:_tolower.obj
 0001:0002f814       __Getcvt                   10030814 f   libcpmt:xwctomb.obj
 0001:0002f8a3       __Wcrtomb                  100308a3 f   libcpmt:xwctomb.obj
 0001:0002f916       ___Wcrtomb_lk              10030916 f   libcpmt:xwctomb.obj
 0001:0002f921       __Toupper                  10030921 f   libcpmt:_toupper.obj
 0001:0002fa5e       __Mtxdst                   10030a5e f   libcpmt:xmtx.obj
 0001:0002fa6f       __Mtxinit                  10030a6f f   libcpmt:xmtx.obj
 0001:0002fa89       __Mtxlock                  10030a89 f   libcpmt:xmtx.obj
 0001:0002fa9a       __Mtxunlock                10030a9a f   libcpmt:xmtx.obj
 0001:0002fabc       ___std_get_string_size_without_trailing_whitespace@8 10030abc f   libcpmt:syserror_import_lib.obj
 0001:0002fae9       ___std_system_error_allocate_message@8 10030ae9 f   libcpmt:syserror_import_lib.obj
 0001:0002fb1c       ___std_system_error_deallocate_message@4 10030b1c f   libcpmt:syserror_import_lib.obj
 0001:0002fb22       ??$?0$$V@?$_Compressed_pair@V?$allocator@D@std@@V?$_String_val@U?$_Simple_types@D@std@@@2@$00@std@@QAE@U_Zero_then_variadic_args_t@1@@Z 10030b22 f i libcpmt:locale.obj
 0001:0002fb34       ??$?0AAPAV_Facet_base@std@@@?$_Compressed_pair@U?$default_delete@V_Facet_base@std@@@std@@PAV_Facet_base@2@$00@std@@QAE@U_Zero_then_variadic_args_t@1@AAPAV_Facet_base@1@@Z 10030b34 f i libcpmt:locale.obj
 0001:0002fb48       ??$?0U?$default_delete@V_Facet_base@std@@@std@@$0A@@?$unique_ptr@V_Facet_base@std@@U?$default_delete@V_Facet_base@std@@@2@@std@@QAE@PAV_Facet_base@1@@Z 10030b48 f i libcpmt:locale.obj
 0001:0002fb59       ??$?0U?$integral_constant@_N$00@std@@@_Unused_parameter@std@@QAE@$$QAU?$integral_constant@_N$00@1@@Z 10030b59 f i libcpmt:locale.obj
 0001:0002fb5e       ??$?8DU?$char_traits@D@std@@@std@@YA_NABV?$istreambuf_iterator@DU?$char_traits@D@std@@@0@0@Z 10030b5e f i libcpmt:locale.obj
 0001:0002fb72       ??$_Adl_verify_range@PADPBD@std@@YAXABQADABQBD@Z 10030b72 f i libcpmt:locale.obj
 0001:0002fb75       ??$_Adl_verify_range@PBDPBD@std@@YAXABQBD0@Z 10030b75 f i libcpmt:locale.obj
 0001:0002fb78       ??$_Adl_verify_range@V?$istreambuf_iterator@DU?$char_traits@D@std@@@std@@V12@@std@@YAXABV?$istreambuf_iterator@DU?$char_traits@D@std@@@0@0@Z 10030b78 f i libcpmt:locale.obj
 0001:0002fb7b       ??$_Allocate@$07U_Default_allocate_traits@std@@$0A@@std@@YAPAXI@Z 10030b7b f i libcpmt:locale.obj
 0001:0002fbaa       ??$_Construct_in_place@PADAAPAD@std@@YAXAAPAD0@Z 10030baa f i libcpmt:locale.obj
 0001:0002fbbc       ??$_Construct_in_place@PADABQAD@std@@YAXAAPADABQAD@Z 10030bbc f i libcpmt:locale.obj
 0001:0002fbce       ??$_Convert_size@I@std@@YAII@Z 10030bce f i libcpmt:locale.obj
 0001:0002fbd8       ??$_Deallocate@$07$0A@@std@@YAXPAXI@Z 10030bd8 f i libcpmt:locale.obj
 0001:0002fc0f       ??$_Destroy_in_place@PAD@std@@YAXAAPAD@Z 10030c0f f i libcpmt:locale.obj
 0001:0002fc12       ??$_Find_elem@D$0BL@@std@@YAIAAY0BL@$$CBDD@Z 10030c12 f i libcpmt:locale.obj
 0001:0002fc40       ??$_Find_elem@D$0BN@@std@@YAIAAY0BN@$$CBDD@Z 10030c40 f i libcpmt:locale.obj
 0001:0002fc6e       ??$_Find_elem@D$0P@@std@@YAIAAY0P@$$CBDD@Z 10030c6e f i libcpmt:locale.obj
 0001:0002fc9c       ??$_Find_unchecked1@PBDD@std@@YAPBDPBDQBDABDU?$integral_constant@_N$00@0@@Z 10030c9c f i libcpmt:locale.obj
 0001:0002fcca       ??$_Find_unchecked1@PBDD@std@@YAPBDPBDQBDABDU?$integral_constant@_N$0A@@0@@Z 10030cca f i libcpmt:locale.obj
 0001:0002fcef       ??$_Find_unchecked@PBDD@std@@YAPBDQBD0ABD@Z 10030cef f i libcpmt:locale.obj
 0001:0002fd14       ??$_Get_size_of_n@$00@std@@YAII@Z 10030d14 f i libcpmt:locale.obj
 0001:0002fd1e       ??$_Getloctxt@V?$istreambuf_iterator@DU?$char_traits@D@std@@@std@@D@std@@YAHAAV?$istreambuf_iterator@DU?$char_traits@D@std@@@0@0IPBDW4_Case_sensitive@0@@Z 10030d1e f i libcpmt:locale.obj
 0001:0002ffb0       ??$_Getvals@D@?$numpunct@D@std@@IAEXDPBUlconv@@U_Cvtvec@@@Z 10030fb0 f i libcpmt:locale.obj
 0001:0002ffcf       ??$_Pocma@V?$allocator@D@std@@@std@@YAXAAV?$allocator@D@0@0@Z 10030fcf f i libcpmt:locale.obj
 0001:0002ffd2       ??$_Reallocate_for@V<lambda_1>@?1??assign@?$basic_string@DU?$char_traits@D@std@@V?$allocator@D@2@@std@@QAEAAV34@ID@Z@D@?$basic_string@DU?$char_traits@D@std@@V?$allocator@D@2@@std@@AAEAAV01@IV<lambda_1>@?1??assign@01@QAEAAV01@ID@Z@D@Z 10030fd2 f i libcpmt:locale.obj
 0001:00030060       ??$_Reallocate_for@V<lambda_1>@?1??assign@?$basic_string@DU?$char_traits@D@std@@V?$allocator@D@2@@std@@QAEAAV34@QBDI@Z@PBD@?$basic_string@DU?$char_traits@D@std@@V?$allocator@D@2@@std@@AAEAAV01@IV<lambda_1>@?1??assign@01@QAEAAV01@QBDI@Z@PBD@Z 10031060 f i libcpmt:locale.obj
 0001:000300ec       ??$_Reallocate_grow_by@V<lambda_1>@?1??append@?$basic_string@DU?$char_traits@D@std@@V?$allocator@D@2@@std@@QAEAAV34@ID@Z@ID@?$basic_string@DU?$char_traits@D@std@@V?$allocator@D@2@@std@@AAEAAV01@IV<lambda_1>@?1??append@01@QAEAAV01@ID@Z@ID@Z 100310ec f i libcpmt:locale.obj
 0001:000301de       ??$_Reallocate_grow_by@V<lambda_1>@?1??append@?$basic_string@DU?$char_traits@D@std@@V?$allocator@D@2@@std@@QAEAAV34@QBDI@Z@PBDI@?$basic_string@DU?$char_traits@D@std@@V?$allocator@D@2@@std@@AAEAAV01@IV<lambda_1>@?1??append@01@QAEAAV01@QBDI@Z@PBDI@Z 100311de f i libcpmt:locale.obj
 0001:000302c7       ??$_Reallocate_grow_by@V<lambda_1>@?1??insert@?$basic_string@DU?$char_traits@D@std@@V?$allocator@D@2@@std@@QAEAAV34@IID@Z@IID@?$basic_string@DU?$char_traits@D@std@@V?$allocator@D@2@@std@@AAEAAV01@IV<lambda_1>@?1??insert@01@QAEAAV01@IID@Z@IID@Z 100312c7 f i libcpmt:locale.obj
 0001:0003037d       ??$_Reallocate_grow_by@V<lambda_1>@?1??push_back@?$basic_string@DU?$char_traits@D@std@@V?$allocator@D@2@@std@@QAEXD@Z@D@?$basic_string@DU?$char_traits@D@std@@V?$allocator@D@2@@std@@AAEAAV01@IV<lambda_1>@?1??push_back@01@QAEXD@Z@D@Z 1003137d f i libcpmt:locale.obj
 0001:00030446       ??$_To_address@PBD@std@@YA?A_PABQBD@Z 10031446 f i libcpmt:locale.obj
 0001:00030452       ??$_Unfancy@D@std@@YAPADPAD@Z 10031452 f i libcpmt:locale.obj
 0001:0003045c       ??$_Voidify_iter@PAD@std@@YAPAXPAD@Z 1003145c f i libcpmt:locale.obj
 0001:00030466       ??$_Voidify_iter@PAPAD@std@@YAPAXPAPAD@Z 10031466 f i libcpmt:locale.obj
 0001:00030470       ??$_Within_limits@D@std@@YA_NABDU?$integral_constant@_N$00@0@1U_Unused_parameter@0@U?$integral_constant@_N$0A@@0@@Z 10031470 f i libcpmt:locale.obj
 0001:00030473       ??$_Within_limits@PBDD@std@@YA_NABQBDABD@Z 10031473 f i libcpmt:locale.obj
 0001:00030476       ??$addressof@$$CBV?$_String_val@U?$_Simple_types@D@std@@@std@@@std@@YAPBV?$_String_val@U?$_Simple_types@D@std@@@0@ABV10@@Z 10031476 f i libcpmt:locale.obj
 0001:00030480       ??$addressof@PAD@std@@YAPAPADAAPAD@Z 10031480 f i libcpmt:locale.obj
 0001:0003048a       ??$addressof@V?$_String_val@U?$_Simple_types@D@std@@@std@@@std@@YAPAV?$_String_val@U?$_Simple_types@D@std@@@0@AAV10@@Z 1003148a f i libcpmt:locale.obj
 0001:00030494       ??$addressof@V?$basic_string@DU?$char_traits@D@std@@V?$allocator@D@2@@std@@@std@@YAPAV?$basic_string@DU?$char_traits@D@std@@V?$allocator@D@2@@0@AAV10@@Z 10031494 f i libcpmt:locale.obj
 0001:0003049e       ??$begin@$$CBD$0BL@@std@@YAPBDAAY0BL@$$CBD@Z 1003149e f i libcpmt:locale.obj
 0001:000304a8       ??$begin@$$CBD$0BN@@std@@YAPBDAAY0BN@$$CBD@Z 100314a8 f i libcpmt:locale.obj
 0001:000304b2       ??$begin@$$CBD$0P@@std@@YAPBDAAY0P@$$CBD@Z 100314b2 f i libcpmt:locale.obj
 0001:000304bc       ??$construct_at@DABDX@std@@YAPADQADABD@Z 100314bc f i libcpmt:locale.obj
 0001:000304ce       ??$construct_at@PADAAPADX@std@@YAPAPADQAPADAAPAD@Z 100314ce f i libcpmt:locale.obj
 0001:000304e0       ??$construct_at@PADABQADX@std@@YAPAPADQAPADABQAD@Z 100314e0 f i libcpmt:locale.obj
 0001:000304f2       ??$end@$$CBD$0BL@@std@@YAPBDAAY0BL@$$CBD@Z 100314f2 f i libcpmt:locale.obj
 0001:000304ff       ??$end@$$CBD$0BN@@std@@YAPBDAAY0BN@$$CBD@Z 100314ff f i libcpmt:locale.obj
 0001:0003050c       ??$end@$$CBD$0P@@std@@YAPBDAAY0P@$$CBD@Z 1003150c f i libcpmt:locale.obj
 0001:00030519       ??$exchange@PAV_Facet_base@std@@$$T@std@@YAPAV_Facet_base@0@AAPAV10@$$QA$$T@Z 10031519 f i libcpmt:locale.obj
 0001:0003052e       ??$forward@AAPAD@std@@YAAAPADAAPAD@Z 1003152e f i libcpmt:locale.obj
 0001:00030538       ??$forward@AAPAV_Facet_base@std@@@std@@YAAAPAV_Facet_base@0@AAPAV10@@Z 10031538 f i libcpmt:locale.obj
 0001:00030542       ??$forward@ABD@std@@YAABDABD@Z 10031542 f i libcpmt:locale.obj
 0001:0003054c       ??$forward@ABQAD@std@@YAABQADABQAD@Z 1003154c f i libcpmt:locale.obj
 0001:00030556       ??$max@I@std@@YAABIABI0@Z  10031556 f i libcpmt:locale.obj
 0001:00030570       ??$min@H@std@@YAABHABH0@Z  10031570 f i libcpmt:locale.obj
 0001:0003058a       ??$min@I@std@@YAABIABI0@Z  1003158a f i libcpmt:locale.obj
 0001:000305a4       ??$move@AAV?$allocator@D@std@@@std@@YA$$QAV?$allocator@D@0@AAV10@@Z 100315a4 f i libcpmt:locale.obj
 0001:000305ae       ??$move@AAV?$basic_string@DU?$char_traits@D@std@@V?$allocator@D@2@@std@@@std@@YA$$QAV?$basic_string@DU?$char_traits@D@std@@V?$allocator@D@2@@0@AAV10@@Z 100315ae f i libcpmt:locale.obj
 0001:000305b8       ??$to_address@$$CBD@std@@YAPBDQBD@Z 100315b8 f i libcpmt:locale.obj
 0001:000305c2       ??$use_facet@V?$codecvt@DDU_Mbstatet@@@std@@@std@@YAABV?$codecvt@DDU_Mbstatet@@@0@ABVlocale@0@@Z 100315c2 f i libcpmt:locale.obj
 0001:0003067c       ??$use_facet@V?$num_get@DV?$istreambuf_iterator@DU?$char_traits@D@std@@@std@@@std@@@std@@YAABV?$num_get@DV?$istreambuf_iterator@DU?$char_traits@D@std@@@std@@@0@ABVlocale@0@@Z 1003167c f i libcpmt:locale.obj
 0001:00030736       ??0?$_String_val@U?$_Simple_types@D@std@@@std@@QAE@XZ 10031736 f i libcpmt:locale.obj
 0001:00030746       ??0?$_Yarn@D@std@@QAE@XZ   10031746 f i libcpmt:locale.obj
 0001:00030752       ??0?$_Yarn@_W@std@@QAE@XZ  10031752 f i libcpmt:locale.obj
 0001:00030761       ??0?$allocator@D@std@@QAE@XZ 10031761 f i libcpmt:locale.obj
 0001:00030764       ??0?$basic_string@DU?$char_traits@D@std@@V?$allocator@D@2@@std@@QAE@QBD@Z 10031764 f i libcpmt:locale.obj
 0001:000307a8       ??0?$basic_string@DU?$char_traits@D@std@@V?$allocator@D@2@@std@@QAE@XZ 100317a8 f i libcpmt:locale.obj
 0001:000307fd       ??0?$codecvt@DDU_Mbstatet@@@std@@QAE@ABV_Locinfo@1@I@Z 100317fd f i libcpmt:locale.obj
 0001:0003081c       ??0?$ctype@D@std@@QAE@ABV_Locinfo@1@I@Z 1003181c f i libcpmt:locale.obj
 0001:0003085f       ??0?$num_get@DV?$istreambuf_iterator@DU?$char_traits@D@std@@@std@@@std@@QAE@ABV_Locinfo@1@I@Z 1003185f f i libcpmt:locale.obj
 0001:0003087e       ??0?$num_put@DV?$ostreambuf_iterator@DU?$char_traits@D@std@@@std@@@std@@QAE@ABV_Locinfo@1@I@Z 1003187e f i libcpmt:locale.obj
 0001:0003089d       ??0?$numpunct@D@std@@QAE@ABV_Locinfo@1@I_N@Z 1003189d f i libcpmt:locale.obj
 0001:000308e0       ??0_Bxty@?$_String_val@U?$_Simple_types@D@std@@@std@@QAE@XZ 100318e0 f i libcpmt:locale.obj
 0001:000308e6       ??0_Fake_proxy_ptr_impl@std@@QAE@ABU_Fake_allocator@1@ABU_Container_base0@1@@Z 100318e6 f i libcpmt:locale.obj
 0001:000308eb       ??0bad_cast@std@@QAE@XZ    100318eb f i libcpmt:locale.obj
 0001:00030909       ??0codecvt_base@std@@QAE@I@Z 10031909 f i libcpmt:locale.obj
 0001:00030928       ??0ctype_base@std@@QAE@I@Z 10031928 f i libcpmt:locale.obj
 0001:00030947       ??0locale@std@@QAE@ABV01@@Z 10031947 f i libcpmt:locale.obj
 0001:0003097c       ??0locale@std@@QAE@XZ      1003197c f i libcpmt:locale.obj
 0001:000309d2       ??1?$_Compressed_pair@V?$allocator@D@std@@V?$_String_val@U?$_Simple_types@D@std@@@2@$00@std@@QAE@XZ 100319d2 f i libcpmt:locale.obj
 0001:000309d5       ??1?$_String_val@U?$_Simple_types@D@std@@@std@@QAE@XZ 100319d5 f i libcpmt:locale.obj
 0001:000309d8       ??1?$codecvt@DDU_Mbstatet@@@std@@MAE@XZ 100319d8 f i libcpmt:locale.obj
 0001:000309df       ??1?$num_get@DV?$istreambuf_iterator@DU?$char_traits@D@std@@@std@@@std@@MAE@XZ 100319df f i libcpmt:locale.obj
 0001:000309e6       ??1_Bxty@?$_String_val@U?$_Simple_types@D@std@@@std@@QAE@XZ 100319e6 f i libcpmt:locale.obj
 0001:000309e9       ??1codecvt_base@std@@UAE@XZ 100319e9 f i libcpmt:locale.obj
 0001:000309f0       ??1ctype_base@std@@UAE@XZ  100319f0 f i libcpmt:locale.obj
 0001:000309f7       ??4?$basic_string@DU?$char_traits@D@std@@V?$allocator@D@2@@std@@QAEAAV01@$$QAV01@@Z 100319f7 f i libcpmt:locale.obj
 0001:00030a21       ??4?$ostreambuf_iterator@DU?$char_traits@D@std@@@std@@QAEAAV01@D@Z 10031a21 f i libcpmt:locale.obj
 0001:00030a4e       ??A?$basic_string@DU?$char_traits@D@std@@V?$allocator@D@2@@std@@QAEAADI@Z 10031a4e f i libcpmt:locale.obj
 0001:00030a67       ??A?$basic_string@DU?$char_traits@D@std@@V?$allocator@D@2@@std@@QBEABDI@Z 10031a67 f i libcpmt:locale.obj
 0001:00030a80       ??Bid@locale@std@@QAEIXZ   10031a80 f i libcpmt:locale.obj
 0001:00030ac2       ??D?$istreambuf_iterator@DU?$char_traits@D@std@@@std@@QBEDXZ 10031ac2 f i libcpmt:locale.obj
 0001:00030ad9       ??D?$ostreambuf_iterator@DU?$char_traits@D@std@@@std@@QAEAAV01@XZ 10031ad9 f i libcpmt:locale.obj
 0001:00030adc       ??E?$istreambuf_iterator@DU?$char_traits@D@std@@@std@@QAEAAV01@XZ 10031adc f i libcpmt:locale.obj
 0001:00030aeb       ??E?$ostreambuf_iterator@DU?$char_traits@D@std@@@std@@QAEAAV01@XZ 10031aeb f i libcpmt:locale.obj
 0001:00030aee       ??R<lambda_1>@?1??append@?$basic_string@DU?$char_traits@D@std@@V?$allocator@D@2@@std@@QAEAAV23@ID@Z@QBE@QADQBDIID@Z 10031aee f i libcpmt:locale.obj
 0001:00030b2d       ??R<lambda_1>@?1??append@?$basic_string@DU?$char_traits@D@std@@V?$allocator@D@2@@std@@QAEAAV23@QBDI@Z@QBE@QAD0I0I@Z 10031b2d f i libcpmt:locale.obj
 0001:00030b6a       ??R<lambda_1>@?1??assign@?$basic_string@DU?$char_traits@D@std@@V?$allocator@D@2@@std@@QAEAAV23@ID@Z@QBE@QADID@Z 10031b6a f i libcpmt:locale.obj
 0001:00030b97       ??R<lambda_1>@?1??assign@?$basic_string@DU?$char_traits@D@std@@V?$allocator@D@2@@std@@QAEAAV23@QBDI@Z@QBE@QADI0@Z 10031b97 f i libcpmt:locale.obj
 0001:00030bc1       ??R<lambda_1>@?1??insert@?$basic_string@DU?$char_traits@D@std@@V?$allocator@D@2@@std@@QAEAAV23@IID@Z@QBE@QADQBDIIID@Z 10031bc1 f i libcpmt:locale.obj
 0001:00030c1c       ??R<lambda_1>@?1??push_back@?$basic_string@DU?$char_traits@D@std@@V?$allocator@D@2@@std@@QAEXD@Z@QBE@QADQBDID@Z 10031c1c f i libcpmt:locale.obj
 0001:00030c4f       ??R?$default_delete@V_Facet_base@std@@@std@@QBEXPAV_Facet_base@1@@Z 10031c4f f i libcpmt:locale.obj
 0001:00030c7c       ??Y?$basic_string@DU?$char_traits@D@std@@V?$allocator@D@2@@std@@QAEAAV01@ABV01@@Z 10031c7c f i libcpmt:locale.obj
 0001:00030c87       ??_G?$codecvt@DDU_Mbstatet@@@std@@MAEPAXI@Z 10031c87 f i libcpmt:locale.obj
 0001:00030c87       ??_E?$codecvt@DDU_Mbstatet@@@std@@MAEPAXI@Z 10031c87 f i libcpmt:locale.obj
 0001:00030cb2       ??_G?$num_get@DV?$istreambuf_iterator@DU?$char_traits@D@std@@@std@@@std@@MAEPAXI@Z 10031cb2 f i libcpmt:locale.obj
 0001:00030cb2       ??_E?$num_get@DV?$istreambuf_iterator@DU?$char_traits@D@std@@@std@@@std@@MAEPAXI@Z 10031cb2 f i libcpmt:locale.obj
 0001:00030cdd       ??_Gcodecvt_base@std@@UAEPAXI@Z 10031cdd f i libcpmt:locale.obj
 0001:00030cdd       ??_Ecodecvt_base@std@@UAEPAXI@Z 10031cdd f i libcpmt:locale.obj
 0001:00030d08       ?_Addfac@_Locimp@locale@std@@AAEXPAVfacet@23@I@Z 10031d08 f i libcpmt:locale.obj
 0001:00030d23       ?_Adjust_manually_vector_aligned@std@@YAXAAPAXAAI@Z 10031d23 f i libcpmt:locale.obj
 0001:00030d50       ?_Alloc_proxy@_Container_base0@std@@QAEXABU_Fake_allocator@2@@Z 10031d50 f i libcpmt:locale.obj
 0001:00030d53       ?_Allocate@_Default_allocate_traits@std@@SAPAXI@Z 10031d53 f i libcpmt:locale.obj
 0001:00030d5e       ?_Calculate_growth@?$basic_string@DU?$char_traits@D@std@@V?$allocator@D@2@@std@@ABEII@Z 10031d5e f i libcpmt:locale.obj
 0001:00030d7e       ?_Calculate_growth@?$basic_string@DU?$char_traits@D@std@@V?$allocator@D@2@@std@@CAIIII@Z 10031d7e f i libcpmt:locale.obj
 0001:00030dba       ?_Check_offset@?$_String_val@U?$_Simple_types@D@std@@@std@@QBEXI@Z 10031dba f i libcpmt:locale.obj
 0001:00030dd4       ?_Eos@?$basic_string@DU?$char_traits@D@std@@V?$allocator@D@2@@std@@AAEXI@Z 10031dd4 f i libcpmt:locale.obj
 0001:00030df5       ?_Get_first@?$_Compressed_pair@U?$default_delete@V_Facet_base@std@@@std@@PAV_Facet_base@2@$00@std@@QAEAAU?$default_delete@V_Facet_base@std@@@2@XZ 10031df5 f i libcpmt:locale.obj
 0001:00030df8       ?_Get_first@?$_Compressed_pair@V?$allocator@D@std@@V?$_String_val@U?$_Simple_types@D@std@@@2@$00@std@@QAEAAV?$allocator@D@2@XZ 10031df8 f i libcpmt:locale.obj
 0001:00030dfb       ?_Get_first@?$_Compressed_pair@V?$allocator@D@std@@V?$_String_val@U?$_Simple_types@D@std@@@2@$00@std@@QBEABV?$allocator@D@2@XZ 10031dfb f i libcpmt:locale.obj
 0001:00030dfe       ?_Getal@?$basic_string@DU?$char_traits@D@std@@V?$allocator@D@2@@std@@AAEAAV?$allocator@D@2@XZ 10031dfe f i libcpmt:locale.obj
 0001:00030e01       ?_Getal@?$basic_string@DU?$char_traits@D@std@@V?$allocator@D@2@@std@@ABEABV?$allocator@D@2@XZ 10031e01 f i libcpmt:locale.obj
 0001:00030e04       ?_Getcat@?$codecvt@DDU_Mbstatet@@@std@@SAIPAPBVfacet@locale@2@PBV42@@Z 10031e04 f i libcpmt:locale.obj
 0001:00030e86       ?_Getcat@?$ctype@D@std@@SAIPAPBVfacet@locale@2@PBV42@@Z 10031e86 f i libcpmt:locale.obj
 0001:00030f05       ?_Getcat@?$num_get@DV?$istreambuf_iterator@DU?$char_traits@D@std@@@std@@@std@@SAIPAPBVfacet@locale@2@PBV42@@Z 10031f05 f i libcpmt:locale.obj
 0001:00030f87       ?_Getcat@?$num_put@DV?$ostreambuf_iterator@DU?$char_traits@D@std@@@std@@@std@@SAIPAPBVfacet@locale@2@PBV42@@Z 10031f87 f i libcpmt:locale.obj
 0001:00031009       ?_Getcat@?$numpunct@D@std@@SAIPAPBVfacet@locale@2@PBV42@@Z 10032009 f i libcpmt:locale.obj
 0001:000310a2       ?_Getctype@_Locinfo@std@@QBE?AU_Ctypevec@@XZ 100320a2 f i libcpmt:locale.obj
 0001:000310cd       ?_Getcvt@_Locinfo@std@@QBE?AU_Cvtvec@@XZ 100320cd f i libcpmt:locale.obj
 0001:000310fa       ?_Getfacet@locale@std@@QBEPBVfacet@12@I@Z 100320fa f i libcpmt:locale.obj
 0001:00031145       ?_Getfalse@_Locinfo@std@@QBEPBDXZ 10032145 f i libcpmt:locale.obj
 0001:0003114b       ?_Getffld@?$num_get@DV?$istreambuf_iterator@DU?$char_traits@D@std@@@std@@@std@@ABAHPADAAV?$istreambuf_iterator@DU?$char_traits@D@std@@@2@1AAVios_base@2@PAH@Z 1003214b f i libcpmt:locale.obj
 0001:0003199d       ?_Getffldx@?$num_get@DV?$istreambuf_iterator@DU?$char_traits@D@std@@@std@@@std@@ABAHPADAAV?$istreambuf_iterator@DU?$char_traits@D@std@@@2@1AAVios_base@2@PAH@Z 1003299d f i libcpmt:locale.obj
 0001:0003220e       ?_Getifld@?$num_get@DV?$istreambuf_iterator@DU?$char_traits@D@std@@@std@@@std@@ABAHPADAAV?$istreambuf_iterator@DU?$char_traits@D@std@@@2@1HABVlocale@2@@Z 1003320e f i libcpmt:locale.obj
 0001:00032667       ?_Getlconv@_Locinfo@std@@QBEPBUlconv@@XZ 10033667 f i libcpmt:locale.obj
 0001:0003266c       ?_Getname@_Locinfo@std@@QBEPBDXZ 1003366c f i libcpmt:locale.obj
 0001:00032679       ?_Gettrue@_Locinfo@std@@QBEPBDXZ 10033679 f i libcpmt:locale.obj
 0001:0003267f       ?_Gnavail@?$basic_streambuf@DU?$char_traits@D@std@@@std@@IBE_JXZ 1003367f f i libcpmt:locale.obj
 0001:00032695       ?_Gninc@?$basic_streambuf@DU?$char_traits@D@std@@@std@@IAEPADXZ 10033695 f i libcpmt:locale.obj
 0001:000326a9       ?_Ifmt@?$num_put@DV?$ostreambuf_iterator@DU?$char_traits@D@std@@@std@@@std@@ABAPADPADPBDH@Z 100336a9 f i libcpmt:locale.obj
 0001:0003273b       ?_Inc@?$istreambuf_iterator@DU?$char_traits@D@std@@@std@@AAEXXZ 1003373b f i libcpmt:locale.obj
 0001:00032764       ?_Init@?$codecvt@DDU_Mbstatet@@@std@@IAEXABV_Locinfo@2@@Z 10033764 f i libcpmt:locale.obj
 0001:00032767       ?_Init@?$ctype@D@std@@IAEXABV_Locinfo@2@@Z 10033767 f i libcpmt:locale.obj
 0001:00032792       ?_Init@?$num_get@DV?$istreambuf_iterator@DU?$char_traits@D@std@@@std@@@std@@IAEXABV_Locinfo@2@@Z 10033792 f i libcpmt:locale.obj
 0001:00032795       ?_Init@?$num_put@DV?$ostreambuf_iterator@DU?$char_traits@D@std@@@std@@@std@@IAEXABV_Locinfo@2@@Z 10033795 f i libcpmt:locale.obj
 0001:00032798       ?_Init@?$numpunct@D@std@@IAEXABV_Locinfo@2@_N@Z 10033798 f i libcpmt:locale.obj
 0001:00032865       ?_Large_string_engaged@?$_String_val@U?$_Simple_types@D@std@@@std@@QBE_NXZ 10033865 f i libcpmt:locale.obj
 0001:00032870       ?_Locimp_Addfac@_Locimp@locale@std@@CAXPAV123@PAVfacet@23@I@Z 10033870 f   libcpmt:locale.obj
 0001:00032967       ?_Locimp_ctor@_Locimp@locale@std@@CAXPAV123@ABV123@@Z 10033967 f   libcpmt:locale.obj
 0001:00032a4b       ?_Locinfo_Addcats@_Locinfo@std@@SAAAV12@PAV12@HPBD@Z 10033a4b f   libcpmt:locale.obj
 0001:00032b19       ?_Locinfo_ctor@_Locinfo@std@@SAXPAV12@HPBD@Z 10033b19 f   libcpmt:locale.obj
 0001:00032b5c       ?_Makeloc@_Locimp@locale@std@@CAPAV123@ABV_Locinfo@3@HPAV123@PBV23@@Z 10033b5c f   libcpmt:locale.obj
 0001:00032dfb       ?_Memcpy_val_from@?$basic_string@DU?$char_traits@D@std@@V?$allocator@D@2@@std@@AAEXABV12@@Z 10033dfb f i libcpmt:locale.obj
 0001:00032e15       ?_Move_assign@?$basic_string@DU?$char_traits@D@std@@V?$allocator@D@2@@std@@AAEXAAV12@U_Equal_allocators@2@@Z 10033e15 f i libcpmt:locale.obj
 0001:00032e84       ?_Myptr@?$_String_val@U?$_Simple_types@D@std@@@std@@QAEPADXZ 10033e84 f i libcpmt:locale.obj
 0001:00032e91       ?_Myptr@?$_String_val@U?$_Simple_types@D@std@@@std@@QBEPBDXZ 10033e91 f i libcpmt:locale.obj
 0001:00032e9e       ?_Orphan_all@_Container_base0@std@@QAEXXZ 10033e9e f i libcpmt:locale.obj
 0001:00032ea1       ?_Peek@?$istreambuf_iterator@DU?$char_traits@D@std@@@std@@ABEDXZ 10033ea1 f i libcpmt:locale.obj
 0001:00032ece       ?_Pnavail@?$basic_streambuf@DU?$char_traits@D@std@@@std@@IBE_JXZ 10033ece f i libcpmt:locale.obj
 0001:00032ee4       ?_Pninc@?$basic_streambuf@DU?$char_traits@D@std@@@std@@IAEPADXZ 10033ee4 f i libcpmt:locale.obj
 0001:00032ef8       ?_Release@_Fake_proxy_ptr_impl@std@@QAEXXZ 10033ef8 f i libcpmt:locale.obj
 0001:00032efb       ?_Stodx_v2@std@@YANPBDPAPADHPAH@Z 10033efb f i libcpmt:locale.obj
 0001:00032f60       ?_Stofx_v2@std@@YAMPBDPAPADHPAH@Z 10033f60 f i libcpmt:locale.obj
 0001:00032fcf       ?_Swap_proxy_and_iterators@?$basic_string@DU?$char_traits@D@std@@V?$allocator@D@2@@std@@AAEXAAV12@@Z 10033fcf f i libcpmt:locale.obj
 0001:00032fd2       ?_Swap_proxy_and_iterators@_Container_base0@std@@QAEXAAU12@@Z 10033fd2 f i libcpmt:locale.obj
 0001:00032fd5       ?_Take_contents@?$basic_string@DU?$char_traits@D@std@@V?$allocator@D@2@@std@@AAEXAAV12@@Z 10033fd5 f i libcpmt:locale.obj
 0001:0003303e       ?_Throw_bad_cast@std@@YAXXZ 1003403e f i libcpmt:locale.obj
 0001:00033062       ?_Tidy@?$_Yarn@_W@std@@AAEXXZ 10034062 f i libcpmt:locale.obj
 0001:0003307c       ?_Tidy@?$ctype@D@std@@IAEXXZ 1003407c f i libcpmt:locale.obj
 0001:000330b0       ?_Tidy@?$numpunct@D@std@@AAEXXZ 100340b0 f i libcpmt:locale.obj
 0001:000330d8       ?_Tidy_deallocate@?$basic_string@DU?$char_traits@D@std@@V?$allocator@D@2@@std@@AAEXXZ 100340d8 f i libcpmt:locale.obj
 0001:00033107       ?_Tidy_init@?$basic_string@DU?$char_traits@D@std@@V?$allocator@D@2@@std@@AAEXXZ 10034107 f i libcpmt:locale.obj
 0001:00033159       ?append@?$basic_string@DU?$char_traits@D@std@@V?$allocator@D@2@@std@@QAEAAV12@ABV12@@Z 10034159 f i libcpmt:locale.obj
 0001:0003317c       ?append@?$basic_string@DU?$char_traits@D@std@@V?$allocator@D@2@@std@@QAEAAV12@ID@Z 1003417c f i libcpmt:locale.obj
 0001:000331ea       ?assign@?$_Char_traits@DH@std@@SAPADQADID@Z 100341ea f i libcpmt:locale.obj
 0001:00033210       ?assign@?$_Narrow_char_traits@DH@std@@SAPADQADID@Z 10034210 f i libcpmt:locale.obj
 0001:0003322e       ?assign@?$_Narrow_char_traits@DH@std@@SAXAADABD@Z 1003422e f i libcpmt:locale.obj
 0001:00033240       ?assign@?$basic_string@DU?$char_traits@D@std@@V?$allocator@D@2@@std@@QAEAAV12@$$QAV12@@Z 10034240 f i libcpmt:locale.obj
 0001:0003325a       ?assign@?$basic_string@DU?$char_traits@D@std@@V?$allocator@D@2@@std@@QAEAAV12@ID@Z 1003425a f i libcpmt:locale.obj
 0001:000332b4       ?assign@?$basic_string@DU?$char_traits@D@std@@V?$allocator@D@2@@std@@QAEAAV12@QBD@Z 100342b4 f i libcpmt:locale.obj
 0001:000332dd       ?c_str@?$basic_string@DU?$char_traits@D@std@@V?$allocator@D@2@@std@@QBEPBDXZ 100342dd f i libcpmt:locale.obj
 0001:000332ea       ?c_str@locale@std@@QBEPBDXZ 100342ea f i libcpmt:locale.obj
 0001:00033308       ?copy@?$_Char_traits@DH@std@@SAPADQADQBDI@Z 10034308 f i libcpmt:locale.obj
 0001:00033327       ?deallocate@?$allocator@D@std@@QAEXQADI@Z 10034327 f i libcpmt:locale.obj
 0001:00033340       ?decimal_point@?$numpunct@D@std@@QBEDXZ 10034340 f i libcpmt:locale.obj
 0001:0003335e       ?do_always_noconv@?$codecvt@DDU_Mbstatet@@@std@@MBE_NXZ 1003435e f i libcpmt:locale.obj
 0001:00033361       ?do_always_noconv@codecvt_base@std@@MBE_NXZ 10034361 f i libcpmt:locale.obj
 0001:00033364       ?do_encoding@codecvt_base@std@@MBEHXZ 10034364 f i libcpmt:locale.obj
 0001:00033368       ?do_get@?$num_get@DV?$istreambuf_iterator@DU?$char_traits@D@std@@@std@@@std@@MBE?AV?$istreambuf_iterator@DU?$char_traits@D@std@@@2@V32@0AAVios_base@2@AAHAAG@Z 10034368 f i libcpmt:locale.obj
 0001:00033491       ?do_get@?$num_get@DV?$istreambuf_iterator@DU?$char_traits@D@std@@@std@@@std@@MBE?AV?$istreambuf_iterator@DU?$char_traits@D@std@@@2@V32@0AAVios_base@2@AAHAAI@Z 10034491 f i libcpmt:locale.obj
 0001:000334e1       ?do_get@?$num_get@DV?$istreambuf_iterator@DU?$char_traits@D@std@@@std@@@std@@MBE?AV?$istreambuf_iterator@DU?$char_traits@D@std@@@2@V32@0AAVios_base@2@AAHAAJ@Z 100344e1 f i libcpmt:locale.obj
 0001:000335d6       ?do_get@?$num_get@DV?$istreambuf_iterator@DU?$char_traits@D@std@@@std@@@std@@MBE?AV?$istreambuf_iterator@DU?$char_traits@D@std@@@2@V32@0AAVios_base@2@AAHAAK@Z 100345d6 f i libcpmt:locale.obj
 0001:000336cb       ?do_get@?$num_get@DV?$istreambuf_iterator@DU?$char_traits@D@std@@@std@@@std@@MBE?AV?$istreambuf_iterator@DU?$char_traits@D@std@@@2@V32@0AAVios_base@2@AAHAAM@Z 100346cb f i libcpmt:locale.obj
 0001:00033804       ?do_get@?$num_get@DV?$istreambuf_iterator@DU?$char_traits@D@std@@@std@@@std@@MBE?AV?$istreambuf_iterator@DU?$char_traits@D@std@@@2@V32@0AAVios_base@2@AAHAAN@Z 10034804 f i libcpmt:locale.obj
 0001:00033931       ?do_get@?$num_get@DV?$istreambuf_iterator@DU?$char_traits@D@std@@@std@@@std@@MBE?AV?$istreambuf_iterator@DU?$char_traits@D@std@@@2@V32@0AAVios_base@2@AAHAAO@Z 10034931 f i libcpmt:locale.obj
 0001:0003397e       ?do_get@?$num_get@DV?$istreambuf_iterator@DU?$char_traits@D@std@@@std@@@std@@MBE?AV?$istreambuf_iterator@DU?$char_traits@D@std@@@2@V32@0AAVios_base@2@AAHAAPAX@Z 1003497e f i libcpmt:locale.obj
 0001:00033a69       ?do_get@?$num_get@DV?$istreambuf_iterator@DU?$char_traits@D@std@@@std@@@std@@MBE?AV?$istreambuf_iterator@DU?$char_traits@D@std@@@2@V32@0AAVios_base@2@AAHAA_J@Z 10034a69 f i libcpmt:locale.obj
 0001:00033b66       ?do_get@?$num_get@DV?$istreambuf_iterator@DU?$char_traits@D@std@@@std@@@std@@MBE?AV?$istreambuf_iterator@DU?$char_traits@D@std@@@2@V32@0AAVios_base@2@AAHAA_K@Z 10034b66 f i libcpmt:locale.obj
 0001:00033c63       ?do_get@?$num_get@DV?$istreambuf_iterator@DU?$char_traits@D@std@@@std@@@std@@MBE?AV?$istreambuf_iterator@DU?$char_traits@D@std@@@2@V32@0AAVios_base@2@AAHAA_N@Z 10034c63 f i libcpmt:locale.obj
 0001:00033f2e       ?do_in@?$codecvt@DDU_Mbstatet@@@std@@MBEHAAU_Mbstatet@@PBD1AAPBDPAD3AAPAD@Z 10034f2e f i libcpmt:locale.obj
 0001:00033f4e       ?do_length@?$codecvt@DDU_Mbstatet@@@std@@MBEHAAU_Mbstatet@@PBD1I@Z 10034f4e f i libcpmt:locale.obj
 0001:00033f68       ?do_max_length@codecvt_base@std@@MBEHXZ 10034f68 f i libcpmt:locale.obj
 0001:00033f6c       ?do_out@?$codecvt@DDU_Mbstatet@@@std@@MBEHAAU_Mbstatet@@PBD1AAPBDPAD3AAPAD@Z 10034f6c f i libcpmt:locale.obj
 0001:00033f8c       ?do_unshift@?$codecvt@DDU_Mbstatet@@@std@@MBEHAAU_Mbstatet@@PAD1AAPAD@Z 10034f8c f i libcpmt:locale.obj
 0001:00033fa2       ?eof@?$_Narrow_char_traits@DH@std@@SAHXZ 10034fa2 f i libcpmt:locale.obj
 0001:00033fa6       ?eq_int_type@?$_Narrow_char_traits@DH@std@@SA_NABH0@Z 10034fa6 f i libcpmt:locale.obj
 0001:00033fbc       ?equal@?$istreambuf_iterator@DU?$char_traits@D@std@@@std@@QBE_NABV12@@Z 10034fbc f i libcpmt:locale.obj
 0001:00034004       ?falsename@?$numpunct@D@std@@QBE?AV?$basic_string@DU?$char_traits@D@std@@V?$allocator@D@2@@2@XZ 10035004 f i libcpmt:locale.obj
 0001:00034031       ?flags@ios_base@std@@QBEHXZ 10035031 f i libcpmt:locale.obj
 0001:00034035       ?getloc@ios_base@std@@QBE?AVlocale@2@XZ 10035035 f i libcpmt:locale.obj
 0001:0003404f       ?global@locale@std@@SA?AV12@ABV12@@Z 1003504f f   libcpmt:locale.obj
 0001:00034171       ?gptr@?$basic_streambuf@DU?$char_traits@D@std@@@std@@IBEPADXZ 10035171 f i libcpmt:locale.obj
 0001:00034177       ?grouping@?$numpunct@D@std@@QBE?AV?$basic_string@DU?$char_traits@D@std@@V?$allocator@D@2@@2@XZ 10035177 f i libcpmt:locale.obj
 0001:000341a4       ?insert@?$basic_string@DU?$char_traits@D@std@@V?$allocator@D@2@@std@@QAEAAV12@IID@Z 100351a4 f i libcpmt:locale.obj
 0001:00034231       ?is_constant_evaluated@std@@YA_NXZ 10035231 f i libcpmt:locale.obj
 0001:00034234       ?length@?$_Narrow_char_traits@DH@std@@SAIQBD@Z 10035234 f i libcpmt:locale.obj
 0001:0003424d       ?max@?$numeric_limits@H@std@@SAHXZ 1003524d f i libcpmt:locale.obj
 0001:00034253       ?max_size@?$_Default_allocator_traits@V?$allocator@D@std@@@std@@SAIABV?$allocator@D@2@@Z 10035253 f i libcpmt:locale.obj
 0001:00034257       ?max_size@?$basic_string@DU?$char_traits@D@std@@V?$allocator@D@2@@std@@QBEIXZ 10035257 f i libcpmt:locale.obj
 0001:0003425d       ?move@?$_Char_traits@DH@std@@SAPADQADQBDI@Z 1003525d f i libcpmt:locale.obj
 0001:0003427c       ?precision@ios_base@std@@QBE_JXZ 1003527c f i libcpmt:locale.obj
 0001:00034283       ?push_back@?$basic_string@DU?$char_traits@D@std@@V?$allocator@D@2@@std@@QAEXD@Z 10035283 f i libcpmt:locale.obj
 0001:000342c9       ?release@?$unique_ptr@V_Facet_base@std@@U?$default_delete@V_Facet_base@std@@@2@@std@@QAEPAV_Facet_base@2@XZ 100352c9 f i libcpmt:locale.obj
 0001:000342cf       ?sbumpc@?$basic_streambuf@DU?$char_traits@D@std@@@std@@QAEHXZ 100352cf f i libcpmt:locale.obj
 0001:00034316       ?sgetc@?$basic_streambuf@DU?$char_traits@D@std@@@std@@QAEHXZ 10035316 f i libcpmt:locale.obj
 0001:0003434f       ?size@?$basic_string@DU?$char_traits@D@std@@V?$allocator@D@2@@std@@QBEIXZ 1003534f f i libcpmt:locale.obj
 0001:00034353       ?sputc@?$basic_streambuf@DU?$char_traits@D@std@@@std@@QAEHD@Z 10035353 f i libcpmt:locale.obj
 0001:000343b2       ?thousands_sep@?$numpunct@D@std@@QBEDXZ 100353b2 f i libcpmt:locale.obj
 0001:000343d0       ?to_char_type@?$_Narrow_char_traits@DH@std@@SADABH@Z 100353d0 f i libcpmt:locale.obj
 0001:000343dc       ?to_int_type@?$_Narrow_char_traits@DH@std@@SAHABD@Z 100353dc f i libcpmt:locale.obj
 0001:000343e9       ?tolower@?$ctype@D@std@@QBEDD@Z 100353e9 f i libcpmt:locale.obj
 0001:00034412       ?truename@?$numpunct@D@std@@QBE?AV?$basic_string@DU?$char_traits@D@std@@V?$allocator@D@2@@2@XZ 10035412 f i libcpmt:locale.obj
 0001:0003443f       ?widen@?$ctype@D@std@@QBEPBDPBD0PAD@Z 1003543f f i libcpmt:locale.obj
 0001:0003446f       ?width@ios_base@std@@QAE_J_J@Z 1003546f f i libcpmt:locale.obj
 0001:00034493       ?width@ios_base@std@@QBE_JXZ 10035493 f i libcpmt:locale.obj
 0001:0003449a       __vsprintf_s_l             1003549a f i libcpmt:locale.obj
 0001:000344d2       _fabsl                     100354d2 f i libcpmt:locale.obj
 0001:000344de       _frexpl                    100354de f i libcpmt:locale.obj
 0001:000344fc       _ldexpf                    100354fc f i libcpmt:locale.obj
 0001:00034522       _powf                      10035522 f i libcpmt:locale.obj
 0001:0003453e       ??1_Init_atexit@@QAE@XZ    1003553e f i libcpmt:iosptrs.obj
 0001:000345c0       ?_Atexit@@YAXP6AXXZ@Z      100355c0 f   libcpmt:iosptrs.obj
 0001:000345fa       ??0?$__crt_scoped_stack_ptr@_W@@QAE@U?$__crt_scoped_stack_ptr_tag@_W@@@Z 100355fa f i libcpmt:StlLCMapStringA.obj
 0001:0003460b       ??0?$__crt_scoped_stack_ptr_tag@_W@@QAE@QA_W@Z 1003560b f i libcpmt:StlLCMapStringA.obj
 0001:0003461c       ??1?$__crt_scoped_stack_ptr@_W@@QAE@XZ 1003561c f i libcpmt:StlLCMapStringA.obj
 0001:0003463b       ??B?$__crt_scoped_stack_ptr@_W@@QBE_NXZ 1003563b f i libcpmt:StlLCMapStringA.obj
 0001:00034642       ?get@?$__crt_scoped_stack_ptr@_W@@QBEPA_WXZ 10035642 f i libcpmt:StlLCMapStringA.obj
 0001:00034645       __MallocaComputeSize       10035645 f i libcpmt:StlLCMapStringA.obj
 0001:0003465a       __MarkAllocaS              1003565a f i libcpmt:StlLCMapStringA.obj
 0001:00034673       ___crtLCMapStringA         10035673 f   libcpmt:StlLCMapStringA.obj
 0001:000348b2       __freea_crt                100358b2 f i libcpmt:StlLCMapStringA.obj
 0001:000348d7       ??$?0$$V@?$_Compressed_pair@V?$allocator@G@std@@V?$_String_val@U?$_Simple_types@G@std@@@2@$00@std@@QAE@U_Zero_then_variadic_args_t@1@@Z 100358d7 f i libcpmt:wlocale.obj
 0001:000348e9       ??$?0$$V@?$_Compressed_pair@V?$allocator@_W@std@@V?$_String_val@U?$_Simple_types@_W@std@@@2@$00@std@@QAE@U_Zero_then_variadic_args_t@1@@Z 100358e9 f i libcpmt:wlocale.obj
 0001:000348fb       ??$?0V?$allocator@D@std@@$$V@?$_Compressed_pair@V?$allocator@D@std@@V?$_String_val@U?$_Simple_types@D@std@@@2@$00@std@@QAE@U_One_then_variadic_args_t@1@$$QAV?$allocator@D@1@@Z 100358fb f i libcpmt:wlocale.obj
 0001:0003490d       ??$?0V?$allocator@G@std@@$$V@?$_Compressed_pair@V?$allocator@G@std@@V?$_String_val@U?$_Simple_types@G@std@@@2@$00@std@@QAE@U_One_then_variadic_args_t@1@$$QAV?$allocator@G@1@@Z 1003590d f i libcpmt:wlocale.obj
 0001:0003491f       ??$?0V?$allocator@_W@std@@$$V@?$_Compressed_pair@V?$allocator@_W@std@@V?$_String_val@U?$_Simple_types@_W@std@@@2@$00@std@@QAE@U_One_then_variadic_args_t@1@$$QAV?$allocator@_W@1@@Z 1003591f f i libcpmt:wlocale.obj
 0001:00034931       ??$?8GU?$char_traits@G@std@@@std@@YA_NABV?$istreambuf_iterator@GU?$char_traits@G@std@@@0@0@Z 10035931 f i libcpmt:wlocale.obj
 0001:00034945       ??$?8_WU?$char_traits@_W@std@@@std@@YA_NABV?$istreambuf_iterator@_WU?$char_traits@_W@std@@@0@0@Z 10035945 f i libcpmt:wlocale.obj
 0001:00034959       ??$_Adl_verify_range@PADPAD@std@@YAXABQAD0@Z 10035959 f i libcpmt:wlocale.obj
 0001:0003495c       ??$_Adl_verify_range@PAGPAG@std@@YAXABQAG0@Z 1003595c f i libcpmt:wlocale.obj
 0001:0003495f       ??$_Adl_verify_range@PAGPBG@std@@YAXABQAGABQBG@Z 1003595f f i libcpmt:wlocale.obj
 0001:00034962       ??$_Adl_verify_range@PA_WPA_W@std@@YAXABQA_W0@Z 10035962 f i libcpmt:wlocale.obj
 0001:00034965       ??$_Adl_verify_range@PA_WPB_W@std@@YAXABQA_WABQB_W@Z 10035965 f i libcpmt:wlocale.obj
 0001:00034968       ??$_Adl_verify_range@PBGPBG@std@@YAXABQBG0@Z 10035968 f i libcpmt:wlocale.obj
 0001:0003496b       ??$_Adl_verify_range@PB_WPB_W@std@@YAXABQB_W0@Z 1003596b f i libcpmt:wlocale.obj
 0001:0003496e       ??$_Adl_verify_range@V?$istreambuf_iterator@GU?$char_traits@G@std@@@std@@V12@@std@@YAXABV?$istreambuf_iterator@GU?$char_traits@G@std@@@0@0@Z 1003596e f i libcpmt:wlocale.obj
 0001:00034971       ??$_Adl_verify_range@V?$istreambuf_iterator@_WU?$char_traits@_W@std@@@std@@V12@@std@@YAXABV?$istreambuf_iterator@_WU?$char_traits@_W@std@@@0@0@Z 10035971 f i libcpmt:wlocale.obj
 0001:00034974       ??$_Construct_in_place@PAGAAPAG@std@@YAXAAPAG0@Z 10035974 f i libcpmt:wlocale.obj
 0001:00034986       ??$_Construct_in_place@PAGABQAG@std@@YAXAAPAGABQAG@Z 10035986 f i libcpmt:wlocale.obj
 0001:00034998       ??$_Construct_in_place@PA_WAAPA_W@std@@YAXAAPA_W0@Z 10035998 f i libcpmt:wlocale.obj
 0001:000349aa       ??$_Construct_in_place@PA_WABQA_W@std@@YAXAAPA_WABQA_W@Z 100359aa f i libcpmt:wlocale.obj
 0001:000349bc       ??$_Copy_unchecked@PA_WV?$ostreambuf_iterator@GU?$char_traits@G@std@@@std@@@std@@YA?AV?$ostreambuf_iterator@GU?$char_traits@G@std@@@0@PA_W0V10@@Z 100359bc f i libcpmt:wlocale.obj
 0001:000349f5       ??$_Copy_unchecked@PA_WV?$ostreambuf_iterator@_WU?$char_traits@_W@std@@@std@@@std@@YA?AV?$ostreambuf_iterator@_WU?$char_traits@_W@std@@@0@PA_W0V10@@Z 100359f5 f i libcpmt:wlocale.obj
 0001:00034a2e       ??$_Destroy_in_place@PAG@std@@YAXAAPAG@Z 10035a2e f i libcpmt:wlocale.obj
 0001:00034a31       ??$_Destroy_in_place@PA_W@std@@YAXAAPA_W@Z 10035a31 f i libcpmt:wlocale.obj
 0001:00034a34       ??$_Find_elem@G$0BL@@std@@YAIAAY0BL@$$CBGG@Z 10035a34 f i libcpmt:wlocale.obj
 0001:00034a64       ??$_Find_elem@G$0BN@@std@@YAIAAY0BN@$$CBGG@Z 10035a64 f i libcpmt:wlocale.obj
 0001:00034a94       ??$_Find_elem@G$0M@@std@@YAIAAY0M@$$CBGG@Z 10035a94 f i libcpmt:wlocale.obj
 0001:00034ac4       ??$_Find_elem@G$0P@@std@@YAIAAY0P@$$CBGG@Z 10035ac4 f i libcpmt:wlocale.obj
 0001:00034af4       ??$_Find_elem@_W$0BL@@std@@YAIAAY0BL@$$CB_W_W@Z 10035af4 f i libcpmt:wlocale.obj
 0001:00034b24       ??$_Find_elem@_W$0BN@@std@@YAIAAY0BN@$$CB_W_W@Z 10035b24 f i libcpmt:wlocale.obj
 0001:00034b54       ??$_Find_elem@_W$0M@@std@@YAIAAY0M@$$CB_W_W@Z 10035b54 f i libcpmt:wlocale.obj
 0001:00034b84       ??$_Find_elem@_W$0P@@std@@YAIAAY0P@$$CB_W_W@Z 10035b84 f i libcpmt:wlocale.obj
 0001:00034bb4       ??$_Find_unchecked1@PBGG@std@@YAPBGPBGQBGABGU?$integral_constant@_N$0A@@0@@Z 10035bb4 f i libcpmt:wlocale.obj
 0001:00034bde       ??$_Find_unchecked1@PB_W_W@std@@YAPB_WPB_WQB_WAB_WU?$integral_constant@_N$0A@@0@@Z 10035bde f i libcpmt:wlocale.obj
 0001:00034c08       ??$_Find_unchecked@PBGG@std@@YAPBGQBG0ABG@Z 10035c08 f i libcpmt:wlocale.obj
 0001:00034c2d       ??$_Find_unchecked@PB_W_W@std@@YAPB_WQB_W0AB_W@Z 10035c2d f i libcpmt:wlocale.obj
 0001:00034c52       ??$_Get_size_of_n@$01@std@@YAII@Z 10035c52 f i libcpmt:wlocale.obj
 0001:00034c6c       ??$_Get_unwrapped@AAPA_W@std@@YA?A_TAAPA_W@Z 10035c6c f i libcpmt:wlocale.obj
 0001:00034c78       ??$_Get_unwrapped_n@AAV?$ostreambuf_iterator@GU?$char_traits@G@std@@@std@@H@std@@YA?A_TAAV?$ostreambuf_iterator@GU?$char_traits@G@std@@@0@H@Z 10035c78 f i libcpmt:wlocale.obj
 0001:00034c82       ??$_Get_unwrapped_n@AAV?$ostreambuf_iterator@_WU?$char_traits@_W@std@@@std@@H@std@@YA?A_TAAV?$ostreambuf_iterator@_WU?$char_traits@_W@std@@@0@H@Z 10035c82 f i libcpmt:wlocale.obj
 0001:00034c8c       ??$_Getloctxt@V?$istreambuf_iterator@GU?$char_traits@G@std@@@std@@D@std@@YAHAAV?$istreambuf_iterator@GU?$char_traits@G@std@@@0@0IPBDW4_Case_sensitive@0@@Z 10035c8c f i libcpmt:wlocale.obj
 0001:00034f1e       ??$_Getloctxt@V?$istreambuf_iterator@GU?$char_traits@G@std@@@std@@G@std@@YAHAAV?$istreambuf_iterator@GU?$char_traits@G@std@@@0@0IPBGW4_Case_sensitive@0@@Z 10035f1e f i libcpmt:wlocale.obj
 0001:000351c1       ??$_Getloctxt@V?$istreambuf_iterator@_WU?$char_traits@_W@std@@@std@@D@std@@YAHAAV?$istreambuf_iterator@_WU?$char_traits@_W@std@@@0@0IPBDW4_Case_sensitive@0@@Z 100361c1 f i libcpmt:wlocale.obj
 0001:00035453       ??$_Getloctxt@V?$istreambuf_iterator@_WU?$char_traits@_W@std@@@std@@_W@std@@YAHAAV?$istreambuf_iterator@_WU?$char_traits@_W@std@@@0@0IPB_WW4_Case_sensitive@0@@Z 10036453 f i libcpmt:wlocale.obj
 0001:000356f6       ??$_Getvals@G@?$_Mpunct@G@std@@IAEXGPBUlconv@@@Z 100366f6 f i libcpmt:wlocale.obj
 0001:000357ac       ??$_Getvals@G@?$numpunct@G@std@@IAEXGPBUlconv@@U_Cvtvec@@@Z 100367ac f i libcpmt:wlocale.obj
 0001:00035826       ??$_Getvals@G@?$time_get@GV?$istreambuf_iterator@GU?$char_traits@G@std@@@std@@@std@@IAEXGABV_Locinfo@1@@Z 10036826 f i libcpmt:wlocale.obj
 0001:000358ab       ??$_Getvals@_W@?$time_get@_WV?$istreambuf_iterator@_WU?$char_traits@_W@std@@@std@@@std@@IAEX_WABV_Locinfo@1@@Z 100368ab f i libcpmt:wlocale.obj
 0001:0003591a       ??$_Hash_array_representation@G@std@@YAIQBGI@Z 1003691a f i libcpmt:wlocale.obj
 0001:0003593b       ??$_Hash_array_representation@_W@std@@YAIQB_WI@Z 1003693b f i libcpmt:wlocale.obj
 0001:0003595c       ??$_Idl_distance@PA_WPA_W@std@@YA?A_PABQA_W0@Z 1003695c f i libcpmt:wlocale.obj
 0001:00035971       ??$_LStrcoll@G@std@@YAHPBG000PBU_Collvec@@@Z 10036971 f i libcpmt:wlocale.obj
 0001:000359cd       ??$_LStrcoll@_W@std@@YAHPB_W000PBU_Collvec@@@Z 100369cd f i libcpmt:wlocale.obj
 0001:000359d8       ??$_LStrxfrm@G@std@@YAIPAG0PBG1PBU_Collvec@@@Z 100369d8 f i libcpmt:wlocale.obj
 0001:00035a12       ??$_LStrxfrm@_W@std@@YAIPA_W0PB_W1PBU_Collvec@@@Z 10036a12 f i libcpmt:wlocale.obj
 0001:00035a1d       ??$_Maklocchr@G@std@@YAGDPAGABU_Cvtvec@@@Z 10036a1d f i libcpmt:wlocale.obj
 0001:00035a5a       ??$_Maklocchr@_W@std@@YA_WDPA_WABU_Cvtvec@@@Z 10036a5a f i libcpmt:wlocale.obj
 0001:00035a97       ??$_Maklocstr@G@std@@YAPAGPBDPAGABU_Cvtvec@@@Z 10036a97 f i libcpmt:wlocale.obj
 0001:00035b69       ??$_Maklocstr@_W@std@@YAPA_WPBDPA_WABU_Cvtvec@@@Z 10036b69 f i libcpmt:wlocale.obj
 0001:00035c3b       ??$_Pocma@V?$allocator@G@std@@@std@@YAXAAV?$allocator@G@0@0@Z 10036c3b f i libcpmt:wlocale.obj
 0001:00035c3e       ??$_Pocma@V?$allocator@_W@std@@@std@@YAXAAV?$allocator@_W@0@0@Z 10036c3e f i libcpmt:wlocale.obj
 0001:00035c41       ??$_Reallocate_for@V<lambda_1>@?1??assign@?$basic_string@GU?$char_traits@G@std@@V?$allocator@G@2@@std@@QAEAAV34@IG@Z@G@?$basic_string@GU?$char_traits@G@std@@V?$allocator@G@2@@std@@AAEAAV01@IV<lambda_1>@?1??assign@01@QAEAAV01@IG@Z@G@Z 10036c41 f i libcpmt:wlocale.obj
 0001:00035cdd       ??$_Reallocate_for@V<lambda_1>@?1??assign@?$basic_string@GU?$char_traits@G@std@@V?$allocator@G@2@@std@@QAEAAV34@QBGI@Z@PBG@?$basic_string@GU?$char_traits@G@std@@V?$allocator@G@2@@std@@AAEAAV01@IV<lambda_1>@?1??assign@01@QAEAAV01@QBGI@Z@PBG@Z 10036cdd f i libcpmt:wlocale.obj
 0001:00035d7d       ??$_Reallocate_for@V<lambda_1>@?1??assign@?$basic_string@_WU?$char_traits@_W@std@@V?$allocator@_W@2@@std@@QAEAAV34@I_W@Z@_W@?$basic_string@_WU?$char_traits@_W@std@@V?$allocator@_W@2@@std@@AAEAAV01@IV<lambda_1>@?1??assign@01@QAEAAV01@I_W@Z@_W@Z 10036d7d f i libcpmt:wlocale.obj
 0001:00035e19       ??$_Reallocate_for@V<lambda_1>@?1??assign@?$basic_string@_WU?$char_traits@_W@std@@V?$allocator@_W@2@@std@@QAEAAV34@QB_WI@Z@PB_W@?$basic_string@_WU?$char_traits@_W@std@@V?$allocator@_W@2@@std@@AAEAAV01@IV<lambda_1>@?1??assign@01@QAEAAV01@QB_WI@Z@PB_W@Z 10036e19 f i libcpmt:wlocale.obj
 0001:00035eb9       ??$_Reallocate_grow_by@V<lambda_1>@?1??append@?$basic_string@GU?$char_traits@G@std@@V?$allocator@G@2@@std@@QAEAAV34@IG@Z@IG@?$basic_string@GU?$char_traits@G@std@@V?$allocator@G@2@@std@@AAEAAV01@IV<lambda_1>@?1??append@01@QAEAAV01@IG@Z@IG@Z 10036eb9 f i libcpmt:wlocale.obj
 0001:00035f73       ??$_Reallocate_grow_by@V<lambda_1>@?1??append@?$basic_string@GU?$char_traits@G@std@@V?$allocator@G@2@@std@@QAEAAV34@QBGI@Z@PBGI@?$basic_string@GU?$char_traits@G@std@@V?$allocator@G@2@@std@@AAEAAV01@IV<lambda_1>@?1??append@01@QAEAAV01@QBGI@Z@PBGI@Z 10036f73 f i libcpmt:wlocale.obj
 0001:0003602d       ??$_Reallocate_grow_by@V<lambda_1>@?1??append@?$basic_string@_WU?$char_traits@_W@std@@V?$allocator@_W@2@@std@@QAEAAV34@I_W@Z@I_W@?$basic_string@_WU?$char_traits@_W@std@@V?$allocator@_W@2@@std@@AAEAAV01@IV<lambda_1>@?1??append@01@QAEAAV01@I_W@Z@I_W@Z 1003702d f i libcpmt:wlocale.obj
 0001:000360e7       ??$_Reallocate_grow_by@V<lambda_1>@?1??append@?$basic_string@_WU?$char_traits@_W@std@@V?$allocator@_W@2@@std@@QAEAAV34@QB_WI@Z@PB_WI@?$basic_string@_WU?$char_traits@_W@std@@V?$allocator@_W@2@@std@@AAEAAV01@IV<lambda_1>@?1??append@01@QAEAAV01@QB_WI@Z@PB_WI@Z 100370e7 f i libcpmt:wlocale.obj
 0001:000361a1       ??$_Reallocate_grow_by@V<lambda_1>@?1??insert@?$basic_string@GU?$char_traits@G@std@@V?$allocator@G@2@@std@@QAEAAV34@IIG@Z@IIG@?$basic_string@GU?$char_traits@G@std@@V?$allocator@G@2@@std@@AAEAAV01@IV<lambda_1>@?1??insert@01@QAEAAV01@IIG@Z@IIG@Z 100371a1 f i libcpmt:wlocale.obj
 0001:0003625f       ??$_Reallocate_grow_by@V<lambda_1>@?1??insert@?$basic_string@_WU?$char_traits@_W@std@@V?$allocator@_W@2@@std@@QAEAAV34@II_W@Z@II_W@?$basic_string@_WU?$char_traits@_W@std@@V?$allocator@_W@2@@std@@AAEAAV01@IV<lambda_1>@?1??insert@01@QAEAAV01@II_W@Z@II_W@Z 1003725f f i libcpmt:wlocale.obj
 0001:0003631d       ??$_Reallocate_grow_by@V<lambda_1>@?1??push_back@?$basic_string@GU?$char_traits@G@std@@V?$allocator@G@2@@std@@QAEXG@Z@G@?$basic_string@GU?$char_traits@G@std@@V?$allocator@G@2@@std@@AAEAAV01@IV<lambda_1>@?1??push_back@01@QAEXG@Z@G@Z 1003731d f i libcpmt:wlocale.obj
 0001:00036410       ??$_Reallocate_grow_by@V<lambda_1>@?1??push_back@?$basic_string@_WU?$char_traits@_W@std@@V?$allocator@_W@2@@std@@QAEX_W@Z@_W@?$basic_string@_WU?$char_traits@_W@std@@V?$allocator@_W@2@@std@@AAEAAV01@IV<lambda_1>@?1??push_back@01@QAEX_W@Z@_W@Z 10037410 f i libcpmt:wlocale.obj
 0001:00036503       ??$_Refancy@PAG$0A@@std@@YAPAGPAG@Z 10037503 f i libcpmt:wlocale.obj
 0001:0003650d       ??$_Refancy@PA_W$0A@@std@@YAPA_WPA_W@Z 1003750d f i libcpmt:wlocale.obj
 0001:00036517       ??$_Seek_wrapped@V?$ostreambuf_iterator@GU?$char_traits@G@std@@@std@@V12@@std@@YAXAAV?$ostreambuf_iterator@GU?$char_traits@G@std@@@0@$$QAV10@@Z 10037517 f i libcpmt:wlocale.obj
 0001:00036531       ??$_Seek_wrapped@V?$ostreambuf_iterator@_WU?$char_traits@_W@std@@@std@@V12@@std@@YAXAAV?$ostreambuf_iterator@_WU?$char_traits@_W@std@@@0@$$QAV10@@Z 10037531 f i libcpmt:wlocale.obj
 0001:0003654b       ??$_Unfancy@G@std@@YAPAGPAG@Z 1003754b f i libcpmt:wlocale.obj
 0001:00036555       ??$_Unfancy@_W@std@@YAPA_WPA_W@Z 10037555 f i libcpmt:wlocale.obj
 0001:0003655f       ??$_Voidify_iter@PAG@std@@YAPAXPAG@Z 1003755f f i libcpmt:wlocale.obj
 0001:00036569       ??$_Voidify_iter@PAPAG@std@@YAPAXPAPAG@Z 10037569 f i libcpmt:wlocale.obj
 0001:00036573       ??$_Voidify_iter@PAPA_W@std@@YAPAXPAPA_W@Z 10037573 f i libcpmt:wlocale.obj
 0001:0003657d       ??$_Voidify_iter@PA_W@std@@YAPAXPA_W@Z 1003757d f i libcpmt:wlocale.obj
 0001:00036587       ??$addressof@$$CBV?$_String_val@U?$_Simple_types@G@std@@@std@@@std@@YAPBV?$_String_val@U?$_Simple_types@G@std@@@0@ABV10@@Z 10037587 f i libcpmt:wlocale.obj
 0001:00036591       ??$addressof@$$CBV?$_String_val@U?$_Simple_types@_W@std@@@std@@@std@@YAPBV?$_String_val@U?$_Simple_types@_W@std@@@0@ABV10@@Z 10037591 f i libcpmt:wlocale.obj
 0001:0003659b       ??$addressof@$$CBV?$moneypunct@G$00@std@@@std@@YAPBV?$moneypunct@G$00@0@ABV10@@Z 1003759b f i libcpmt:wlocale.obj
 0001:000365a5       ??$addressof@$$CBV?$moneypunct@G$0A@@std@@@std@@YAPBV?$moneypunct@G$0A@@0@ABV10@@Z 100375a5 f i libcpmt:wlocale.obj
 0001:000365af       ??$addressof@$$CBV?$moneypunct@_W$00@std@@@std@@YAPBV?$moneypunct@_W$00@0@ABV10@@Z 100375af f i libcpmt:wlocale.obj
 0001:000365b9       ??$addressof@$$CBV?$moneypunct@_W$0A@@std@@@std@@YAPBV?$moneypunct@_W$0A@@0@ABV10@@Z 100375b9 f i libcpmt:wlocale.obj
 0001:000365c3       ??$addressof@PAG@std@@YAPAPAGAAPAG@Z 100375c3 f i libcpmt:wlocale.obj
 0001:000365cd       ??$addressof@PA_W@std@@YAPAPA_WAAPA_W@Z 100375cd f i libcpmt:wlocale.obj
 0001:000365d7       ??$addressof@V?$_String_val@U?$_Simple_types@G@std@@@std@@@std@@YAPAV?$_String_val@U?$_Simple_types@G@std@@@0@AAV10@@Z 100375d7 f i libcpmt:wlocale.obj
 0001:000365e1       ??$addressof@V?$_String_val@U?$_Simple_types@_W@std@@@std@@@std@@YAPAV?$_String_val@U?$_Simple_types@_W@std@@@0@AAV10@@Z 100375e1 f i libcpmt:wlocale.obj
 0001:000365eb       ??$addressof@V?$basic_string@GU?$char_traits@G@std@@V?$allocator@G@2@@std@@@std@@YAPAV?$basic_string@GU?$char_traits@G@std@@V?$allocator@G@2@@0@AAV10@@Z 100375eb f i libcpmt:wlocale.obj
 0001:000365f5       ??$addressof@V?$basic_string@_WU?$char_traits@_W@std@@V?$allocator@_W@2@@std@@@std@@YAPAV?$basic_string@_WU?$char_traits@_W@std@@V?$allocator@_W@2@@0@AAV10@@Z 100375f5 f i libcpmt:wlocale.obj
 0001:000365ff       ??$begin@$$CBD$0M@@std@@YAPBDAAY0M@$$CBD@Z 100375ff f i libcpmt:wlocale.obj
 0001:00036609       ??$construct_at@GABGX@std@@YAPAGQAGABG@Z 10037609 f i libcpmt:wlocale.obj
 0001:0003661e       ??$construct_at@PAGAAPAGX@std@@YAPAPAGQAPAGAAPAG@Z 1003761e f i libcpmt:wlocale.obj
 0001:00036630       ??$construct_at@PAGABQAGX@std@@YAPAPAGQAPAGABQAG@Z 10037630 f i libcpmt:wlocale.obj
 0001:00036642       ??$construct_at@PA_WAAPA_WX@std@@YAPAPA_WQAPA_WAAPA_W@Z 10037642 f i libcpmt:wlocale.obj
 0001:00036654       ??$construct_at@PA_WABQA_WX@std@@YAPAPA_WQAPA_WABQA_W@Z 10037654 f i libcpmt:wlocale.obj
 0001:00036666       ??$construct_at@_WAB_WX@std@@YAPA_WQA_WAB_W@Z 10037666 f i libcpmt:wlocale.obj
 0001:0003667b       ??$copy@PA_WV?$ostreambuf_iterator@GU?$char_traits@G@std@@@std@@@std@@YA?AV?$ostreambuf_iterator@GU?$char_traits@G@std@@@0@PA_W0V10@@Z 1003767b f i libcpmt:wlocale.obj
 0001:000366b2       ??$copy@PA_WV?$ostreambuf_iterator@_WU?$char_traits@_W@std@@@std@@@std@@YA?AV?$ostreambuf_iterator@_WU?$char_traits@_W@std@@@0@PA_W0V10@@Z 100376b2 f i libcpmt:wlocale.obj
 0001:000366e9       ??$end@$$CBD$0M@@std@@YAPBDAAY0M@$$CBD@Z 100376e9 f i libcpmt:wlocale.obj
 0001:000366f6       ??$forward@AAPAG@std@@YAAAPAGAAPAG@Z 100376f6 f i libcpmt:wlocale.obj
 0001:00036700       ??$forward@AAPA_W@std@@YAAAPA_WAAPA_W@Z 10037700 f i libcpmt:wlocale.obj
 0001:0003670a       ??$forward@ABG@std@@YAABGABG@Z 1003770a f i libcpmt:wlocale.obj
 0001:00036714       ??$forward@ABQAG@std@@YAABQAGABQAG@Z 10037714 f i libcpmt:wlocale.obj
 0001:0003671e       ??$forward@ABQA_W@std@@YAABQA_WABQA_W@Z 1003771e f i libcpmt:wlocale.obj
 0001:00036728       ??$forward@AB_W@std@@YAAB_WAB_W@Z 10037728 f i libcpmt:wlocale.obj
 0001:00036732       ??$forward@V?$allocator@D@std@@@std@@YA$$QAV?$allocator@D@0@AAV10@@Z 10037732 f i libcpmt:wlocale.obj
 0001:0003673c       ??$forward@V?$allocator@G@std@@@std@@YA$$QAV?$allocator@G@0@AAV10@@Z 1003773c f i libcpmt:wlocale.obj
 0001:00036746       ??$forward@V?$allocator@_W@std@@@std@@YA$$QAV?$allocator@_W@0@AAV10@@Z 10037746 f i libcpmt:wlocale.obj
 0001:00036750       ??$forward@V?$ostreambuf_iterator@GU?$char_traits@G@std@@@std@@@std@@YA$$QAV?$ostreambuf_iterator@GU?$char_traits@G@std@@@0@AAV10@@Z 10037750 f i libcpmt:wlocale.obj
 0001:0003675a       ??$forward@V?$ostreambuf_iterator@_WU?$char_traits@_W@std@@@std@@@std@@YA$$QAV?$ostreambuf_iterator@_WU?$char_traits@_W@std@@@0@AAV10@@Z 1003775a f i libcpmt:wlocale.obj
 0001:00036764       ??$move@AAV?$allocator@G@std@@@std@@YA$$QAV?$allocator@G@0@AAV10@@Z 10037764 f i libcpmt:wlocale.obj
 0001:0003676e       ??$move@AAV?$allocator@_W@std@@@std@@YA$$QAV?$allocator@_W@0@AAV10@@Z 1003776e f i libcpmt:wlocale.obj
 0001:00036778       ??$move@AAV?$basic_string@GU?$char_traits@G@std@@V?$allocator@G@2@@std@@@std@@YA$$QAV?$basic_string@GU?$char_traits@G@std@@V?$allocator@G@2@@0@AAV10@@Z 10037778 f i libcpmt:wlocale.obj
 0001:00036782       ??$move@AAV?$basic_string@_WU?$char_traits@_W@std@@V?$allocator@_W@2@@std@@@std@@YA$$QAV?$basic_string@_WU?$char_traits@_W@std@@V?$allocator@_W@2@@0@AAV10@@Z 10037782 f i libcpmt:wlocale.obj
 0001:0003678c       ??$use_facet@V?$codecvt@GDU_Mbstatet@@@std@@@std@@YAABV?$codecvt@GDU_Mbstatet@@@0@ABVlocale@0@@Z 1003778c f i libcpmt:wlocale.obj
 0001:00036846       ??$use_facet@V?$codecvt@_WDU_Mbstatet@@@std@@@std@@YAABV?$codecvt@_WDU_Mbstatet@@@0@ABVlocale@0@@Z 10037846 f i libcpmt:wlocale.obj
 0001:00036900       ??$use_facet@V?$collate@G@std@@@std@@YAABV?$collate@G@0@ABVlocale@0@@Z 10037900 f i libcpmt:wlocale.obj
 0001:000369ba       ??$use_facet@V?$collate@_W@std@@@std@@YAABV?$collate@_W@0@ABVlocale@0@@Z 100379ba f i libcpmt:wlocale.obj
 0001:00036a74       ??$use_facet@V?$ctype@G@std@@@std@@YAABV?$ctype@G@0@ABVlocale@0@@Z 10037a74 f i libcpmt:wlocale.obj
 0001:00036b2e       ??$use_facet@V?$ctype@_W@std@@@std@@YAABV?$ctype@_W@0@ABVlocale@0@@Z 10037b2e f i libcpmt:wlocale.obj
 0001:00036be8       ??$use_facet@V?$messages@G@std@@@std@@YAABV?$messages@G@0@ABVlocale@0@@Z 10037be8 f i libcpmt:wlocale.obj
 0001:00036ca2       ??$use_facet@V?$messages@_W@std@@@std@@YAABV?$messages@_W@0@ABVlocale@0@@Z 10037ca2 f i libcpmt:wlocale.obj
 0001:00036d5c       ??$use_facet@V?$money_get@GV?$istreambuf_iterator@GU?$char_traits@G@std@@@std@@@std@@@std@@YAABV?$money_get@GV?$istreambuf_iterator@GU?$char_traits@G@std@@@std@@@0@ABVlocale@0@@Z 10037d5c f i libcpmt:wlocale.obj
 0001:00036e16       ??$use_facet@V?$money_get@_WV?$istreambuf_iterator@_WU?$char_traits@_W@std@@@std@@@std@@@std@@YAABV?$money_get@_WV?$istreambuf_iterator@_WU?$char_traits@_W@std@@@std@@@0@ABVlocale@0@@Z 10037e16 f i libcpmt:wlocale.obj
 0001:00036ed0       ??$use_facet@V?$money_put@GV?$ostreambuf_iterator@GU?$char_traits@G@std@@@std@@@std@@@std@@YAABV?$money_put@GV?$ostreambuf_iterator@GU?$char_traits@G@std@@@std@@@0@ABVlocale@0@@Z 10037ed0 f i libcpmt:wlocale.obj
 0001:00036f8a       ??$use_facet@V?$money_put@_WV?$ostreambuf_iterator@_WU?$char_traits@_W@std@@@std@@@std@@@std@@YAABV?$money_put@_WV?$ostreambuf_iterator@_WU?$char_traits@_W@std@@@std@@@0@ABVlocale@0@@Z 10037f8a f i libcpmt:wlocale.obj
 0001:00037044       ??$use_facet@V?$moneypunct@G$00@std@@@std@@YAABV?$moneypunct@G$00@0@ABVlocale@0@@Z 10038044 f i libcpmt:wlocale.obj
 0001:000370fe       ??$use_facet@V?$moneypunct@G$0A@@std@@@std@@YAABV?$moneypunct@G$0A@@0@ABVlocale@0@@Z 100380fe f i libcpmt:wlocale.obj
 0001:000371b8       ??$use_facet@V?$moneypunct@_W$00@std@@@std@@YAABV?$moneypunct@_W$00@0@ABVlocale@0@@Z 100381b8 f i libcpmt:wlocale.obj
 0001:00037272       ??$use_facet@V?$moneypunct@_W$0A@@std@@@std@@YAABV?$moneypunct@_W$0A@@0@ABVlocale@0@@Z 10038272 f i libcpmt:wlocale.obj
 0001:0003732c       ??$use_facet@V?$num_get@GV?$istreambuf_iterator@GU?$char_traits@G@std@@@std@@@std@@@std@@YAABV?$num_get@GV?$istreambuf_iterator@GU?$char_traits@G@std@@@std@@@0@ABVlocale@0@@Z 1003832c f i libcpmt:wlocale.obj
 0001:000373e6       ??$use_facet@V?$num_get@_WV?$istreambuf_iterator@_WU?$char_traits@_W@std@@@std@@@std@@@std@@YAABV?$num_get@_WV?$istreambuf_iterator@_WU?$char_traits@_W@std@@@std@@@0@ABVlocale@0@@Z 100383e6 f i libcpmt:wlocale.obj
 0001:000374a0       ??$use_facet@V?$num_put@GV?$ostreambuf_iterator@GU?$char_traits@G@std@@@std@@@std@@@std@@YAABV?$num_put@GV?$ostreambuf_iterator@GU?$char_traits@G@std@@@std@@@0@ABVlocale@0@@Z 100384a0 f i libcpmt:wlocale.obj
 0001:0003755a       ??$use_facet@V?$num_put@_WV?$ostreambuf_iterator@_WU?$char_traits@_W@std@@@std@@@std@@@std@@YAABV?$num_put@_WV?$ostreambuf_iterator@_WU?$char_traits@_W@std@@@std@@@0@ABVlocale@0@@Z 1003855a f i libcpmt:wlocale.obj
 0001:00037614       ??$use_facet@V?$numpunct@G@std@@@std@@YAABV?$numpunct@G@0@ABVlocale@0@@Z 10038614 f i libcpmt:wlocale.obj
 0001:000376ce       ??$use_facet@V?$numpunct@_W@std@@@std@@YAABV?$numpunct@_W@0@ABVlocale@0@@Z 100386ce f i libcpmt:wlocale.obj
 0001:00037788       ??$use_facet@V?$time_get@GV?$istreambuf_iterator@GU?$char_traits@G@std@@@std@@@std@@@std@@YAABV?$time_get@GV?$istreambuf_iterator@GU?$char_traits@G@std@@@std@@@0@ABVlocale@0@@Z 10038788 f i libcpmt:wlocale.obj
 0001:00037842       ??$use_facet@V?$time_get@_WV?$istreambuf_iterator@_WU?$char_traits@_W@std@@@std@@@std@@@std@@YAABV?$time_get@_WV?$istreambuf_iterator@_WU?$char_traits@_W@std@@@std@@@0@ABVlocale@0@@Z 10038842 f i libcpmt:wlocale.obj
 0001:000378fc       ??$use_facet@V?$time_put@GV?$ostreambuf_iterator@GU?$char_traits@G@std@@@std@@@std@@@std@@YAABV?$time_put@GV?$ostreambuf_iterator@GU?$char_traits@G@std@@@std@@@0@ABVlocale@0@@Z 100388fc f i libcpmt:wlocale.obj
 0001:000379b6       ??$use_facet@V?$time_put@_WV?$ostreambuf_iterator@_WU?$char_traits@_W@std@@@std@@@std@@@std@@YAABV?$time_put@_WV?$ostreambuf_iterator@_WU?$char_traits@_W@std@@@std@@@0@ABVlocale@0@@Z 100389b6 f i libcpmt:wlocale.obj
 0001:00037a70       ??0?$_Mpunct@G@std@@QAE@ABV_Locinfo@1@I_N1@Z 10038a70 f i libcpmt:wlocale.obj
 0001:00037abb       ??0?$_Mpunct@_W@std@@QAE@ABV_Locinfo@1@I_N1@Z 10038abb f i libcpmt:wlocale.obj
 0001:00037b06       ??0?$_String_const_iterator@V?$_String_val@U?$_Simple_types@G@std@@@std@@@std@@QAE@PBGPBU_Container_base0@1@@Z 10038b06 f i libcpmt:wlocale.obj
 0001:00037b17       ??0?$_String_const_iterator@V?$_String_val@U?$_Simple_types@G@std@@@std@@@std@@QAE@XZ 10038b17 f i libcpmt:wlocale.obj
 0001:00037b1d       ??0?$_String_const_iterator@V?$_String_val@U?$_Simple_types@_W@std@@@std@@@std@@QAE@PB_WPBU_Container_base0@1@@Z 10038b1d f i libcpmt:wlocale.obj
 0001:00037b2e       ??0?$_String_const_iterator@V?$_String_val@U?$_Simple_types@_W@std@@@std@@@std@@QAE@XZ 10038b2e f i libcpmt:wlocale.obj
 0001:00037b34       ??0?$_String_iterator@V?$_String_val@U?$_Simple_types@G@std@@@std@@@std@@QAE@PBGPBU_Container_base0@1@@Z 10038b34 f i libcpmt:wlocale.obj
 0001:00037b45       ??0?$_String_iterator@V?$_String_val@U?$_Simple_types@_W@std@@@std@@@std@@QAE@PB_WPBU_Container_base0@1@@Z 10038b45 f i libcpmt:wlocale.obj
 0001:00037b56       ??0?$_String_val@U?$_Simple_types@G@std@@@std@@QAE@XZ 10038b56 f i libcpmt:wlocale.obj
 0001:00037b66       ??0?$_String_val@U?$_Simple_types@_W@std@@@std@@QAE@XZ 10038b66 f i libcpmt:wlocale.obj
 0001:00037b76       ??0?$allocator@G@std@@QAE@XZ 10038b76 f i libcpmt:wlocale.obj
 0001:00037b79       ??0?$allocator@_W@std@@QAE@XZ 10038b79 f i libcpmt:wlocale.obj
 0001:00037b7c       ??0?$basic_string@DU?$char_traits@D@std@@V?$allocator@D@2@@std@@QAE@$$QAV01@@Z 10038b7c f i libcpmt:wlocale.obj
 0001:00037bf6       ??0?$basic_string@GU?$char_traits@G@std@@V?$allocator@G@2@@std@@QAE@$$QAV01@@Z 10038bf6 f i libcpmt:wlocale.obj
 0001:00037c74       ??0?$basic_string@GU?$char_traits@G@std@@V?$allocator@G@2@@std@@QAE@ABV01@@Z 10038c74 f i libcpmt:wlocale.obj
 0001:00037c9a       ??0?$basic_string@GU?$char_traits@G@std@@V?$allocator@G@2@@std@@QAE@IG@Z 10038c9a f i libcpmt:wlocale.obj
 0001:00037ce2       ??0?$basic_string@GU?$char_traits@G@std@@V?$allocator@G@2@@std@@QAE@QBG@Z 10038ce2 f i libcpmt:wlocale.obj
 0001:00037d26       ??0?$basic_string@GU?$char_traits@G@std@@V?$allocator@G@2@@std@@QAE@QBGI@Z 10038d26 f i libcpmt:wlocale.obj
 0001:00037d6e       ??0?$basic_string@GU?$char_traits@G@std@@V?$allocator@G@2@@std@@QAE@XZ 10038d6e f i libcpmt:wlocale.obj
 0001:00037dc3       ??0?$basic_string@_WU?$char_traits@_W@std@@V?$allocator@_W@2@@std@@QAE@$$QAV01@@Z 10038dc3 f i libcpmt:wlocale.obj
 0001:00037e41       ??0?$basic_string@_WU?$char_traits@_W@std@@V?$allocator@_W@2@@std@@QAE@ABV01@@Z 10038e41 f i libcpmt:wlocale.obj
 0001:00037e67       ??0?$basic_string@_WU?$char_traits@_W@std@@V?$allocator@_W@2@@std@@QAE@I_W@Z 10038e67 f i libcpmt:wlocale.obj
 0001:00037eaf       ??0?$basic_string@_WU?$char_traits@_W@std@@V?$allocator@_W@2@@std@@QAE@QB_W@Z 10038eaf f i libcpmt:wlocale.obj
 0001:00037ef3       ??0?$basic_string@_WU?$char_traits@_W@std@@V?$allocator@_W@2@@std@@QAE@QB_WI@Z 10038ef3 f i libcpmt:wlocale.obj
 0001:00037f3b       ??0?$basic_string@_WU?$char_traits@_W@std@@V?$allocator@_W@2@@std@@QAE@XZ 10038f3b f i libcpmt:wlocale.obj
 0001:00037f90       ??0?$codecvt@GDU_Mbstatet@@@std@@QAE@ABV_Locinfo@1@I@Z 10038f90 f i libcpmt:wlocale.obj
 0001:00037fd4       ??0?$codecvt@_WDU_Mbstatet@@@std@@QAE@ABV_Locinfo@1@I@Z 10038fd4 f i libcpmt:wlocale.obj
 0001:00038018       ??0?$collate@G@std@@QAE@ABV_Locinfo@1@I@Z 10039018 f i libcpmt:wlocale.obj
 0001:0003804a       ??0?$collate@_W@std@@QAE@ABV_Locinfo@1@I@Z 1003904a f i libcpmt:wlocale.obj
 0001:0003807c       ??0?$ctype@G@std@@QAE@ABV_Locinfo@1@I@Z 1003907c f i libcpmt:wlocale.obj
 0001:000380aa       ??0?$ctype@_W@std@@QAE@ABV_Locinfo@1@I@Z 100390aa f i libcpmt:wlocale.obj
 0001:000380d8       ??0?$messages@G@std@@QAE@ABV_Locinfo@1@I@Z 100390d8 f i libcpmt:wlocale.obj
 0001:000380f7       ??0?$messages@_W@std@@QAE@ABV_Locinfo@1@I@Z 100390f7 f i libcpmt:wlocale.obj
 0001:00038116       ??0?$money_get@GV?$istreambuf_iterator@GU?$char_traits@G@std@@@std@@@std@@QAE@ABV_Locinfo@1@I@Z 10039116 f i libcpmt:wlocale.obj
 0001:00038135       ??0?$money_get@_WV?$istreambuf_iterator@_WU?$char_traits@_W@std@@@std@@@std@@QAE@ABV_Locinfo@1@I@Z 10039135 f i libcpmt:wlocale.obj
 0001:00038154       ??0?$money_put@GV?$ostreambuf_iterator@GU?$char_traits@G@std@@@std@@@std@@QAE@ABV_Locinfo@1@I@Z 10039154 f i libcpmt:wlocale.obj
 0001:00038173       ??0?$money_put@_WV?$ostreambuf_iterator@_WU?$char_traits@_W@std@@@std@@@std@@QAE@ABV_Locinfo@1@I@Z 10039173 f i libcpmt:wlocale.obj
 0001:00038192       ??0?$moneypunct@G$00@std@@QAE@ABV_Locinfo@1@I_N@Z 10039192 f i libcpmt:wlocale.obj
 0001:000381c2       ??0?$moneypunct@G$0A@@std@@QAE@ABV_Locinfo@1@I_N@Z 100391c2 f i libcpmt:wlocale.obj
 0001:000381f2       ??0?$moneypunct@_W$00@std@@QAE@ABV_Locinfo@1@I_N@Z 100391f2 f i libcpmt:wlocale.obj
 0001:00038222       ??0?$moneypunct@_W$0A@@std@@QAE@ABV_Locinfo@1@I_N@Z 10039222 f i libcpmt:wlocale.obj
 0001:00038252       ??0?$num_get@GV?$istreambuf_iterator@GU?$char_traits@G@std@@@std@@@std@@QAE@ABV_Locinfo@1@I@Z 10039252 f i libcpmt:wlocale.obj
 0001:00038271       ??0?$num_get@_WV?$istreambuf_iterator@_WU?$char_traits@_W@std@@@std@@@std@@QAE@ABV_Locinfo@1@I@Z 10039271 f i libcpmt:wlocale.obj
 0001:00038290       ??0?$num_put@GV?$ostreambuf_iterator@GU?$char_traits@G@std@@@std@@@std@@QAE@ABV_Locinfo@1@I@Z 10039290 f i libcpmt:wlocale.obj
 0001:000382af       ??0?$num_put@_WV?$ostreambuf_iterator@_WU?$char_traits@_W@std@@@std@@@std@@QAE@ABV_Locinfo@1@I@Z 100392af f i libcpmt:wlocale.obj
 0001:000382ce       ??0?$numpunct@G@std@@QAE@ABV_Locinfo@1@I_N@Z 100392ce f i libcpmt:wlocale.obj
 0001:00038311       ??0?$numpunct@_W@std@@QAE@ABV_Locinfo@1@I_N@Z 10039311 f i libcpmt:wlocale.obj
 0001:00038354       ??0?$time_get@GV?$istreambuf_iterator@GU?$char_traits@G@std@@@std@@@std@@QAE@ABV_Locinfo@1@I@Z 10039354 f i libcpmt:wlocale.obj
 0001:00038393       ??0?$time_get@_WV?$istreambuf_iterator@_WU?$char_traits@_W@std@@@std@@@std@@QAE@ABV_Locinfo@1@I@Z 10039393 f i libcpmt:wlocale.obj
 0001:000383d2       ??0?$time_put@GV?$ostreambuf_iterator@GU?$char_traits@G@std@@@std@@@std@@QAE@ABV_Locinfo@1@I@Z 100393d2 f i libcpmt:wlocale.obj
 0001:00038405       ??0?$time_put@_WV?$ostreambuf_iterator@_WU?$char_traits@_W@std@@@std@@@std@@QAE@ABV_Locinfo@1@I@Z 10039405 f i libcpmt:wlocale.obj
 0001:00038438       ??0_Bxty@?$_String_val@U?$_Simple_types@G@std@@@std@@QAE@XZ 10039438 f i libcpmt:wlocale.obj
 0001:0003843e       ??0_Bxty@?$_String_val@U?$_Simple_types@_W@std@@@std@@QAE@XZ 1003943e f i libcpmt:wlocale.obj
 0001:00038444       ??0_Timevec@std@@QAE@PAX@Z 10039444 f i libcpmt:wlocale.obj
 0001:00038455       ??0messages_base@std@@QAE@I@Z 10039455 f i libcpmt:wlocale.obj
 0001:00038474       ??0money_base@std@@QAE@I@Z 10039474 f i libcpmt:wlocale.obj
 0001:00038493       ??0time_base@std@@QAE@I@Z  10039493 f i libcpmt:wlocale.obj
 0001:000384b2       ??1?$_Compressed_pair@V?$allocator@G@std@@V?$_String_val@U?$_Simple_types@G@std@@@2@$00@std@@QAE@XZ 100394b2 f i libcpmt:wlocale.obj
 0001:000384b5       ??1?$_Compressed_pair@V?$allocator@_W@std@@V?$_String_val@U?$_Simple_types@_W@std@@@2@$00@std@@QAE@XZ 100394b5 f i libcpmt:wlocale.obj
 0001:000384b8       ??1?$_Mpunct@G@std@@MAE@XZ 100394b8 f i libcpmt:wlocale.obj
 0001:000384d3       ??1?$_Mpunct@_W@std@@MAE@XZ 100394d3 f i libcpmt:wlocale.obj
 0001:000384ee       ??1?$_String_val@U?$_Simple_types@G@std@@@std@@QAE@XZ 100394ee f i libcpmt:wlocale.obj
 0001:000384f1       ??1?$_String_val@U?$_Simple_types@_W@std@@@std@@QAE@XZ 100394f1 f i libcpmt:wlocale.obj
 0001:000384f4       ??1?$_Tidy_guard@V?$_Mpunct@G@std@@@std@@QAE@XZ 100394f4 f i libcpmt:wlocale.obj
 0001:00038501       ??1?$_Tidy_guard@V?$_Mpunct@_W@std@@@std@@QAE@XZ 10039501 f i libcpmt:wlocale.obj
 0001:0003850e       ??1?$_Tidy_guard@V?$numpunct@G@std@@@std@@QAE@XZ 1003950e f i libcpmt:wlocale.obj
 0001:0003851b       ??1?$_Tidy_guard@V?$numpunct@_W@std@@@std@@QAE@XZ 1003951b f i libcpmt:wlocale.obj
 0001:00038528       ??1?$_Tidy_guard@V?$time_get@GV?$istreambuf_iterator@GU?$char_traits@G@std@@@std@@@std@@@std@@QAE@XZ 10039528 f i libcpmt:wlocale.obj
 0001:00038535       ??1?$_Tidy_guard@V?$time_get@_WV?$istreambuf_iterator@_WU?$char_traits@_W@std@@@std@@@std@@@std@@QAE@XZ 10039535 f i libcpmt:wlocale.obj
 0001:00038542       ??1?$basic_string@GU?$char_traits@G@std@@V?$allocator@G@2@@std@@QAE@XZ 10039542 f i libcpmt:wlocale.obj
 0001:00038547       ??1?$basic_string@_WU?$char_traits@_W@std@@V?$allocator@_W@2@@std@@QAE@XZ 10039547 f i libcpmt:wlocale.obj
 0001:0003854c       ??1?$codecvt@GDU_Mbstatet@@@std@@MAE@XZ 1003954c f i libcpmt:wlocale.obj
 0001:00038553       ??1?$codecvt@_WDU_Mbstatet@@@std@@MAE@XZ 10039553 f i libcpmt:wlocale.obj
 0001:0003855a       ??1?$collate@G@std@@MAE@XZ 1003955a f i libcpmt:wlocale.obj
 0001:0003857a       ??1?$collate@_W@std@@MAE@XZ 1003957a f i libcpmt:wlocale.obj
 0001:0003859a       ??1?$ctype@G@std@@MAE@XZ   1003959a f i libcpmt:wlocale.obj
 0001:000385cd       ??1?$ctype@_W@std@@MAE@XZ  100395cd f i libcpmt:wlocale.obj
 0001:00038600       ??1?$messages@G@std@@MAE@XZ 10039600 f i libcpmt:wlocale.obj
 0001:00038607       ??1?$messages@_W@std@@MAE@XZ 10039607 f i libcpmt:wlocale.obj
 0001:0003860e       ??1?$money_get@GV?$istreambuf_iterator@GU?$char_traits@G@std@@@std@@@std@@MAE@XZ 1003960e f i libcpmt:wlocale.obj
 0001:00038615       ??1?$money_get@_WV?$istreambuf_iterator@_WU?$char_traits@_W@std@@@std@@@std@@MAE@XZ 10039615 f i libcpmt:wlocale.obj
 0001:0003861c       ??1?$money_put@GV?$ostreambuf_iterator@GU?$char_traits@G@std@@@std@@@std@@MAE@XZ 1003961c f i libcpmt:wlocale.obj
 0001:00038623       ??1?$money_put@_WV?$ostreambuf_iterator@_WU?$char_traits@_W@std@@@std@@@std@@MAE@XZ 10039623 f i libcpmt:wlocale.obj
 0001:0003862a       ??1?$moneypunct@G$00@std@@MAE@XZ 1003962a f i libcpmt:wlocale.obj
 0001:00038645       ??1?$moneypunct@G$0A@@std@@MAE@XZ 10039645 f i libcpmt:wlocale.obj
 0001:00038660       ??1?$moneypunct@_W$00@std@@MAE@XZ 10039660 f i libcpmt:wlocale.obj
 0001:0003867b       ??1?$moneypunct@_W$0A@@std@@MAE@XZ 1003967b f i libcpmt:wlocale.obj
 0001:00038696       ??1?$num_get@GV?$istreambuf_iterator@GU?$char_traits@G@std@@@std@@@std@@MAE@XZ 10039696 f i libcpmt:wlocale.obj
 0001:0003869d       ??1?$num_get@_WV?$istreambuf_iterator@_WU?$char_traits@_W@std@@@std@@@std@@MAE@XZ 1003969d f i libcpmt:wlocale.obj
 0001:000386a4       ??1?$num_put@GV?$ostreambuf_iterator@GU?$char_traits@G@std@@@std@@@std@@MAE@XZ 100396a4 f i libcpmt:wlocale.obj
 0001:000386ab       ??1?$num_put@_WV?$ostreambuf_iterator@_WU?$char_traits@_W@std@@@std@@@std@@MAE@XZ 100396ab f i libcpmt:wlocale.obj
 0001:000386b2       ??1?$numpunct@G@std@@MAE@XZ 100396b2 f i libcpmt:wlocale.obj
 0001:000386cd       ??1?$numpunct@_W@std@@MAE@XZ 100396cd f i libcpmt:wlocale.obj
 0001:000386e8       ??1?$time_get@GV?$istreambuf_iterator@GU?$char_traits@G@std@@@std@@@std@@MAE@XZ 100396e8 f i libcpmt:wlocale.obj
 0001:00038703       ??1?$time_get@_WV?$istreambuf_iterator@_WU?$char_traits@_W@std@@@std@@@std@@MAE@XZ 10039703 f i libcpmt:wlocale.obj
 0001:0003871e       ??1?$time_put@GV?$ostreambuf_iterator@GU?$char_traits@G@std@@@std@@@std@@MAE@XZ 1003971e f i libcpmt:wlocale.obj
 0001:0003873e       ??1?$time_put@_WV?$ostreambuf_iterator@_WU?$char_traits@_W@std@@@std@@@std@@MAE@XZ 1003973e f i libcpmt:wlocale.obj
 0001:0003875e       ??1_Bxty@?$_String_val@U?$_Simple_types@G@std@@@std@@QAE@XZ 1003975e f i libcpmt:wlocale.obj
 0001:00038761       ??1_Bxty@?$_String_val@U?$_Simple_types@_W@std@@@std@@QAE@XZ 10039761 f i libcpmt:wlocale.obj
 0001:00038764       ??1_Timevec@std@@QAE@XZ    10039764 f i libcpmt:wlocale.obj
 0001:0003876f       ??1messages_base@std@@UAE@XZ 1003976f f i libcpmt:wlocale.obj
 0001:00038776       ??1money_base@std@@UAE@XZ  10039776 f i libcpmt:wlocale.obj
 0001:0003877d       ??1time_base@std@@UAE@XZ   1003977d f i libcpmt:wlocale.obj
 0001:00038784       ??4?$_Yarn@_W@std@@QAEAAV01@PB_W@Z 10039784 f i libcpmt:wlocale.obj
 0001:000387f7       ??4?$basic_string@GU?$char_traits@G@std@@V?$allocator@G@2@@std@@QAEAAV01@$$QAV01@@Z 100397f7 f i libcpmt:wlocale.obj
 0001:00038821       ??4?$basic_string@_WU?$char_traits@_W@std@@V?$allocator@_W@2@@std@@QAEAAV01@$$QAV01@@Z 10039821 f i libcpmt:wlocale.obj
 0001:0003884b       ??4?$ostreambuf_iterator@GU?$char_traits@G@std@@@std@@QAEAAV01@G@Z 1003984b f i libcpmt:wlocale.obj
 0001:0003887e       ??4?$ostreambuf_iterator@_WU?$char_traits@_W@std@@@std@@QAEAAV01@_W@Z 1003987e f i libcpmt:wlocale.obj
 0001:000388b1       ??4_Timevec@std@@QAEAAV01@ABV01@@Z 100398b1 f i libcpmt:wlocale.obj
 0001:000388df       ??8?$_String_const_iterator@V?$_String_val@U?$_Simple_types@G@std@@@std@@@std@@QBE_NABV01@@Z 100398df f i libcpmt:wlocale.obj
 0001:000388f4       ??8?$_String_const_iterator@V?$_String_val@U?$_Simple_types@_W@std@@@std@@@std@@QBE_NABV01@@Z 100398f4 f i libcpmt:wlocale.obj
 0001:00038909       ??A?$basic_string@GU?$char_traits@G@std@@V?$allocator@G@2@@std@@QAEAAGI@Z 10039909 f i libcpmt:wlocale.obj
 0001:00038923       ??A?$basic_string@GU?$char_traits@G@std@@V?$allocator@G@2@@std@@QBEABGI@Z 10039923 f i libcpmt:wlocale.obj
 0001:0003893d       ??A?$basic_string@_WU?$char_traits@_W@std@@V?$allocator@_W@2@@std@@QAEAA_WI@Z 1003993d f i libcpmt:wlocale.obj
 0001:00038957       ??A?$basic_string@_WU?$char_traits@_W@std@@V?$allocator@_W@2@@std@@QBEAB_WI@Z 10039957 f i libcpmt:wlocale.obj
 0001:00038971       ??D?$_String_const_iterator@V?$_String_val@U?$_Simple_types@G@std@@@std@@@std@@QBEABGXZ 10039971 f i libcpmt:wlocale.obj
 0001:00038974       ??D?$_String_const_iterator@V?$_String_val@U?$_Simple_types@_W@std@@@std@@@std@@QBEAB_WXZ 10039974 f i libcpmt:wlocale.obj
 0001:00038977       ??D?$_String_iterator@V?$_String_val@U?$_Simple_types@G@std@@@std@@@std@@QBEAAGXZ 10039977 f i libcpmt:wlocale.obj
 0001:0003897a       ??D?$_String_iterator@V?$_String_val@U?$_Simple_types@_W@std@@@std@@@std@@QBEAA_WXZ 1003997a f i libcpmt:wlocale.obj
 0001:0003897d       ??D?$istreambuf_iterator@GU?$char_traits@G@std@@@std@@QBEGXZ 1003997d f i libcpmt:wlocale.obj
 0001:00038996       ??D?$istreambuf_iterator@_WU?$char_traits@_W@std@@@std@@QBE_WXZ 10039996 f i libcpmt:wlocale.obj
 0001:000389af       ??D?$ostreambuf_iterator@GU?$char_traits@G@std@@@std@@QAEAAV01@XZ 100399af f i libcpmt:wlocale.obj
 0001:000389b2       ??D?$ostreambuf_iterator@_WU?$char_traits@_W@std@@@std@@QAEAAV01@XZ 100399b2 f i libcpmt:wlocale.obj
 0001:000389b5       ??E?$_String_const_iterator@V?$_String_val@U?$_Simple_types@G@std@@@std@@@std@@QAEAAV01@XZ 100399b5 f i libcpmt:wlocale.obj
 0001:000389bb       ??E?$_String_const_iterator@V?$_String_val@U?$_Simple_types@_W@std@@@std@@@std@@QAEAAV01@XZ 100399bb f i libcpmt:wlocale.obj
 0001:000389c1       ??E?$_String_iterator@V?$_String_val@U?$_Simple_types@G@std@@@std@@@std@@QAEAAV01@XZ 100399c1 f i libcpmt:wlocale.obj
 0001:000389c7       ??E?$_String_iterator@V?$_String_val@U?$_Simple_types@_W@std@@@std@@@std@@QAEAAV01@XZ 100399c7 f i libcpmt:wlocale.obj
 0001:000389cd       ??E?$istreambuf_iterator@GU?$char_traits@G@std@@@std@@QAEAAV01@XZ 100399cd f i libcpmt:wlocale.obj
 0001:000389dc       ??E?$istreambuf_iterator@_WU?$char_traits@_W@std@@@std@@QAEAAV01@XZ 100399dc f i libcpmt:wlocale.obj
 0001:000389eb       ??E?$ostreambuf_iterator@GU?$char_traits@G@std@@@std@@QAEAAV01@H@Z 100399eb f i libcpmt:wlocale.obj
 0001:000389f0       ??E?$ostreambuf_iterator@GU?$char_traits@G@std@@@std@@QAEAAV01@XZ 100399f0 f i libcpmt:wlocale.obj
 0001:000389f3       ??E?$ostreambuf_iterator@_WU?$char_traits@_W@std@@@std@@QAEAAV01@H@Z 100399f3 f i libcpmt:wlocale.obj
 0001:000389f8       ??E?$ostreambuf_iterator@_WU?$char_traits@_W@std@@@std@@QAEAAV01@XZ 100399f8 f i libcpmt:wlocale.obj
 0001:000389fb       ??G?$_String_iterator@V?$_String_val@U?$_Simple_types@G@std@@@std@@@std@@QBE?AV01@H@Z 100399fb f i libcpmt:wlocale.obj
 0001:00038a15       ??G?$_String_iterator@V?$_String_val@U?$_Simple_types@_W@std@@@std@@@std@@QBE?AV01@H@Z 10039a15 f i libcpmt:wlocale.obj
 0001:00038a2f       ??H?$_String_iterator@V?$_String_val@U?$_Simple_types@G@std@@@std@@@std@@QBE?AV01@H@Z 10039a2f f i libcpmt:wlocale.obj
 0001:00038a48       ??H?$_String_iterator@V?$_String_val@U?$_Simple_types@_W@std@@@std@@@std@@QBE?AV01@H@Z 10039a48 f i libcpmt:wlocale.obj
 0001:00038a61       ??R<lambda_1>@?1??append@?$basic_string@GU?$char_traits@G@std@@V?$allocator@G@2@@std@@QAEAAV23@IG@Z@QBE@QAGQBGIIG@Z 10039a61 f i libcpmt:wlocale.obj
 0001:00038aac       ??R<lambda_1>@?1??append@?$basic_string@GU?$char_traits@G@std@@V?$allocator@G@2@@std@@QAEAAV23@QBGI@Z@QBE@QAG0I0I@Z 10039aac f i libcpmt:wlocale.obj
 0001:00038afa       ??R<lambda_1>@?1??append@?$basic_string@_WU?$char_traits@_W@std@@V?$allocator@_W@2@@std@@QAEAAV23@I_W@Z@QBE@QA_WQB_WII0@Z 10039afa f i libcpmt:wlocale.obj
 0001:00038b45       ??R<lambda_1>@?1??append@?$basic_string@_WU?$char_traits@_W@std@@V?$allocator@_W@2@@std@@QAEAAV23@QB_WI@Z@QBE@QA_W0I0I@Z 10039b45 f i libcpmt:wlocale.obj
 0001:00038b93       ??R<lambda_1>@?1??assign@?$basic_string@GU?$char_traits@G@std@@V?$allocator@G@2@@std@@QAEAAV23@IG@Z@QBE@QAGIG@Z 10039b93 f i libcpmt:wlocale.obj
 0001:00038bc0       ??R<lambda_1>@?1??assign@?$basic_string@GU?$char_traits@G@std@@V?$allocator@G@2@@std@@QAEAAV23@QBGI@Z@QBE@QAGI0@Z 10039bc0 f i libcpmt:wlocale.obj
 0001:00038bf0       ??R<lambda_1>@?1??assign@?$basic_string@_WU?$char_traits@_W@std@@V?$allocator@_W@2@@std@@QAEAAV23@I_W@Z@QBE@QA_WI0@Z 10039bf0 f i libcpmt:wlocale.obj
 0001:00038c1d       ??R<lambda_1>@?1??assign@?$basic_string@_WU?$char_traits@_W@std@@V?$allocator@_W@2@@std@@QAEAAV23@QB_WI@Z@QBE@QA_WI0@Z 10039c1d f i libcpmt:wlocale.obj
 0001:00038c4d       ??R<lambda_1>@?1??insert@?$basic_string@GU?$char_traits@G@std@@V?$allocator@G@2@@std@@QAEAAV23@IIG@Z@QBE@QAGQBGIIIG@Z 10039c4d f i libcpmt:wlocale.obj
 0001:00038cb4       ??R<lambda_1>@?1??insert@?$basic_string@_WU?$char_traits@_W@std@@V?$allocator@_W@2@@std@@QAEAAV23@II_W@Z@QBE@QA_WQB_WIII0@Z 10039cb4 f i libcpmt:wlocale.obj
 0001:00038d1b       ??R<lambda_1>@?1??push_back@?$basic_string@GU?$char_traits@G@std@@V?$allocator@G@2@@std@@QAEXG@Z@QBE@QAGQBGIG@Z 10039d1b f i libcpmt:wlocale.obj
 0001:00038d57       ??R<lambda_1>@?1??push_back@?$basic_string@_WU?$char_traits@_W@std@@V?$allocator@_W@2@@std@@QAEX_W@Z@QBE@QA_WQB_WI0@Z 10039d57 f i libcpmt:wlocale.obj
 0001:00038d93       ??Y?$_String_const_iterator@V?$_String_val@U?$_Simple_types@G@std@@@std@@@std@@QAEAAV01@H@Z 10039d93 f i libcpmt:wlocale.obj
 0001:00038da7       ??Y?$_String_const_iterator@V?$_String_val@U?$_Simple_types@_W@std@@@std@@@std@@QAEAAV01@H@Z 10039da7 f i libcpmt:wlocale.obj
 0001:00038dbb       ??Y?$_String_iterator@V?$_String_val@U?$_Simple_types@G@std@@@std@@@std@@QAEAAV01@H@Z 10039dbb f i libcpmt:wlocale.obj
 0001:00038dcf       ??Y?$_String_iterator@V?$_String_val@U?$_Simple_types@_W@std@@@std@@@std@@QAEAAV01@H@Z 10039dcf f i libcpmt:wlocale.obj
 0001:00038de3       ??Y?$basic_string@DU?$char_traits@D@std@@V?$allocator@D@2@@std@@QAEAAV01@D@Z 10039de3 f i libcpmt:wlocale.obj
 0001:00038dfd       ??Y?$basic_string@GU?$char_traits@G@std@@V?$allocator@G@2@@std@@QAEAAV01@ABV01@@Z 10039dfd f i libcpmt:wlocale.obj
 0001:00038e08       ??Y?$basic_string@_WU?$char_traits@_W@std@@V?$allocator@_W@2@@std@@QAEAAV01@ABV01@@Z 10039e08 f i libcpmt:wlocale.obj
 0001:00038e13       ??Z?$_String_const_iterator@V?$_String_val@U?$_Simple_types@G@std@@@std@@@std@@QAEAAV01@H@Z 10039e13 f i libcpmt:wlocale.obj
 0001:00038e29       ??Z?$_String_const_iterator@V?$_String_val@U?$_Simple_types@_W@std@@@std@@@std@@QAEAAV01@H@Z 10039e29 f i libcpmt:wlocale.obj
 0001:00038e3f       ??Z?$_String_iterator@V?$_String_val@U?$_Simple_types@G@std@@@std@@@std@@QAEAAV01@H@Z 10039e3f f i libcpmt:wlocale.obj
 0001:00038e55       ??Z?$_String_iterator@V?$_String_val@U?$_Simple_types@_W@std@@@std@@@std@@QAEAAV01@H@Z 10039e55 f i libcpmt:wlocale.obj
 0001:00038e6b       ??_E?$_Mpunct@G@std@@MAEPAXI@Z 10039e6b f i libcpmt:wlocale.obj
 0001:00038e6b       ??_G?$_Mpunct@G@std@@MAEPAXI@Z 10039e6b f i libcpmt:wlocale.obj
 0001:00038ea4       ??_E?$_Mpunct@_W@std@@MAEPAXI@Z 10039ea4 f i libcpmt:wlocale.obj
 0001:00038ea4       ??_G?$_Mpunct@_W@std@@MAEPAXI@Z 10039ea4 f i libcpmt:wlocale.obj
 0001:00038edd       ??_E?$codecvt@GDU_Mbstatet@@@std@@MAEPAXI@Z 10039edd f i libcpmt:wlocale.obj
 0001:00038edd       ??_G?$codecvt@GDU_Mbstatet@@@std@@MAEPAXI@Z 10039edd f i libcpmt:wlocale.obj
 0001:00038f08       ??_E?$codecvt@_WDU_Mbstatet@@@std@@MAEPAXI@Z 10039f08 f i libcpmt:wlocale.obj
 0001:00038f08       ??_G?$codecvt@_WDU_Mbstatet@@@std@@MAEPAXI@Z 10039f08 f i libcpmt:wlocale.obj
 0001:00038f33       ??_E?$collate@G@std@@MAEPAXI@Z 10039f33 f i libcpmt:wlocale.obj
 0001:00038f33       ??_G?$collate@G@std@@MAEPAXI@Z 10039f33 f i libcpmt:wlocale.obj
 0001:00038f5d       ??_E?$collate@_W@std@@MAEPAXI@Z 10039f5d f i libcpmt:wlocale.obj
 0001:00038f5d       ??_G?$collate@_W@std@@MAEPAXI@Z 10039f5d f i libcpmt:wlocale.obj
 0001:00038f87       ??_G?$ctype@G@std@@MAEPAXI@Z 10039f87 f i libcpmt:wlocale.obj
 0001:00038f87       ??_E?$ctype@G@std@@MAEPAXI@Z 10039f87 f i libcpmt:wlocale.obj
 0001:00038fb1       ??_G?$ctype@_W@std@@MAEPAXI@Z 10039fb1 f i libcpmt:wlocale.obj
 0001:00038fb1       ??_E?$ctype@_W@std@@MAEPAXI@Z 10039fb1 f i libcpmt:wlocale.obj
 0001:00038fdb       ??_E?$messages@G@std@@MAEPAXI@Z 10039fdb f i libcpmt:wlocale.obj
 0001:00038fdb       ??_G?$messages@G@std@@MAEPAXI@Z 10039fdb f i libcpmt:wlocale.obj
 0001:00039006       ??_G?$messages@_W@std@@MAEPAXI@Z 1003a006 f i libcpmt:wlocale.obj
 0001:00039006       ??_E?$messages@_W@std@@MAEPAXI@Z 1003a006 f i libcpmt:wlocale.obj
 0001:00039031       ??_G?$money_get@GV?$istreambuf_iterator@GU?$char_traits@G@std@@@std@@@std@@MAEPAXI@Z 1003a031 f i libcpmt:wlocale.obj
 0001:00039031       ??_E?$money_get@GV?$istreambuf_iterator@GU?$char_traits@G@std@@@std@@@std@@MAEPAXI@Z 1003a031 f i libcpmt:wlocale.obj
 0001:0003905c       ??_G?$money_get@_WV?$istreambuf_iterator@_WU?$char_traits@_W@std@@@std@@@std@@MAEPAXI@Z 1003a05c f i libcpmt:wlocale.obj
 0001:0003905c       ??_E?$money_get@_WV?$istreambuf_iterator@_WU?$char_traits@_W@std@@@std@@@std@@MAEPAXI@Z 1003a05c f i libcpmt:wlocale.obj
 0001:00039087       ??_E?$money_put@GV?$ostreambuf_iterator@GU?$char_traits@G@std@@@std@@@std@@MAEPAXI@Z 1003a087 f i libcpmt:wlocale.obj
 0001:00039087       ??_G?$money_put@GV?$ostreambuf_iterator@GU?$char_traits@G@std@@@std@@@std@@MAEPAXI@Z 1003a087 f i libcpmt:wlocale.obj
 0001:000390b2       ??_E?$money_put@_WV?$ostreambuf_iterator@_WU?$char_traits@_W@std@@@std@@@std@@MAEPAXI@Z 1003a0b2 f i libcpmt:wlocale.obj
 0001:000390b2       ??_G?$money_put@_WV?$ostreambuf_iterator@_WU?$char_traits@_W@std@@@std@@@std@@MAEPAXI@Z 1003a0b2 f i libcpmt:wlocale.obj
 0001:000390dd       ??_G?$moneypunct@G$00@std@@MAEPAXI@Z 1003a0dd f i libcpmt:wlocale.obj
 0001:000390dd       ??_E?$moneypunct@G$00@std@@MAEPAXI@Z 1003a0dd f i libcpmt:wlocale.obj
 0001:00039116       ??_E?$moneypunct@G$0A@@std@@MAEPAXI@Z 1003a116 f i libcpmt:wlocale.obj
 0001:00039116       ??_G?$moneypunct@G$0A@@std@@MAEPAXI@Z 1003a116 f i libcpmt:wlocale.obj
 0001:0003914f       ??_E?$moneypunct@_W$00@std@@MAEPAXI@Z 1003a14f f i libcpmt:wlocale.obj
 0001:0003914f       ??_G?$moneypunct@_W$00@std@@MAEPAXI@Z 1003a14f f i libcpmt:wlocale.obj
 0001:00039188       ??_G?$moneypunct@_W$0A@@std@@MAEPAXI@Z 1003a188 f i libcpmt:wlocale.obj
 0001:00039188       ??_E?$moneypunct@_W$0A@@std@@MAEPAXI@Z 1003a188 f i libcpmt:wlocale.obj
 0001:000391c1       ??_G?$num_get@GV?$istreambuf_iterator@GU?$char_traits@G@std@@@std@@@std@@MAEPAXI@Z 1003a1c1 f i libcpmt:wlocale.obj
 0001:000391c1       ??_E?$num_get@GV?$istreambuf_iterator@GU?$char_traits@G@std@@@std@@@std@@MAEPAXI@Z 1003a1c1 f i libcpmt:wlocale.obj
 0001:000391ec       ??_G?$num_get@_WV?$istreambuf_iterator@_WU?$char_traits@_W@std@@@std@@@std@@MAEPAXI@Z 1003a1ec f i libcpmt:wlocale.obj
 0001:000391ec       ??_E?$num_get@_WV?$istreambuf_iterator@_WU?$char_traits@_W@std@@@std@@@std@@MAEPAXI@Z 1003a1ec f i libcpmt:wlocale.obj
 0001:00039217       ??_E?$num_put@GV?$ostreambuf_iterator@GU?$char_traits@G@std@@@std@@@std@@MAEPAXI@Z 1003a217 f i libcpmt:wlocale.obj
 0001:00039217       ??_G?$num_put@GV?$ostreambuf_iterator@GU?$char_traits@G@std@@@std@@@std@@MAEPAXI@Z 1003a217 f i libcpmt:wlocale.obj
 0001:00039242       ??_E?$num_put@_WV?$ostreambuf_iterator@_WU?$char_traits@_W@std@@@std@@@std@@MAEPAXI@Z 1003a242 f i libcpmt:wlocale.obj
 0001:00039242       ??_G?$num_put@_WV?$ostreambuf_iterator@_WU?$char_traits@_W@std@@@std@@@std@@MAEPAXI@Z 1003a242 f i libcpmt:wlocale.obj
 0001:0003926d       ??_G?$numpunct@G@std@@MAEPAXI@Z 1003a26d f i libcpmt:wlocale.obj
 0001:0003926d       ??_E?$numpunct@G@std@@MAEPAXI@Z 1003a26d f i libcpmt:wlocale.obj
 0001:000392a6       ??_G?$numpunct@_W@std@@MAEPAXI@Z 1003a2a6 f i libcpmt:wlocale.obj
 0001:000392a6       ??_E?$numpunct@_W@std@@MAEPAXI@Z 1003a2a6 f i libcpmt:wlocale.obj
 0001:000392df       ??_E?$time_get@GV?$istreambuf_iterator@GU?$char_traits@G@std@@@std@@@std@@MAEPAXI@Z 1003a2df f i libcpmt:wlocale.obj
 0001:000392df       ??_G?$time_get@GV?$istreambuf_iterator@GU?$char_traits@G@std@@@std@@@std@@MAEPAXI@Z 1003a2df f i libcpmt:wlocale.obj
 0001:00039318       ??_G?$time_get@_WV?$istreambuf_iterator@_WU?$char_traits@_W@std@@@std@@@std@@MAEPAXI@Z 1003a318 f i libcpmt:wlocale.obj
 0001:00039318       ??_E?$time_get@_WV?$istreambuf_iterator@_WU?$char_traits@_W@std@@@std@@@std@@MAEPAXI@Z 1003a318 f i libcpmt:wlocale.obj
 0001:00039351       ??_G?$time_put@GV?$ostreambuf_iterator@GU?$char_traits@G@std@@@std@@@std@@MAEPAXI@Z 1003a351 f i libcpmt:wlocale.obj
 0001:00039351       ??_E?$time_put@GV?$ostreambuf_iterator@GU?$char_traits@G@std@@@std@@@std@@MAEPAXI@Z 1003a351 f i libcpmt:wlocale.obj
 0001:0003937b       ??_G?$time_put@_WV?$ostreambuf_iterator@_WU?$char_traits@_W@std@@@std@@@std@@MAEPAXI@Z 1003a37b f i libcpmt:wlocale.obj
 0001:0003937b       ??_E?$time_put@_WV?$ostreambuf_iterator@_WU?$char_traits@_W@std@@@std@@@std@@MAEPAXI@Z 1003a37b f i libcpmt:wlocale.obj
 0001:000393a5       ??_Emessages_base@std@@UAEPAXI@Z 1003a3a5 f i libcpmt:wlocale.obj
 0001:000393a5       ??_Gmessages_base@std@@UAEPAXI@Z 1003a3a5 f i libcpmt:wlocale.obj
 0001:000393d0       ??_Emoney_base@std@@UAEPAXI@Z 1003a3d0 f i libcpmt:wlocale.obj
 0001:000393d0       ??_Gmoney_base@std@@UAEPAXI@Z 1003a3d0 f i libcpmt:wlocale.obj
 0001:000393fb       ??_Gtime_base@std@@UAEPAXI@Z 1003a3fb f i libcpmt:wlocale.obj
 0001:000393fb       ??_Etime_base@std@@UAEPAXI@Z 1003a3fb f i libcpmt:wlocale.obj
 0001:00039426       ?_Adopt@_Iterator_base0@std@@QAEXPBX@Z 1003a426 f i libcpmt:wlocale.obj
 0001:00039429       ?_C_str@?$_Yarn@_W@std@@QBEPB_WXZ 1003a429 f i libcpmt:wlocale.obj
 0001:00039435       ?_Calculate_growth@?$basic_string@GU?$char_traits@G@std@@V?$allocator@G@2@@std@@ABEII@Z 1003a435 f i libcpmt:wlocale.obj
 0001:00039455       ?_Calculate_growth@?$basic_string@GU?$char_traits@G@std@@V?$allocator@G@2@@std@@CAIIII@Z 1003a455 f i libcpmt:wlocale.obj
 0001:00039491       ?_Calculate_growth@?$basic_string@_WU?$char_traits@_W@std@@V?$allocator@_W@2@@std@@ABEII@Z 1003a491 f i libcpmt:wlocale.obj
 0001:000394b1       ?_Calculate_growth@?$basic_string@_WU?$char_traits@_W@std@@V?$allocator@_W@2@@std@@CAIIII@Z 1003a4b1 f i libcpmt:wlocale.obj
 0001:000394ed       ?_Check_offset@?$_String_val@U?$_Simple_types@G@std@@@std@@QBEXI@Z 1003a4ed f i libcpmt:wlocale.obj
 0001:00039507       ?_Check_offset@?$_String_val@U?$_Simple_types@_W@std@@@std@@QBEXI@Z 1003a507 f i libcpmt:wlocale.obj
 0001:00039521       ?_Compat@?$_String_const_iterator@V?$_String_val@U?$_Simple_types@G@std@@@std@@@std@@QBEXABV12@@Z 1003a521 f i libcpmt:wlocale.obj
 0001:00039524       ?_Compat@?$_String_const_iterator@V?$_String_val@U?$_Simple_types@_W@std@@@std@@@std@@QBEXABV12@@Z 1003a524 f i libcpmt:wlocale.obj
 0001:00039527       ?_Construct_lv_contents@?$basic_string@GU?$char_traits@G@std@@V?$allocator@G@2@@std@@AAEXABV12@@Z 1003a527 f i libcpmt:wlocale.obj
 0001:000395ab       ?_Construct_lv_contents@?$basic_string@_WU?$char_traits@_W@std@@V?$allocator@_W@2@@std@@AAEXABV12@@Z 1003a5ab f i libcpmt:wlocale.obj
 0001:0003962f       ?_Donarrow@?$ctype@G@std@@IBEDGD@Z 1003a62f f i libcpmt:wlocale.obj
 0001:00039689       ?_Donarrow@?$ctype@_W@std@@IBED_WD@Z 1003a689 f i libcpmt:wlocale.obj
 0001:000396e3       ?_Dowiden@?$ctype@G@std@@IBEGD@Z 1003a6e3 f i libcpmt:wlocale.obj
 0001:0003972c       ?_Dowiden@?$ctype@_W@std@@IBE_WD@Z 1003a72c f i libcpmt:wlocale.obj
 0001:00039773       ?_Empty@?$_Yarn@_W@std@@QBE_NXZ 1003a773 f i libcpmt:wlocale.obj
 0001:0003977a       ?_Eos@?$basic_string@GU?$char_traits@G@std@@V?$allocator@G@2@@std@@AAEXI@Z 1003a77a f i libcpmt:wlocale.obj
 0001:0003979e       ?_Eos@?$basic_string@_WU?$char_traits@_W@std@@V?$allocator@_W@2@@std@@AAEXI@Z 1003a79e f i libcpmt:wlocale.obj
 0001:000397c2       ?_Ffmt@?$num_put@GV?$ostreambuf_iterator@GU?$char_traits@G@std@@@std@@@std@@ABAPADPADDH@Z 1003a7c2 f i libcpmt:wlocale.obj
 0001:0003987c       ?_Ffmt@?$num_put@_WV?$ostreambuf_iterator@_WU?$char_traits@_W@std@@@std@@@std@@ABAPADPADDH@Z 1003a87c f i libcpmt:wlocale.obj
 0001:00039936       ?_Fnv1a_append_bytes@std@@YAIIQBEI@Z 1003a936 f i libcpmt:wlocale.obj
 0001:00039968       ?_Fput@?$num_put@GV?$ostreambuf_iterator@GU?$char_traits@G@std@@@std@@@std@@ABA?AV?$ostreambuf_iterator@GU?$char_traits@G@std@@@2@V32@AAVios_base@2@GPBDI@Z 1003a968 f i libcpmt:wlocale.obj
 0001:00039d2f       ?_Fput@?$num_put@_WV?$ostreambuf_iterator@_WU?$char_traits@_W@std@@@std@@@std@@ABA?AV?$ostreambuf_iterator@_WU?$char_traits@_W@std@@@2@V32@AAVios_base@2@_WPBDI@Z 1003ad2f f i libcpmt:wlocale.obj
 0001:0003a0f6       ?_Get_first@?$_Compressed_pair@V?$allocator@G@std@@V?$_String_val@U?$_Simple_types@G@std@@@2@$00@std@@QAEAAV?$allocator@G@2@XZ 1003b0f6 f i libcpmt:wlocale.obj
 0001:0003a0f9       ?_Get_first@?$_Compressed_pair@V?$allocator@G@std@@V?$_String_val@U?$_Simple_types@G@std@@@2@$00@std@@QBEABV?$allocator@G@2@XZ 1003b0f9 f i libcpmt:wlocale.obj
 0001:0003a0fc       ?_Get_first@?$_Compressed_pair@V?$allocator@_W@std@@V?$_String_val@U?$_Simple_types@_W@std@@@2@$00@std@@QAEAAV?$allocator@_W@2@XZ 1003b0fc f i libcpmt:wlocale.obj
 0001:0003a0ff       ?_Get_first@?$_Compressed_pair@V?$allocator@_W@std@@V?$_String_val@U?$_Simple_types@_W@std@@@2@$00@std@@QBEABV?$allocator@_W@2@XZ 1003b0ff f i libcpmt:wlocale.obj
 0001:0003a102       ?_Getal@?$basic_string@GU?$char_traits@G@std@@V?$allocator@G@2@@std@@AAEAAV?$allocator@G@2@XZ 1003b102 f i libcpmt:wlocale.obj
 0001:0003a105       ?_Getal@?$basic_string@GU?$char_traits@G@std@@V?$allocator@G@2@@std@@ABEABV?$allocator@G@2@XZ 1003b105 f i libcpmt:wlocale.obj
 0001:0003a108       ?_Getal@?$basic_string@_WU?$char_traits@_W@std@@V?$allocator@_W@2@@std@@AAEAAV?$allocator@_W@2@XZ 1003b108 f i libcpmt:wlocale.obj
 0001:0003a10b       ?_Getal@?$basic_string@_WU?$char_traits@_W@std@@V?$allocator@_W@2@@std@@ABEABV?$allocator@_W@2@XZ 1003b10b f i libcpmt:wlocale.obj
 0001:0003a10e       ?_Getcat@?$codecvt@GDU_Mbstatet@@@std@@SAIPAPBVfacet@locale@2@PBV42@@Z 1003b10e f i libcpmt:wlocale.obj
 0001:0003a18d       ?_Getcat@?$codecvt@_WDU_Mbstatet@@@std@@SAIPAPBVfacet@locale@2@PBV42@@Z 1003b18d f i libcpmt:wlocale.obj
 0001:0003a20c       ?_Getcat@?$collate@G@std@@SAIPAPBVfacet@locale@2@PBV42@@Z 1003b20c f i libcpmt:wlocale.obj
 0001:0003a2d6       ?_Getcat@?$collate@_W@std@@SAIPAPBVfacet@locale@2@PBV42@@Z 1003b2d6 f i libcpmt:wlocale.obj
 0001:0003a3a0       ?_Getcat@?$ctype@G@std@@SAIPAPBVfacet@locale@2@PBV42@@Z 1003b3a0 f i libcpmt:wlocale.obj
 0001:0003a42c       ?_Getcat@?$ctype@_W@std@@SAIPAPBVfacet@locale@2@PBV42@@Z 1003b42c f i libcpmt:wlocale.obj
 0001:0003a4b8       ?_Getcat@?$messages@G@std@@SAIPAPBVfacet@locale@2@PBV42@@Z 1003b4b8 f i libcpmt:wlocale.obj
 0001:0003a53a       ?_Getcat@?$messages@_W@std@@SAIPAPBVfacet@locale@2@PBV42@@Z 1003b53a f i libcpmt:wlocale.obj
 0001:0003a5bc       ?_Getcat@?$money_get@GV?$istreambuf_iterator@GU?$char_traits@G@std@@@std@@@std@@SAIPAPBVfacet@locale@2@PBV42@@Z 1003b5bc f i libcpmt:wlocale.obj
 0001:0003a63e       ?_Getcat@?$money_get@_WV?$istreambuf_iterator@_WU?$char_traits@_W@std@@@std@@@std@@SAIPAPBVfacet@locale@2@PBV42@@Z 1003b63e f i libcpmt:wlocale.obj
 0001:0003a6c0       ?_Getcat@?$money_put@GV?$ostreambuf_iterator@GU?$char_traits@G@std@@@std@@@std@@SAIPAPBVfacet@locale@2@PBV42@@Z 1003b6c0 f i libcpmt:wlocale.obj
 0001:0003a742       ?_Getcat@?$money_put@_WV?$ostreambuf_iterator@_WU?$char_traits@_W@std@@@std@@@std@@SAIPAPBVfacet@locale@2@PBV42@@Z 1003b742 f i libcpmt:wlocale.obj
 0001:0003a7c4       ?_Getcat@?$moneypunct@G$00@std@@SAIPAPBVfacet@locale@2@PBV42@@Z 1003b7c4 f i libcpmt:wlocale.obj
 0001:0003a869       ?_Getcat@?$moneypunct@G$0A@@std@@SAIPAPBVfacet@locale@2@PBV42@@Z 1003b869 f i libcpmt:wlocale.obj
 0001:0003a90f       ?_Getcat@?$moneypunct@_W$00@std@@SAIPAPBVfacet@locale@2@PBV42@@Z 1003b90f f i libcpmt:wlocale.obj
 0001:0003a9b4       ?_Getcat@?$moneypunct@_W$0A@@std@@SAIPAPBVfacet@locale@2@PBV42@@Z 1003b9b4 f i libcpmt:wlocale.obj
 0001:0003aa5a       ?_Getcat@?$num_get@GV?$istreambuf_iterator@GU?$char_traits@G@std@@@std@@@std@@SAIPAPBVfacet@locale@2@PBV42@@Z 1003ba5a f i libcpmt:wlocale.obj
 0001:0003aadc       ?_Getcat@?$num_get@_WV?$istreambuf_iterator@_WU?$char_traits@_W@std@@@std@@@std@@SAIPAPBVfacet@locale@2@PBV42@@Z 1003badc f i libcpmt:wlocale.obj
 0001:0003ab5e       ?_Getcat@?$num_put@GV?$ostreambuf_iterator@GU?$char_traits@G@std@@@std@@@std@@SAIPAPBVfacet@locale@2@PBV42@@Z 1003bb5e f i libcpmt:wlocale.obj
 0001:0003abe0       ?_Getcat@?$num_put@_WV?$ostreambuf_iterator@_WU?$char_traits@_W@std@@@std@@@std@@SAIPAPBVfacet@locale@2@PBV42@@Z 1003bbe0 f i libcpmt:wlocale.obj
 0001:0003ac62       ?_Getcat@?$numpunct@G@std@@SAIPAPBVfacet@locale@2@PBV42@@Z 1003bc62 f i libcpmt:wlocale.obj
 0001:0003acfb       ?_Getcat@?$numpunct@_W@std@@SAIPAPBVfacet@locale@2@PBV42@@Z 1003bcfb f i libcpmt:wlocale.obj
 0001:0003ad94       ?_Getcat@?$time_get@GV?$istreambuf_iterator@GU?$char_traits@G@std@@@std@@@std@@SAIPAPBVfacet@locale@2@PBV42@@Z 1003bd94 f i libcpmt:wlocale.obj
 0001:0003ae1b       ?_Getcat@?$time_get@_WV?$istreambuf_iterator@_WU?$char_traits@_W@std@@@std@@@std@@SAIPAPBVfacet@locale@2@PBV42@@Z 1003be1b f i libcpmt:wlocale.obj
 0001:0003aea2       ?_Getcat@?$time_put@GV?$ostreambuf_iterator@GU?$char_traits@G@std@@@std@@@std@@SAIPAPBVfacet@locale@2@PBV42@@Z 1003bea2 f i libcpmt:wlocale.obj
 0001:0003af33       ?_Getcat@?$time_put@_WV?$ostreambuf_iterator@_WU?$char_traits@_W@std@@@std@@@std@@SAIPAPBVfacet@locale@2@PBV42@@Z 1003bf33 f i libcpmt:wlocale.obj
 0001:0003afc4       ?_Getcoll@_Locinfo@std@@QBE?AU_Collvec@@XZ 1003bfc4 f i libcpmt:wlocale.obj
 0001:0003afdf       ?_Getdateorder@_Locinfo@std@@QBEHXZ 1003bfdf f i libcpmt:wlocale.obj
 0001:0003afe4       ?_Getdays@_Locinfo@std@@QBEPBDXZ 1003bfe4 f i libcpmt:wlocale.obj
 0001:0003b01d       ?_Getffld@?$num_get@GV?$istreambuf_iterator@GU?$char_traits@G@std@@@std@@@std@@ABAHPADAAV?$istreambuf_iterator@GU?$char_traits@G@std@@@2@1AAVios_base@2@PAH@Z 1003c01d f i libcpmt:wlocale.obj
 0001:0003b8d4       ?_Getffld@?$num_get@_WV?$istreambuf_iterator@_WU?$char_traits@_W@std@@@std@@@std@@ABAHPADAAV?$istreambuf_iterator@_WU?$char_traits@_W@std@@@2@1AAVios_base@2@PAH@Z 1003c8d4 f i libcpmt:wlocale.obj
 0001:0003c18b       ?_Getffldx@?$num_get@GV?$istreambuf_iterator@GU?$char_traits@G@std@@@std@@@std@@ABAHPADAAV?$istreambuf_iterator@GU?$char_traits@G@std@@@2@1AAVios_base@2@PAH@Z 1003d18b f i libcpmt:wlocale.obj
 0001:0003cae4       ?_Getffldx@?$num_get@_WV?$istreambuf_iterator@_WU?$char_traits@_W@std@@@std@@@std@@ABAHPADAAV?$istreambuf_iterator@_WU?$char_traits@_W@std@@@2@1AAVios_base@2@PAH@Z 1003dae4 f i libcpmt:wlocale.obj
 0001:0003d43d       ?_Getfmt@?$time_get@GV?$istreambuf_iterator@GU?$char_traits@G@std@@@std@@@std@@IBE?AV?$istreambuf_iterator@GU?$char_traits@G@std@@@2@V32@0AAVios_base@2@AAHPAUtm@@PBD@Z 1003e43d f i libcpmt:wlocale.obj
 0001:0003d5e7       ?_Getfmt@?$time_get@_WV?$istreambuf_iterator@_WU?$char_traits@_W@std@@@std@@@std@@IBE?AV?$istreambuf_iterator@_WU?$char_traits@_W@std@@@2@V32@0AAVios_base@2@AAHPAUtm@@PBD@Z 1003e5e7 f i libcpmt:wlocale.obj
 0001:0003d791       ?_Getifld@?$num_get@GV?$istreambuf_iterator@GU?$char_traits@G@std@@@std@@@std@@ABAHPADAAV?$istreambuf_iterator@GU?$char_traits@G@std@@@2@1HABVlocale@2@@Z 1003e791 f i libcpmt:wlocale.obj
 0001:0003dc5c       ?_Getifld@?$num_get@_WV?$istreambuf_iterator@_WU?$char_traits@_W@std@@@std@@@std@@ABAHPADAAV?$istreambuf_iterator@_WU?$char_traits@_W@std@@@2@1HABVlocale@2@@Z 1003ec5c f i libcpmt:wlocale.obj
 0001:0003e127       ?_Getint@?$time_get@GV?$istreambuf_iterator@GU?$char_traits@G@std@@@std@@@std@@ABAHAAV?$istreambuf_iterator@GU?$char_traits@G@std@@@2@0HHAAHABV?$ctype@G@2@@Z 1003f127 f i libcpmt:wlocale.obj
 0001:0003e3d4       ?_Getint@?$time_get@_WV?$istreambuf_iterator@_WU?$char_traits@_W@std@@@std@@@std@@ABAHAAV?$istreambuf_iterator@_WU?$char_traits@_W@std@@@2@0HHAAHABV?$ctype@_W@2@@Z 1003f3d4 f i libcpmt:wlocale.obj
 0001:0003e681       ?_Getmfld@?$money_get@GV?$istreambuf_iterator@GU?$char_traits@G@std@@@std@@@std@@ABE?AV?$basic_string@DU?$char_traits@D@std@@V?$allocator@D@2@@2@AAV?$istreambuf_iterator@GU?$char_traits@G@std@@@2@0_NAAVios_base@2@AAY0M@G@Z 1003f681 f i libcpmt:wlocale.obj
 0001:0003f464       ?_Getmfld@?$money_get@_WV?$istreambuf_iterator@_WU?$char_traits@_W@std@@@std@@@std@@ABE?AV?$basic_string@DU?$char_traits@D@std@@V?$allocator@D@2@@2@AAV?$istreambuf_iterator@_WU?$char_traits@_W@std@@@2@0_NAAVios_base@2@AAY0M@_W@Z 10040464 f i libcpmt:wlocale.obj
 0001:00040247       ?_Getmonths@_Locinfo@std@@QBEPBDXZ 10041247 f i libcpmt:wlocale.obj
 0001:00040280       ?_Getptr@_Timevec@std@@QBEPAXXZ 10041280 f i libcpmt:wlocale.obj
 0001:00040283       ?_Getvals@?$_Mpunct@_W@std@@IAEX_WPBUlconv@@@Z 10041283 f i libcpmt:wlocale.obj
 0001:0004030a       ?_Getvals@?$numpunct@_W@std@@IAEX_WPBUlconv@@U_Cvtvec@@@Z 1004130a f i libcpmt:wlocale.obj
 0001:0004032f       ?_Gnavail@?$basic_streambuf@GU?$char_traits@G@std@@@std@@IBE_JXZ 1004132f f i libcpmt:wlocale.obj
 0001:00040345       ?_Gnavail@?$basic_streambuf@_WU?$char_traits@_W@std@@@std@@IBE_JXZ 10041345 f i libcpmt:wlocale.obj
 0001:0004035b       ?_Gninc@?$basic_streambuf@GU?$char_traits@G@std@@@std@@IAEPAGXZ 1004135b f i libcpmt:wlocale.obj
 0001:0004036f       ?_Gninc@?$basic_streambuf@_WU?$char_traits@_W@std@@@std@@IAEPA_WXZ 1004136f f i libcpmt:wlocale.obj
 0001:00040383       ?_Ifmt@?$num_put@GV?$ostreambuf_iterator@GU?$char_traits@G@std@@@std@@@std@@ABAPADPADPBDH@Z 10041383 f i libcpmt:wlocale.obj
 0001:00040415       ?_Ifmt@?$num_put@_WV?$ostreambuf_iterator@_WU?$char_traits@_W@std@@@std@@@std@@ABAPADPADPBDH@Z 10041415 f i libcpmt:wlocale.obj
 0001:000404a7       ?_Inc@?$istreambuf_iterator@GU?$char_traits@G@std@@@std@@AAEXXZ 100414a7 f i libcpmt:wlocale.obj
 0001:000404d6       ?_Inc@?$istreambuf_iterator@_WU?$char_traits@_W@std@@@std@@AAEXXZ 100414d6 f i libcpmt:wlocale.obj
 0001:00040505       ?_Init@?$_Mpunct@G@std@@IAEXABV_Locinfo@2@_N@Z 10041505 f i libcpmt:wlocale.obj
 0001:00040602       ?_Init@?$_Mpunct@_W@std@@IAEXABV_Locinfo@2@_N@Z 10041602 f i libcpmt:wlocale.obj
 0001:000406ff       ?_Init@?$codecvt@GDU_Mbstatet@@@std@@IAEXABV_Locinfo@2@@Z 100416ff f i libcpmt:wlocale.obj
 0001:0004072c       ?_Init@?$codecvt@_WDU_Mbstatet@@@std@@IAEXABV_Locinfo@2@@Z 1004172c f i libcpmt:wlocale.obj
 0001:00040759       ?_Init@?$collate@G@std@@IAEXABV_Locinfo@2@@Z 10041759 f i libcpmt:wlocale.obj
 0001:0004076f       ?_Init@?$collate@_W@std@@IAEXABV_Locinfo@2@@Z 1004176f f i libcpmt:wlocale.obj
 0001:00040785       ?_Init@?$ctype@G@std@@IAEXABV_Locinfo@2@@Z 10041785 f i libcpmt:wlocale.obj
 0001:000407cc       ?_Init@?$ctype@_W@std@@IAEXABV_Locinfo@2@@Z 100417cc f i libcpmt:wlocale.obj
 0001:00040813       ?_Init@?$messages@G@std@@IAEXABV_Locinfo@2@@Z 10041813 f i libcpmt:wlocale.obj
 0001:00040816       ?_Init@?$messages@_W@std@@IAEXABV_Locinfo@2@@Z 10041816 f i libcpmt:wlocale.obj
 0001:00040819       ?_Init@?$money_get@GV?$istreambuf_iterator@GU?$char_traits@G@std@@@std@@@std@@IAEXABV_Locinfo@2@@Z 10041819 f i libcpmt:wlocale.obj
 0001:0004081c       ?_Init@?$money_get@_WV?$istreambuf_iterator@_WU?$char_traits@_W@std@@@std@@@std@@IAEXABV_Locinfo@2@@Z 1004181c f i libcpmt:wlocale.obj
 0001:0004081f       ?_Init@?$money_put@GV?$ostreambuf_iterator@GU?$char_traits@G@std@@@std@@@std@@IAEXABV_Locinfo@2@@Z 1004181f f i libcpmt:wlocale.obj
 0001:00040822       ?_Init@?$money_put@_WV?$ostreambuf_iterator@_WU?$char_traits@_W@std@@@std@@@std@@IAEXABV_Locinfo@2@@Z 10041822 f i libcpmt:wlocale.obj
 0001:00040825       ?_Init@?$num_get@GV?$istreambuf_iterator@GU?$char_traits@G@std@@@std@@@std@@IAEXABV_Locinfo@2@@Z 10041825 f i libcpmt:wlocale.obj
 0001:00040828       ?_Init@?$num_get@_WV?$istreambuf_iterator@_WU?$char_traits@_W@std@@@std@@@std@@IAEXABV_Locinfo@2@@Z 10041828 f i libcpmt:wlocale.obj
 0001:0004082b       ?_Init@?$num_put@GV?$ostreambuf_iterator@GU?$char_traits@G@std@@@std@@@std@@IAEXABV_Locinfo@2@@Z 1004182b f i libcpmt:wlocale.obj
 0001:0004082e       ?_Init@?$num_put@_WV?$ostreambuf_iterator@_WU?$char_traits@_W@std@@@std@@@std@@IAEXABV_Locinfo@2@@Z 1004182e f i libcpmt:wlocale.obj
 0001:00040831       ?_Init@?$numpunct@G@std@@IAEXABV_Locinfo@2@_N@Z 10041831 f i libcpmt:wlocale.obj
 0001:00040940       ?_Init@?$numpunct@_W@std@@IAEXABV_Locinfo@2@_N@Z 10041940 f i libcpmt:wlocale.obj
 0001:00040a45       ?_Init@?$time_get@GV?$istreambuf_iterator@GU?$char_traits@G@std@@@std@@@std@@IAEXABV_Locinfo@2@@Z 10041a45 f i libcpmt:wlocale.obj
 0001:00040a8b       ?_Init@?$time_get@_WV?$istreambuf_iterator@_WU?$char_traits@_W@std@@@std@@@std@@IAEXABV_Locinfo@2@@Z 10041a8b f i libcpmt:wlocale.obj
 0001:00040ad1       ?_Init@?$time_put@GV?$ostreambuf_iterator@GU?$char_traits@G@std@@@std@@@std@@IAEXABV_Locinfo@2@@Z 10041ad1 f i libcpmt:wlocale.obj
 0001:00040b04       ?_Init@?$time_put@_WV?$ostreambuf_iterator@_WU?$char_traits@_W@std@@@std@@@std@@IAEXABV_Locinfo@2@@Z 10041b04 f i libcpmt:wlocale.obj
 0001:00040b37       ?_Iput@?$num_put@GV?$ostreambuf_iterator@GU?$char_traits@G@std@@@std@@@std@@ABA?AV?$ostreambuf_iterator@GU?$char_traits@G@std@@@2@V32@AAVios_base@2@GPADI@Z 10041b37 f i libcpmt:wlocale.obj
 0001:00040e81       ?_Iput@?$num_put@_WV?$ostreambuf_iterator@_WU?$char_traits@_W@std@@@std@@@std@@ABA?AV?$ostreambuf_iterator@_WU?$char_traits@_W@std@@@2@V32@AAVios_base@2@_WPADI@Z 10041e81 f i libcpmt:wlocale.obj
 0001:000411cb       ?_Large_string_engaged@?$_String_val@U?$_Simple_types@G@std@@@std@@QBE_NXZ 100421cb f i libcpmt:wlocale.obj
 0001:000411d6       ?_Large_string_engaged@?$_String_val@U?$_Simple_types@_W@std@@@std@@QBE_NXZ 100421d6 f i libcpmt:wlocale.obj
 0001:000411e1       ?_Makeushloc@_Locimp@locale@std@@CAXABV_Locinfo@3@HPAV123@PBV23@@Z 100421e1 f   libcpmt:wlocale.obj
 0001:0004185e       ?_Makewloc@_Locimp@locale@std@@CAXABV_Locinfo@3@HPAV123@PBV23@@Z 1004285e f   libcpmt:wlocale.obj
 0001:00041edb       ?_Maklocwcs@std@@YAPA_WPB_W@Z 10042edb f i libcpmt:wlocale.obj
 0001:00041f36       ?_Makpat@?$_Mpunct@G@std@@AAEXAAUpattern@money_base@2@III@Z 10042f36 f i libcpmt:wlocale.obj
 0001:00041f87       ?_Makpat@?$_Mpunct@_W@std@@AAEXAAUpattern@money_base@2@III@Z 10042f87 f i libcpmt:wlocale.obj
 0001:00041fd8       ?_Memcpy_val_from@?$basic_string@GU?$char_traits@G@std@@V?$allocator@G@2@@std@@AAEXABV12@@Z 10042fd8 f i libcpmt:wlocale.obj
 0001:00041ff2       ?_Memcpy_val_from@?$basic_string@_WU?$char_traits@_W@std@@V?$allocator@_W@2@@std@@AAEXABV12@@Z 10042ff2 f i libcpmt:wlocale.obj
 0001:0004200c       ?_Move_assign@?$basic_string@GU?$char_traits@G@std@@V?$allocator@G@2@@std@@AAEXAAV12@U_Equal_allocators@2@@Z 1004300c f i libcpmt:wlocale.obj
 0001:0004207d       ?_Move_assign@?$basic_string@_WU?$char_traits@_W@std@@V?$allocator@_W@2@@std@@AAEXAAV12@U_Equal_allocators@2@@Z 1004307d f i libcpmt:wlocale.obj
 0001:000420ee       ?_Myptr@?$_String_val@U?$_Simple_types@G@std@@@std@@QAEPAGXZ 100430ee f i libcpmt:wlocale.obj
 0001:000420fb       ?_Myptr@?$_String_val@U?$_Simple_types@G@std@@@std@@QBEPBGXZ 100430fb f i libcpmt:wlocale.obj
 0001:00042108       ?_Myptr@?$_String_val@U?$_Simple_types@_W@std@@@std@@QAEPA_WXZ 10043108 f i libcpmt:wlocale.obj
 0001:00042115       ?_Myptr@?$_String_val@U?$_Simple_types@_W@std@@@std@@QBEPB_WXZ 10043115 f i libcpmt:wlocale.obj
 0001:00042122       ?_Peek@?$istreambuf_iterator@GU?$char_traits@G@std@@@std@@ABEGXZ 10043122 f i libcpmt:wlocale.obj
 0001:0004215b       ?_Peek@?$istreambuf_iterator@_WU?$char_traits@_W@std@@@std@@ABE_WXZ 1004315b f i libcpmt:wlocale.obj
 0001:00042194       ?_Pnavail@?$basic_streambuf@GU?$char_traits@G@std@@@std@@IBE_JXZ 10043194 f i libcpmt:wlocale.obj
 0001:000421aa       ?_Pnavail@?$basic_streambuf@_WU?$char_traits@_W@std@@@std@@IBE_JXZ 100431aa f i libcpmt:wlocale.obj
 0001:000421c0       ?_Pninc@?$basic_streambuf@GU?$char_traits@G@std@@@std@@IAEPAGXZ 100431c0 f i libcpmt:wlocale.obj
 0001:000421d4       ?_Pninc@?$basic_streambuf@_WU?$char_traits@_W@std@@@std@@IAEPA_WXZ 100431d4 f i libcpmt:wlocale.obj
 0001:000421e8       ?_Put@?$money_put@GV?$ostreambuf_iterator@GU?$char_traits@G@std@@@std@@@std@@CA?AV?$ostreambuf_iterator@GU?$char_traits@G@std@@@2@V32@V?$_String_const_iterator@V?$_String_val@U?$_Simple_types@G@std@@@std@@@2@I@Z 100431e8 f i libcpmt:wlocale.obj
 0001:0004222f       ?_Put@?$money_put@_WV?$ostreambuf_iterator@_WU?$char_traits@_W@std@@@std@@@std@@CA?AV?$ostreambuf_iterator@_WU?$char_traits@_W@std@@@2@V32@V?$_String_const_iterator@V?$_String_val@U?$_Simple_types@_W@std@@@std@@@2@I@Z 1004322f f i libcpmt:wlocale.obj
 0001:00042276       ?_Put@?$num_put@GV?$ostreambuf_iterator@GU?$char_traits@G@std@@@std@@@std@@ABA?AV?$ostreambuf_iterator@GU?$char_traits@G@std@@@2@V32@PBGI@Z 10043276 f i libcpmt:wlocale.obj
 0001:000422b8       ?_Put@?$num_put@_WV?$ostreambuf_iterator@_WU?$char_traits@_W@std@@@std@@@std@@ABA?AV?$ostreambuf_iterator@_WU?$char_traits@_W@std@@@2@V32@PB_WI@Z 100432b8 f i libcpmt:wlocale.obj
 0001:000422fa       ?_Putmfld@?$money_put@GV?$ostreambuf_iterator@GU?$char_traits@G@std@@@std@@@std@@ABE?AV?$ostreambuf_iterator@GU?$char_traits@G@std@@@2@V32@_NAAVios_base@2@G1V?$basic_string@GU?$char_traits@G@std@@V?$allocator@G@2@@2@G@Z 100432fa f i libcpmt:wlocale.obj
 0001:00042ac6       ?_Putmfld@?$money_put@_WV?$ostreambuf_iterator@_WU?$char_traits@_W@std@@@std@@@std@@ABE?AV?$ostreambuf_iterator@_WU?$char_traits@_W@std@@@2@V32@_NAAVios_base@2@_W1V?$basic_string@_WU?$char_traits@_W@std@@V?$allocator@_W@2@@2@3@Z 10043ac6 f i libcpmt:wlocale.obj
 0001:00043292       ?_Rep@?$money_put@GV?$ostreambuf_iterator@GU?$char_traits@G@std@@@std@@@std@@CA?AV?$ostreambuf_iterator@GU?$char_traits@G@std@@@2@V32@GI@Z 10044292 f i libcpmt:wlocale.obj
 0001:000432c9       ?_Rep@?$money_put@_WV?$ostreambuf_iterator@_WU?$char_traits@_W@std@@@std@@@std@@CA?AV?$ostreambuf_iterator@_WU?$char_traits@_W@std@@@2@V32@_WI@Z 100442c9 f i libcpmt:wlocale.obj
 0001:00043300       ?_Rep@?$num_put@GV?$ostreambuf_iterator@GU?$char_traits@G@std@@@std@@@std@@ABA?AV?$ostreambuf_iterator@GU?$char_traits@G@std@@@2@V32@GI@Z 10044300 f i libcpmt:wlocale.obj
 0001:00043337       ?_Rep@?$num_put@_WV?$ostreambuf_iterator@_WU?$char_traits@_W@std@@@std@@@std@@ABA?AV?$ostreambuf_iterator@_WU?$char_traits@_W@std@@@2@V32@_WI@Z 10044337 f i libcpmt:wlocale.obj
 0001:0004336e       ?_Swap_proxy_and_iterators@?$basic_string@GU?$char_traits@G@std@@V?$allocator@G@2@@std@@AAEXAAV12@@Z 1004436e f i libcpmt:wlocale.obj
 0001:00043371       ?_Swap_proxy_and_iterators@?$basic_string@_WU?$char_traits@_W@std@@V?$allocator@_W@2@@std@@AAEXAAV12@@Z 10044371 f i libcpmt:wlocale.obj
 0001:00043374       ?_Take_contents@?$basic_string@GU?$char_traits@G@std@@V?$allocator@G@2@@std@@AAEXAAV12@@Z 10044374 f i libcpmt:wlocale.obj
 0001:000433df       ?_Take_contents@?$basic_string@_WU?$char_traits@_W@std@@V?$allocator@_W@2@@std@@AAEXAAV12@@Z 100443df f i libcpmt:wlocale.obj
 0001:0004344a       ?_Tidy@?$_Mpunct@G@std@@AAEXXZ 1004444a f i libcpmt:wlocale.obj
 0001:0004347c       ?_Tidy@?$_Mpunct@_W@std@@AAEXXZ 1004447c f i libcpmt:wlocale.obj
 0001:000434ae       ?_Tidy@?$numpunct@G@std@@AAEXXZ 100444ae f i libcpmt:wlocale.obj
 0001:000434d6       ?_Tidy@?$numpunct@_W@std@@AAEXXZ 100444d6 f i libcpmt:wlocale.obj
 0001:000434fe       ?_Tidy@?$time_get@GV?$istreambuf_iterator@GU?$char_traits@G@std@@@std@@@std@@AAEXXZ 100444fe f i libcpmt:wlocale.obj
 0001:00043526       ?_Tidy@?$time_get@_WV?$istreambuf_iterator@_WU?$char_traits@_W@std@@@std@@@std@@AAEXXZ 10044526 f i libcpmt:wlocale.obj
 0001:0004354e       ?_Tidy_deallocate@?$basic_string@GU?$char_traits@G@std@@V?$allocator@G@2@@std@@AAEXXZ 1004454e f i libcpmt:wlocale.obj
 0001:00043586       ?_Tidy_deallocate@?$basic_string@_WU?$char_traits@_W@std@@V?$allocator@_W@2@@std@@AAEXXZ 10044586 f i libcpmt:wlocale.obj
 0001:000435be       ?_Tidy_init@?$basic_string@GU?$char_traits@G@std@@V?$allocator@G@2@@std@@AAEXXZ 100445be f i libcpmt:wlocale.obj
 0001:00043613       ?_Tidy_init@?$basic_string@_WU?$char_traits@_W@std@@V?$allocator@_W@2@@std@@AAEXXZ 10044613 f i libcpmt:wlocale.obj
 0001:00043668       ?_W_Getdays@_Locinfo@std@@QBEPBGXZ 10044668 f i libcpmt:wlocale.obj
 0001:000436a1       ?_W_Getmonths@_Locinfo@std@@QBEPBGXZ 100446a1 f i libcpmt:wlocale.obj
 0001:000436da       ?_W_Gettnames@_Locinfo@std@@QBE?AV_Timevec@2@XZ 100446da f i libcpmt:wlocale.obj
 0001:000436f1       ?_Xran@?$_String_val@U?$_Simple_types@G@std@@@std@@SAXXZ 100446f1 f i libcpmt:wlocale.obj
 0001:000436fe       ?_Xran@?$_String_val@U?$_Simple_types@_W@std@@@std@@SAXXZ 100446fe f i libcpmt:wlocale.obj
 0001:0004370b       ?allocate@?$allocator@G@std@@QAEPAGI@Z 1004470b f i libcpmt:wlocale.obj
 0001:00043733       ?allocate@?$allocator@_W@std@@QAEPA_WI@Z 10044733 f i libcpmt:wlocale.obj
 0001:0004375b       ?append@?$basic_string@GU?$char_traits@G@std@@V?$allocator@G@2@@std@@QAEAAV12@ABV12@@Z 1004475b f i libcpmt:wlocale.obj
 0001:0004377e       ?append@?$basic_string@GU?$char_traits@G@std@@V?$allocator@G@2@@std@@QAEAAV12@IG@Z 1004477e f i libcpmt:wlocale.obj
 0001:000437ec       ?append@?$basic_string@GU?$char_traits@G@std@@V?$allocator@G@2@@std@@QAEAAV12@QBGI@Z 100447ec f i libcpmt:wlocale.obj
 0001:0004385d       ?append@?$basic_string@_WU?$char_traits@_W@std@@V?$allocator@_W@2@@std@@QAEAAV12@ABV12@@Z 1004485d f i libcpmt:wlocale.obj
 0001:00043880       ?append@?$basic_string@_WU?$char_traits@_W@std@@V?$allocator@_W@2@@std@@QAEAAV12@I_W@Z 10044880 f i libcpmt:wlocale.obj
 0001:000438ee       ?append@?$basic_string@_WU?$char_traits@_W@std@@V?$allocator@_W@2@@std@@QAEAAV12@QB_WI@Z 100448ee f i libcpmt:wlocale.obj
 0001:0004395f       ?assign@?$_Char_traits@GG@std@@SAPAGQAGIG@Z 1004495f f i libcpmt:wlocale.obj
 0001:00043993       ?assign@?$_Char_traits@_WG@std@@SAPA_WQA_WI_W@Z 10044993 f i libcpmt:wlocale.obj
 0001:000439c7       ?assign@?$_WChar_traits@G@std@@SAPAGQAGIG@Z 100449c7 f i libcpmt:wlocale.obj
 0001:000439e2       ?assign@?$_WChar_traits@G@std@@SAXAAGABG@Z 100449e2 f i libcpmt:wlocale.obj
 0001:000439f7       ?assign@?$_WChar_traits@_W@std@@SAPA_WQA_WI_W@Z 100449f7 f i libcpmt:wlocale.obj
 0001:00043a12       ?assign@?$_WChar_traits@_W@std@@SAXAA_WAB_W@Z 10044a12 f i libcpmt:wlocale.obj
 0001:00043a27       ?assign@?$basic_string@GU?$char_traits@G@std@@V?$allocator@G@2@@std@@QAEAAV12@$$QAV12@@Z 10044a27 f i libcpmt:wlocale.obj
 0001:00043a41       ?assign@?$basic_string@GU?$char_traits@G@std@@V?$allocator@G@2@@std@@QAEAAV12@IG@Z 10044a41 f i libcpmt:wlocale.obj
 0001:00043a9b       ?assign@?$basic_string@GU?$char_traits@G@std@@V?$allocator@G@2@@std@@QAEAAV12@QBG@Z 10044a9b f i libcpmt:wlocale.obj
 0001:00043ace       ?assign@?$basic_string@GU?$char_traits@G@std@@V?$allocator@G@2@@std@@QAEAAV12@QBGI@Z 10044ace f i libcpmt:wlocale.obj
 0001:00043b2b       ?assign@?$basic_string@_WU?$char_traits@_W@std@@V?$allocator@_W@2@@std@@QAEAAV12@$$QAV12@@Z 10044b2b f i libcpmt:wlocale.obj
 0001:00043b45       ?assign@?$basic_string@_WU?$char_traits@_W@std@@V?$allocator@_W@2@@std@@QAEAAV12@I_W@Z 10044b45 f i libcpmt:wlocale.obj
 0001:00043b9f       ?assign@?$basic_string@_WU?$char_traits@_W@std@@V?$allocator@_W@2@@std@@QAEAAV12@QB_W@Z 10044b9f f i libcpmt:wlocale.obj
 0001:00043bcf       ?assign@?$basic_string@_WU?$char_traits@_W@std@@V?$allocator@_W@2@@std@@QAEAAV12@QB_WI@Z 10044bcf f i libcpmt:wlocale.obj
 0001:00043c2c       ?begin@?$basic_string@GU?$char_traits@G@std@@V?$allocator@G@2@@std@@QAE?AV?$_String_iterator@V?$_String_val@U?$_Simple_types@G@std@@@std@@@2@XZ 10044c2c f i libcpmt:wlocale.obj
 0001:00043c45       ?begin@?$basic_string@_WU?$char_traits@_W@std@@V?$allocator@_W@2@@std@@QAE?AV?$_String_iterator@V?$_String_val@U?$_Simple_types@_W@std@@@std@@@2@XZ 10044c45 f i libcpmt:wlocale.obj
 0001:00043c5e       ?c_str@?$basic_string@GU?$char_traits@G@std@@V?$allocator@G@2@@std@@QBEPBGXZ 10044c5e f i libcpmt:wlocale.obj
 0001:00043c6b       ?c_str@?$basic_string@_WU?$char_traits@_W@std@@V?$allocator@_W@2@@std@@QBEPB_WXZ 10044c6b f i libcpmt:wlocale.obj
 0001:00043c78       ?copy@?$_Char_traits@GG@std@@SAPAGQAGQBGI@Z 10044c78 f i libcpmt:wlocale.obj
 0001:00043c9b       ?copy@?$_Char_traits@_WG@std@@SAPA_WQA_WQB_WI@Z 10044c9b f i libcpmt:wlocale.obj
 0001:00043cbe       ?curr_symbol@?$_Mpunct@G@std@@QBE?AV?$basic_string@GU?$char_traits@G@std@@V?$allocator@G@2@@2@XZ 10044cbe f i libcpmt:wlocale.obj
 0001:00043ceb       ?curr_symbol@?$_Mpunct@_W@std@@QBE?AV?$basic_string@_WU?$char_traits@_W@std@@V?$allocator@_W@2@@2@XZ 10044ceb f i libcpmt:wlocale.obj
 0001:00043d18       ?date_order@?$time_get@GV?$istreambuf_iterator@GU?$char_traits@G@std@@@std@@@std@@QBE?AW4dateorder@time_base@2@XZ 10044d18 f i libcpmt:wlocale.obj
 0001:00043d36       ?date_order@?$time_get@_WV?$istreambuf_iterator@_WU?$char_traits@_W@std@@@std@@@std@@QBE?AW4dateorder@time_base@2@XZ 10044d36 f i libcpmt:wlocale.obj
 0001:00043d54       ?deallocate@?$allocator@G@std@@QAEXQAGI@Z 10044d54 f i libcpmt:wlocale.obj
 0001:00043d70       ?deallocate@?$allocator@_W@std@@QAEXQA_WI@Z 10044d70 f i libcpmt:wlocale.obj
 0001:00043d8c       ?decimal_point@?$_Mpunct@G@std@@QBEGXZ 10044d8c f i libcpmt:wlocale.obj
 0001:00043daa       ?decimal_point@?$_Mpunct@_W@std@@QBE_WXZ 10044daa f i libcpmt:wlocale.obj
 0001:00043dc8       ?decimal_point@?$numpunct@G@std@@QBEGXZ 10044dc8 f i libcpmt:wlocale.obj
 0001:00043de6       ?decimal_point@?$numpunct@_W@std@@QBE_WXZ 10044de6 f i libcpmt:wlocale.obj
 0001:00043e04       ?do_always_noconv@?$codecvt@GDU_Mbstatet@@@std@@MBE_NXZ 10044e04 f i libcpmt:wlocale.obj
 0001:00043e07       ?do_always_noconv@?$codecvt@_WDU_Mbstatet@@@std@@MBE_NXZ 10044e07 f i libcpmt:wlocale.obj
 0001:00043e0a       ?do_close@?$messages@G@std@@MBEXH@Z 10044e0a f i libcpmt:wlocale.obj
 0001:00043e0d       ?do_close@?$messages@_W@std@@MBEXH@Z 10044e0d f i libcpmt:wlocale.obj
 0001:00043e10       ?do_compare@?$collate@G@std@@MBEHPBG000@Z 10044e10 f i libcpmt:wlocale.obj
 0001:00043e4d       ?do_compare@?$collate@_W@std@@MBEHPB_W000@Z 10044e4d f i libcpmt:wlocale.obj
 0001:00043e8a       ?do_curr_symbol@?$_Mpunct@G@std@@MBE?AV?$basic_string@GU?$char_traits@G@std@@V?$allocator@G@2@@2@XZ 10044e8a f i libcpmt:wlocale.obj
 0001:00043ea4       ?do_curr_symbol@?$_Mpunct@_W@std@@MBE?AV?$basic_string@_WU?$char_traits@_W@std@@V?$allocator@_W@2@@2@XZ 10044ea4 f i libcpmt:wlocale.obj
 0001:00043ebe       ?do_date_order@?$time_get@GV?$istreambuf_iterator@GU?$char_traits@G@std@@@std@@@std@@MBE?AW4dateorder@time_base@2@XZ 10044ebe f i libcpmt:wlocale.obj
 0001:00043ec2       ?do_date_order@?$time_get@_WV?$istreambuf_iterator@_WU?$char_traits@_W@std@@@std@@@std@@MBE?AW4dateorder@time_base@2@XZ 10044ec2 f i libcpmt:wlocale.obj
 0001:00043ec6       ?do_decimal_point@?$_Mpunct@G@std@@MBEGXZ 10044ec6 f i libcpmt:wlocale.obj
 0001:00043ecb       ?do_decimal_point@?$_Mpunct@_W@std@@MBE_WXZ 10044ecb f i libcpmt:wlocale.obj
 0001:00043ed0       ?do_decimal_point@?$numpunct@G@std@@MBEGXZ 10044ed0 f i libcpmt:wlocale.obj
 0001:00043ed5       ?do_decimal_point@?$numpunct@_W@std@@MBE_WXZ 10044ed5 f i libcpmt:wlocale.obj
 0001:00043eda       ?do_encoding@?$codecvt@GDU_Mbstatet@@@std@@MBEHXZ 10044eda f i libcpmt:wlocale.obj
 0001:00043ee6       ?do_encoding@?$codecvt@_WDU_Mbstatet@@@std@@MBEHXZ 10044ee6 f i libcpmt:wlocale.obj
 0001:00043ef2       ?do_falsename@?$numpunct@G@std@@MBE?AV?$basic_string@GU?$char_traits@G@std@@V?$allocator@G@2@@2@XZ 10044ef2 f i libcpmt:wlocale.obj
 0001:00043f0c       ?do_falsename@?$numpunct@_W@std@@MBE?AV?$basic_string@_WU?$char_traits@_W@std@@V?$allocator@_W@2@@2@XZ 10044f0c f i libcpmt:wlocale.obj
 0001:00043f26       ?do_frac_digits@?$_Mpunct@G@std@@MBEHXZ 10044f26 f i libcpmt:wlocale.obj
 0001:00043f2a       ?do_frac_digits@?$_Mpunct@_W@std@@MBEHXZ 10044f2a f i libcpmt:wlocale.obj
 0001:00043f2e       ?do_get@?$messages@G@std@@MBE?AV?$basic_string@GU?$char_traits@G@std@@V?$allocator@G@2@@2@HHHABV32@@Z 10044f2e f i libcpmt:wlocale.obj
 0001:00043f58       ?do_get@?$messages@_W@std@@MBE?AV?$basic_string@_WU?$char_traits@_W@std@@V?$allocator@_W@2@@2@HHHABV32@@Z 10044f58 f i libcpmt:wlocale.obj
 0001:00043f82       ?do_get@?$money_get@GV?$istreambuf_iterator@GU?$char_traits@G@std@@@std@@@std@@MBE?AV?$istreambuf_iterator@GU?$char_traits@G@std@@@2@V32@0_NAAVios_base@2@AAHAAO@Z 10044f82 f i libcpmt:wlocale.obj
 0001:00044054       ?do_get@?$money_get@GV?$istreambuf_iterator@GU?$char_traits@G@std@@@std@@@std@@MBE?AV?$istreambuf_iterator@GU?$char_traits@G@std@@@2@V32@0_NAAVios_base@2@AAHAAV?$basic_string@GU?$char_traits@G@std@@V?$allocator@G@2@@2@@Z 10045054 f i libcpmt:wlocale.obj
 0001:00044164       ?do_get@?$money_get@_WV?$istreambuf_iterator@_WU?$char_traits@_W@std@@@std@@@std@@MBE?AV?$istreambuf_iterator@_WU?$char_traits@_W@std@@@2@V32@0_NAAVios_base@2@AAHAAO@Z 10045164 f i libcpmt:wlocale.obj
 0001:00044236       ?do_get@?$money_get@_WV?$istreambuf_iterator@_WU?$char_traits@_W@std@@@std@@@std@@MBE?AV?$istreambuf_iterator@_WU?$char_traits@_W@std@@@2@V32@0_NAAVios_base@2@AAHAAV?$basic_string@_WU?$char_traits@_W@std@@V?$allocator@_W@2@@2@@Z 10045236 f i libcpmt:wlocale.obj
 0001:00044346       ?do_get@?$num_get@GV?$istreambuf_iterator@GU?$char_traits@G@std@@@std@@@std@@MBE?AV?$istreambuf_iterator@GU?$char_traits@G@std@@@2@V32@0AAVios_base@2@AAHAAG@Z 10045346 f i libcpmt:wlocale.obj
 0001:0004446f       ?do_get@?$num_get@GV?$istreambuf_iterator@GU?$char_traits@G@std@@@std@@@std@@MBE?AV?$istreambuf_iterator@GU?$char_traits@G@std@@@2@V32@0AAVios_base@2@AAHAAI@Z 1004546f f i libcpmt:wlocale.obj
 0001:000444bf       ?do_get@?$num_get@GV?$istreambuf_iterator@GU?$char_traits@G@std@@@std@@@std@@MBE?AV?$istreambuf_iterator@GU?$char_traits@G@std@@@2@V32@0AAVios_base@2@AAHAAJ@Z 100454bf f i libcpmt:wlocale.obj
 0001:000445b4       ?do_get@?$num_get@GV?$istreambuf_iterator@GU?$char_traits@G@std@@@std@@@std@@MBE?AV?$istreambuf_iterator@GU?$char_traits@G@std@@@2@V32@0AAVios_base@2@AAHAAK@Z 100455b4 f i libcpmt:wlocale.obj
 0001:000446a9       ?do_get@?$num_get@GV?$istreambuf_iterator@GU?$char_traits@G@std@@@std@@@std@@MBE?AV?$istreambuf_iterator@GU?$char_traits@G@std@@@2@V32@0AAVios_base@2@AAHAAM@Z 100456a9 f i libcpmt:wlocale.obj
 0001:000447e2       ?do_get@?$num_get@GV?$istreambuf_iterator@GU?$char_traits@G@std@@@std@@@std@@MBE?AV?$istreambuf_iterator@GU?$char_traits@G@std@@@2@V32@0AAVios_base@2@AAHAAN@Z 100457e2 f i libcpmt:wlocale.obj
 0001:0004490f       ?do_get@?$num_get@GV?$istreambuf_iterator@GU?$char_traits@G@std@@@std@@@std@@MBE?AV?$istreambuf_iterator@GU?$char_traits@G@std@@@2@V32@0AAVios_base@2@AAHAAO@Z 1004590f f i libcpmt:wlocale.obj
 0001:0004495c       ?do_get@?$num_get@GV?$istreambuf_iterator@GU?$char_traits@G@std@@@std@@@std@@MBE?AV?$istreambuf_iterator@GU?$char_traits@G@std@@@2@V32@0AAVios_base@2@AAHAAPAX@Z 1004595c f i libcpmt:wlocale.obj
 0001:00044a47       ?do_get@?$num_get@GV?$istreambuf_iterator@GU?$char_traits@G@std@@@std@@@std@@MBE?AV?$istreambuf_iterator@GU?$char_traits@G@std@@@2@V32@0AAVios_base@2@AAHAA_J@Z 10045a47 f i libcpmt:wlocale.obj
 0001:00044b44       ?do_get@?$num_get@GV?$istreambuf_iterator@GU?$char_traits@G@std@@@std@@@std@@MBE?AV?$istreambuf_iterator@GU?$char_traits@G@std@@@2@V32@0AAVios_base@2@AAHAA_K@Z 10045b44 f i libcpmt:wlocale.obj
 0001:00044c41       ?do_get@?$num_get@GV?$istreambuf_iterator@GU?$char_traits@G@std@@@std@@@std@@MBE?AV?$istreambuf_iterator@GU?$char_traits@G@std@@@2@V32@0AAVios_base@2@AAHAA_N@Z 10045c41 f i libcpmt:wlocale.obj
 0001:00044f17       ?do_get@?$num_get@_WV?$istreambuf_iterator@_WU?$char_traits@_W@std@@@std@@@std@@MBE?AV?$istreambuf_iterator@_WU?$char_traits@_W@std@@@2@V32@0AAVios_base@2@AAHAAG@Z 10045f17 f i libcpmt:wlocale.obj
 0001:00045040       ?do_get@?$num_get@_WV?$istreambuf_iterator@_WU?$char_traits@_W@std@@@std@@@std@@MBE?AV?$istreambuf_iterator@_WU?$char_traits@_W@std@@@2@V32@0AAVios_base@2@AAHAAI@Z 10046040 f i libcpmt:wlocale.obj
 0001:00045090       ?do_get@?$num_get@_WV?$istreambuf_iterator@_WU?$char_traits@_W@std@@@std@@@std@@MBE?AV?$istreambuf_iterator@_WU?$char_traits@_W@std@@@2@V32@0AAVios_base@2@AAHAAJ@Z 10046090 f i libcpmt:wlocale.obj
 0001:00045185       ?do_get@?$num_get@_WV?$istreambuf_iterator@_WU?$char_traits@_W@std@@@std@@@std@@MBE?AV?$istreambuf_iterator@_WU?$char_traits@_W@std@@@2@V32@0AAVios_base@2@AAHAAK@Z 10046185 f i libcpmt:wlocale.obj
 0001:0004527a       ?do_get@?$num_get@_WV?$istreambuf_iterator@_WU?$char_traits@_W@std@@@std@@@std@@MBE?AV?$istreambuf_iterator@_WU?$char_traits@_W@std@@@2@V32@0AAVios_base@2@AAHAAM@Z 1004627a f i libcpmt:wlocale.obj
 0001:000453b3       ?do_get@?$num_get@_WV?$istreambuf_iterator@_WU?$char_traits@_W@std@@@std@@@std@@MBE?AV?$istreambuf_iterator@_WU?$char_traits@_W@std@@@2@V32@0AAVios_base@2@AAHAAN@Z 100463b3 f i libcpmt:wlocale.obj
 0001:000454e0       ?do_get@?$num_get@_WV?$istreambuf_iterator@_WU?$char_traits@_W@std@@@std@@@std@@MBE?AV?$istreambuf_iterator@_WU?$char_traits@_W@std@@@2@V32@0AAVios_base@2@AAHAAO@Z 100464e0 f i libcpmt:wlocale.obj
 0001:0004552d       ?do_get@?$num_get@_WV?$istreambuf_iterator@_WU?$char_traits@_W@std@@@std@@@std@@MBE?AV?$istreambuf_iterator@_WU?$char_traits@_W@std@@@2@V32@0AAVios_base@2@AAHAAPAX@Z 1004652d f i libcpmt:wlocale.obj
 0001:00045618       ?do_get@?$num_get@_WV?$istreambuf_iterator@_WU?$char_traits@_W@std@@@std@@@std@@MBE?AV?$istreambuf_iterator@_WU?$char_traits@_W@std@@@2@V32@0AAVios_base@2@AAHAA_J@Z 10046618 f i libcpmt:wlocale.obj
 0001:00045715       ?do_get@?$num_get@_WV?$istreambuf_iterator@_WU?$char_traits@_W@std@@@std@@@std@@MBE?AV?$istreambuf_iterator@_WU?$char_traits@_W@std@@@2@V32@0AAVios_base@2@AAHAA_K@Z 10046715 f i libcpmt:wlocale.obj
 0001:00045812       ?do_get@?$num_get@_WV?$istreambuf_iterator@_WU?$char_traits@_W@std@@@std@@@std@@MBE?AV?$istreambuf_iterator@_WU?$char_traits@_W@std@@@2@V32@0AAVios_base@2@AAHAA_N@Z 10046812 f i libcpmt:wlocale.obj
 0001:00045ae8       ?do_get@?$time_get@GV?$istreambuf_iterator@GU?$char_traits@G@std@@@std@@@std@@MBE?AV?$istreambuf_iterator@GU?$char_traits@G@std@@@2@V32@0AAVios_base@2@AAHPAUtm@@DD@Z 10046ae8 f i libcpmt:wlocale.obj
 0001:00045f99       ?do_get@?$time_get@_WV?$istreambuf_iterator@_WU?$char_traits@_W@std@@@std@@@std@@MBE?AV?$istreambuf_iterator@_WU?$char_traits@_W@std@@@2@V32@0AAVios_base@2@AAHPAUtm@@DD@Z 10046f99 f i libcpmt:wlocale.obj
 0001:0004644a       ?do_get_date@?$time_get@GV?$istreambuf_iterator@GU?$char_traits@G@std@@@std@@@std@@MBE?AV?$istreambuf_iterator@GU?$char_traits@G@std@@@2@V32@0AAVios_base@2@AAHPAUtm@@@Z 1004744a f i libcpmt:wlocale.obj
 0001:00046a1f       ?do_get_date@?$time_get@_WV?$istreambuf_iterator@_WU?$char_traits@_W@std@@@std@@@std@@MBE?AV?$istreambuf_iterator@_WU?$char_traits@_W@std@@@2@V32@0AAVios_base@2@AAHPAUtm@@@Z 10047a1f f i libcpmt:wlocale.obj
 0001:00046ff4       ?do_get_monthname@?$time_get@GV?$istreambuf_iterator@GU?$char_traits@G@std@@@std@@@std@@MBE?AV?$istreambuf_iterator@GU?$char_traits@G@std@@@2@V32@0AAVios_base@2@AAHPAUtm@@@Z 10047ff4 f i libcpmt:wlocale.obj
 0001:00047046       ?do_get_monthname@?$time_get@_WV?$istreambuf_iterator@_WU?$char_traits@_W@std@@@std@@@std@@MBE?AV?$istreambuf_iterator@_WU?$char_traits@_W@std@@@2@V32@0AAVios_base@2@AAHPAUtm@@@Z 10048046 f i libcpmt:wlocale.obj
 0001:00047098       ?do_get_time@?$time_get@GV?$istreambuf_iterator@GU?$char_traits@G@std@@@std@@@std@@MBE?AV?$istreambuf_iterator@GU?$char_traits@G@std@@@2@V32@0AAVios_base@2@AAHPAUtm@@@Z 10048098 f i libcpmt:wlocale.obj
 0001:00047202       ?do_get_time@?$time_get@_WV?$istreambuf_iterator@_WU?$char_traits@_W@std@@@std@@@std@@MBE?AV?$istreambuf_iterator@_WU?$char_traits@_W@std@@@2@V32@0AAVios_base@2@AAHPAUtm@@@Z 10048202 f i libcpmt:wlocale.obj
 0001:0004736c       ?do_get_weekday@?$time_get@GV?$istreambuf_iterator@GU?$char_traits@G@std@@@std@@@std@@MBE?AV?$istreambuf_iterator@GU?$char_traits@G@std@@@2@V32@0AAVios_base@2@AAHPAUtm@@@Z 1004836c f i libcpmt:wlocale.obj
 0001:000473be       ?do_get_weekday@?$time_get@_WV?$istreambuf_iterator@_WU?$char_traits@_W@std@@@std@@@std@@MBE?AV?$istreambuf_iterator@_WU?$char_traits@_W@std@@@2@V32@0AAVios_base@2@AAHPAUtm@@@Z 100483be f i libcpmt:wlocale.obj
 0001:00047410       ?do_get_year@?$time_get@GV?$istreambuf_iterator@GU?$char_traits@G@std@@@std@@@std@@MBE?AV?$istreambuf_iterator@GU?$char_traits@G@std@@@2@V32@0AAVios_base@2@AAHPAUtm@@@Z 10048410 f i libcpmt:wlocale.obj
 0001:000474ca       ?do_get_year@?$time_get@_WV?$istreambuf_iterator@_WU?$char_traits@_W@std@@@std@@@std@@MBE?AV?$istreambuf_iterator@_WU?$char_traits@_W@std@@@2@V32@0AAVios_base@2@AAHPAUtm@@@Z 100484ca f i libcpmt:wlocale.obj
 0001:00047584       ?do_grouping@?$_Mpunct@G@std@@MBE?AV?$basic_string@DU?$char_traits@D@std@@V?$allocator@D@2@@2@XZ 10048584 f i libcpmt:wlocale.obj
 0001:0004759e       ?do_grouping@?$_Mpunct@_W@std@@MBE?AV?$basic_string@DU?$char_traits@D@std@@V?$allocator@D@2@@2@XZ 1004859e f i libcpmt:wlocale.obj
 0001:000475b8       ?do_grouping@?$numpunct@G@std@@MBE?AV?$basic_string@DU?$char_traits@D@std@@V?$allocator@D@2@@2@XZ 100485b8 f i libcpmt:wlocale.obj
 0001:000475d2       ?do_grouping@?$numpunct@_W@std@@MBE?AV?$basic_string@DU?$char_traits@D@std@@V?$allocator@D@2@@2@XZ 100485d2 f i libcpmt:wlocale.obj
 0001:000475ec       ?do_hash@?$collate@G@std@@MBEJPBG0@Z 100485ec f i libcpmt:wlocale.obj
 0001:00047615       ?do_hash@?$collate@_W@std@@MBEJPB_W0@Z 10048615 f i libcpmt:wlocale.obj
 0001:0004763e       ?do_in@?$codecvt@GDU_Mbstatet@@@std@@MBEHAAU_Mbstatet@@PBD1AAPBDPAG3AAPAG@Z 1004863e f i libcpmt:wlocale.obj
 0001:000476cb       ?do_in@?$codecvt@_WDU_Mbstatet@@@std@@MBEHAAU_Mbstatet@@PBD1AAPBDPA_W3AAPA_W@Z 100486cb f i libcpmt:wlocale.obj
 0001:00047758       ?do_is@?$ctype@G@std@@MBEPBGPBG0PAF@Z 10048758 f i libcpmt:wlocale.obj
 0001:0004777b       ?do_is@?$ctype@G@std@@MBE_NFG@Z 1004877b f i libcpmt:wlocale.obj
 0001:0004779e       ?do_is@?$ctype@_W@std@@MBEPB_WPB_W0PAF@Z 1004879e f i libcpmt:wlocale.obj
 0001:000477c1       ?do_is@?$ctype@_W@std@@MBE_NF_W@Z 100487c1 f i libcpmt:wlocale.obj
 0001:000477e4       ?do_length@?$codecvt@GDU_Mbstatet@@@std@@MBEHAAU_Mbstatet@@PBD1I@Z 100487e4 f i libcpmt:wlocale.obj
 0001:0004784f       ?do_length@?$codecvt@_WDU_Mbstatet@@@std@@MBEHAAU_Mbstatet@@PBD1I@Z 1004884f f i libcpmt:wlocale.obj
 0001:000478ba       ?do_max_length@?$codecvt@GDU_Mbstatet@@@std@@MBEHXZ 100488ba f i libcpmt:wlocale.obj
 0001:000478be       ?do_max_length@?$codecvt@_WDU_Mbstatet@@@std@@MBEHXZ 100488be f i libcpmt:wlocale.obj
 0001:000478c2       ?do_narrow@?$ctype@G@std@@MBEDGD@Z 100488c2 f i libcpmt:wlocale.obj
 0001:000478cd       ?do_narrow@?$ctype@G@std@@MBEPBGPBG0DPAD@Z 100488cd f i libcpmt:wlocale.obj
 0001:0004790f       ?do_narrow@?$ctype@_W@std@@MBED_WD@Z 1004890f f i libcpmt:wlocale.obj
 0001:0004791a       ?do_narrow@?$ctype@_W@std@@MBEPB_WPB_W0DPAD@Z 1004891a f i libcpmt:wlocale.obj
 0001:0004795c       ?do_neg_format@?$_Mpunct@G@std@@MBE?AUpattern@money_base@2@XZ 1004895c f i libcpmt:wlocale.obj
 0001:0004796e       ?do_neg_format@?$_Mpunct@_W@std@@MBE?AUpattern@money_base@2@XZ 1004896e f i libcpmt:wlocale.obj
 0001:00047980       ?do_negative_sign@?$_Mpunct@G@std@@MBE?AV?$basic_string@GU?$char_traits@G@std@@V?$allocator@G@2@@2@XZ 10048980 f i libcpmt:wlocale.obj
 0001:0004799a       ?do_negative_sign@?$_Mpunct@_W@std@@MBE?AV?$basic_string@_WU?$char_traits@_W@std@@V?$allocator@_W@2@@2@XZ 1004899a f i libcpmt:wlocale.obj
 0001:000479b4       ?do_open@?$messages@G@std@@MBEHABV?$basic_string@DU?$char_traits@D@std@@V?$allocator@D@2@@2@ABVlocale@2@@Z 100489b4 f i libcpmt:wlocale.obj
 0001:000479ba       ?do_open@?$messages@_W@std@@MBEHABV?$basic_string@DU?$char_traits@D@std@@V?$allocator@D@2@@2@ABVlocale@2@@Z 100489ba f i libcpmt:wlocale.obj
 0001:000479c0       ?do_out@?$codecvt@GDU_Mbstatet@@@std@@MBEHAAU_Mbstatet@@PBG1AAPBGPAD3AAPAD@Z 100489c0 f i libcpmt:wlocale.obj
 0001:00047adf       ?do_out@?$codecvt@_WDU_Mbstatet@@@std@@MBEHAAU_Mbstatet@@PB_W1AAPB_WPAD3AAPAD@Z 10048adf f i libcpmt:wlocale.obj
 0001:00047bfe       ?do_pos_format@?$_Mpunct@G@std@@MBE?AUpattern@money_base@2@XZ 10048bfe f i libcpmt:wlocale.obj
 0001:00047c10       ?do_pos_format@?$_Mpunct@_W@std@@MBE?AUpattern@money_base@2@XZ 10048c10 f i libcpmt:wlocale.obj
 0001:00047c22       ?do_positive_sign@?$_Mpunct@G@std@@MBE?AV?$basic_string@GU?$char_traits@G@std@@V?$allocator@G@2@@2@XZ 10048c22 f i libcpmt:wlocale.obj
 0001:00047c3c       ?do_positive_sign@?$_Mpunct@_W@std@@MBE?AV?$basic_string@_WU?$char_traits@_W@std@@V?$allocator@_W@2@@2@XZ 10048c3c f i libcpmt:wlocale.obj
 0001:00047c56       ?do_put@?$money_put@GV?$ostreambuf_iterator@GU?$char_traits@G@std@@@std@@@std@@MBE?AV?$ostreambuf_iterator@GU?$char_traits@G@std@@@2@V32@_NAAVios_base@2@GABV?$basic_string@GU?$char_traits@G@std@@V?$allocator@G@2@@2@@Z 10048c56 f i libcpmt:wlocale.obj
 0001:00047dd0       ?do_put@?$money_put@GV?$ostreambuf_iterator@GU?$char_traits@G@std@@@std@@@std@@MBE?AV?$ostreambuf_iterator@GU?$char_traits@G@std@@@2@V32@_NAAVios_base@2@GO@Z 10048dd0 f i libcpmt:wlocale.obj
 0001:00047fa2       ?do_put@?$money_put@_WV?$ostreambuf_iterator@_WU?$char_traits@_W@std@@@std@@@std@@MBE?AV?$ostreambuf_iterator@_WU?$char_traits@_W@std@@@2@V32@_NAAVios_base@2@_WABV?$basic_string@_WU?$char_traits@_W@std@@V?$allocator@_W@2@@2@@Z 10048fa2 f i libcpmt:wlocale.obj
 0001:0004811c       ?do_put@?$money_put@_WV?$ostreambuf_iterator@_WU?$char_traits@_W@std@@@std@@@std@@MBE?AV?$ostreambuf_iterator@_WU?$char_traits@_W@std@@@2@V32@_NAAVios_base@2@_WO@Z 1004911c f i libcpmt:wlocale.obj
 0001:000482ee       ?do_put@?$num_put@GV?$ostreambuf_iterator@GU?$char_traits@G@std@@@std@@@std@@MBE?AV?$ostreambuf_iterator@GU?$char_traits@G@std@@@2@V32@AAVios_base@2@GJ@Z 100492ee f i libcpmt:wlocale.obj
 0001:00048373       ?do_put@?$num_put@GV?$ostreambuf_iterator@GU?$char_traits@G@std@@@std@@@std@@MBE?AV?$ostreambuf_iterator@GU?$char_traits@G@std@@@2@V32@AAVios_base@2@GK@Z 10049373 f i libcpmt:wlocale.obj
 0001:000483f8       ?do_put@?$num_put@GV?$ostreambuf_iterator@GU?$char_traits@G@std@@@std@@@std@@MBE?AV?$ostreambuf_iterator@GU?$char_traits@G@std@@@2@V32@AAVios_base@2@GN@Z 100493f8 f i libcpmt:wlocale.obj
 0001:000485a3       ?do_put@?$num_put@GV?$ostreambuf_iterator@GU?$char_traits@G@std@@@std@@@std@@MBE?AV?$ostreambuf_iterator@GU?$char_traits@G@std@@@2@V32@AAVios_base@2@GO@Z 100495a3 f i libcpmt:wlocale.obj
 0001:0004874e       ?do_put@?$num_put@GV?$ostreambuf_iterator@GU?$char_traits@G@std@@@std@@@std@@MBE?AV?$ostreambuf_iterator@GU?$char_traits@G@std@@@2@V32@AAVios_base@2@GPBX@Z 1004974e f i libcpmt:wlocale.obj
 0001:000487bf       ?do_put@?$num_put@GV?$ostreambuf_iterator@GU?$char_traits@G@std@@@std@@@std@@MBE?AV?$ostreambuf_iterator@GU?$char_traits@G@std@@@2@V32@AAVios_base@2@G_J@Z 100497bf f i libcpmt:wlocale.obj
 0001:00048848       ?do_put@?$num_put@GV?$ostreambuf_iterator@GU?$char_traits@G@std@@@std@@@std@@MBE?AV?$ostreambuf_iterator@GU?$char_traits@G@std@@@2@V32@AAVios_base@2@G_K@Z 10049848 f i libcpmt:wlocale.obj
 0001:000488d1       ?do_put@?$num_put@GV?$ostreambuf_iterator@GU?$char_traits@G@std@@@std@@@std@@MBE?AV?$ostreambuf_iterator@GU?$char_traits@G@std@@@2@V32@AAVios_base@2@G_N@Z 100498d1 f i libcpmt:wlocale.obj
 0001:00048b04       ?do_put@?$num_put@_WV?$ostreambuf_iterator@_WU?$char_traits@_W@std@@@std@@@std@@MBE?AV?$ostreambuf_iterator@_WU?$char_traits@_W@std@@@2@V32@AAVios_base@2@_WJ@Z 10049b04 f i libcpmt:wlocale.obj
 0001:00048b89       ?do_put@?$num_put@_WV?$ostreambuf_iterator@_WU?$char_traits@_W@std@@@std@@@std@@MBE?AV?$ostreambuf_iterator@_WU?$char_traits@_W@std@@@2@V32@AAVios_base@2@_WK@Z 10049b89 f i libcpmt:wlocale.obj
 0001:00048c0e       ?do_put@?$num_put@_WV?$ostreambuf_iterator@_WU?$char_traits@_W@std@@@std@@@std@@MBE?AV?$ostreambuf_iterator@_WU?$char_traits@_W@std@@@2@V32@AAVios_base@2@_WN@Z 10049c0e f i libcpmt:wlocale.obj
 0001:00048db9       ?do_put@?$num_put@_WV?$ostreambuf_iterator@_WU?$char_traits@_W@std@@@std@@@std@@MBE?AV?$ostreambuf_iterator@_WU?$char_traits@_W@std@@@2@V32@AAVios_base@2@_WO@Z 10049db9 f i libcpmt:wlocale.obj
 0001:00048f64       ?do_put@?$num_put@_WV?$ostreambuf_iterator@_WU?$char_traits@_W@std@@@std@@@std@@MBE?AV?$ostreambuf_iterator@_WU?$char_traits@_W@std@@@2@V32@AAVios_base@2@_WPBX@Z 10049f64 f i libcpmt:wlocale.obj
 0001:00048fd5       ?do_put@?$num_put@_WV?$ostreambuf_iterator@_WU?$char_traits@_W@std@@@std@@@std@@MBE?AV?$ostreambuf_iterator@_WU?$char_traits@_W@std@@@2@V32@AAVios_base@2@_W_J@Z 10049fd5 f i libcpmt:wlocale.obj
 0001:0004905e       ?do_put@?$num_put@_WV?$ostreambuf_iterator@_WU?$char_traits@_W@std@@@std@@@std@@MBE?AV?$ostreambuf_iterator@_WU?$char_traits@_W@std@@@2@V32@AAVios_base@2@_W_K@Z 1004a05e f i libcpmt:wlocale.obj
 0001:000490e7       ?do_put@?$num_put@_WV?$ostreambuf_iterator@_WU?$char_traits@_W@std@@@std@@@std@@MBE?AV?$ostreambuf_iterator@_WU?$char_traits@_W@std@@@2@V32@AAVios_base@2@_W_N@Z 1004a0e7 f i libcpmt:wlocale.obj
 0001:0004931a       ?do_put@?$time_put@GV?$ostreambuf_iterator@GU?$char_traits@G@std@@@std@@@std@@MBE?AV?$ostreambuf_iterator@GU?$char_traits@G@std@@@2@V32@AAVios_base@2@GPBUtm@@DD@Z 1004a31a f i libcpmt:wlocale.obj
 0001:0004947d       ?do_put@?$time_put@_WV?$ostreambuf_iterator@_WU?$char_traits@_W@std@@@std@@@std@@MBE?AV?$ostreambuf_iterator@_WU?$char_traits@_W@std@@@2@V32@AAVios_base@2@_WPBUtm@@DD@Z 1004a47d f i libcpmt:wlocale.obj
 0001:000495e0       ?do_scan_is@?$ctype@G@std@@MBEPBGFPBG0@Z 1004a5e0 f i libcpmt:wlocale.obj
 0001:0004962c       ?do_scan_is@?$ctype@_W@std@@MBEPB_WFPB_W0@Z 1004a62c f i libcpmt:wlocale.obj
 0001:00049678       ?do_scan_not@?$ctype@G@std@@MBEPBGFPBG0@Z 1004a678 f i libcpmt:wlocale.obj
 0001:000496c4       ?do_scan_not@?$ctype@_W@std@@MBEPB_WFPB_W0@Z 1004a6c4 f i libcpmt:wlocale.obj
 0001:00049710       ?do_thousands_sep@?$_Mpunct@G@std@@MBEGXZ 1004a710 f i libcpmt:wlocale.obj
 0001:00049715       ?do_thousands_sep@?$_Mpunct@_W@std@@MBE_WXZ 1004a715 f i libcpmt:wlocale.obj
 0001:0004971a       ?do_thousands_sep@?$numpunct@G@std@@MBEGXZ 1004a71a f i libcpmt:wlocale.obj
 0001:0004971f       ?do_thousands_sep@?$numpunct@_W@std@@MBE_WXZ 1004a71f f i libcpmt:wlocale.obj
 0001:00049724       ?do_tolower@?$ctype@G@std@@MBEGG@Z 1004a724 f i libcpmt:wlocale.obj
 0001:0004973e       ?do_tolower@?$ctype@G@std@@MBEPBGPAGPBG@Z 1004a73e f i libcpmt:wlocale.obj
 0001:00049778       ?do_tolower@?$ctype@_W@std@@MBEPB_WPA_WPB_W@Z 1004a778 f i libcpmt:wlocale.obj
 0001:000497b2       ?do_tolower@?$ctype@_W@std@@MBE_W_W@Z 1004a7b2 f i libcpmt:wlocale.obj
 0001:000497cc       ?do_toupper@?$ctype@G@std@@MBEGG@Z 1004a7cc f i libcpmt:wlocale.obj
 0001:000497e6       ?do_toupper@?$ctype@G@std@@MBEPBGPAGPBG@Z 1004a7e6 f i libcpmt:wlocale.obj
 0001:00049820       ?do_toupper@?$ctype@_W@std@@MBEPB_WPA_WPB_W@Z 1004a820 f i libcpmt:wlocale.obj
 0001:0004985a       ?do_toupper@?$ctype@_W@std@@MBE_W_W@Z 1004a85a f i libcpmt:wlocale.obj
 0001:00049874       ?do_transform@?$collate@G@std@@MBE?AV?$basic_string@GU?$char_traits@G@std@@V?$allocator@G@2@@2@PBG0@Z 1004a874 f i libcpmt:wlocale.obj
 0001:0004991e       ?do_transform@?$collate@_W@std@@MBE?AV?$basic_string@_WU?$char_traits@_W@std@@V?$allocator@_W@2@@2@PB_W0@Z 1004a91e f i libcpmt:wlocale.obj
 0001:000499c8       ?do_truename@?$numpunct@G@std@@MBE?AV?$basic_string@GU?$char_traits@G@std@@V?$allocator@G@2@@2@XZ 1004a9c8 f i libcpmt:wlocale.obj
 0001:000499e2       ?do_truename@?$numpunct@_W@std@@MBE?AV?$basic_string@_WU?$char_traits@_W@std@@V?$allocator@_W@2@@2@XZ 1004a9e2 f i libcpmt:wlocale.obj
 0001:000499fc       ?do_unshift@?$codecvt@GDU_Mbstatet@@@std@@MBEHAAU_Mbstatet@@PAD1AAPAD@Z 1004a9fc f i libcpmt:wlocale.obj
 0001:00049ab0       ?do_unshift@?$codecvt@_WDU_Mbstatet@@@std@@MBEHAAU_Mbstatet@@PAD1AAPAD@Z 1004aab0 f i libcpmt:wlocale.obj
 0001:00049b64       ?do_widen@?$ctype@G@std@@MBEGD@Z 1004ab64 f i libcpmt:wlocale.obj
 0001:00049b6f       ?do_widen@?$ctype@G@std@@MBEPBDPBD0PAG@Z 1004ab6f f i libcpmt:wlocale.obj
 0001:00049bae       ?do_widen@?$ctype@_W@std@@MBEPBDPBD0PA_W@Z 1004abae f i libcpmt:wlocale.obj
 0001:00049bed       ?do_widen@?$ctype@_W@std@@MBE_WD@Z 1004abed f i libcpmt:wlocale.obj
 0001:00049bf8       ?empty@?$basic_string@GU?$char_traits@G@std@@V?$allocator@G@2@@std@@QBE_NXZ 1004abf8 f i libcpmt:wlocale.obj
 0001:00049c02       ?empty@?$basic_string@_WU?$char_traits@_W@std@@V?$allocator@_W@2@@std@@QBE_NXZ 1004ac02 f i libcpmt:wlocale.obj
 0001:00049c0c       ?end@?$basic_string@GU?$char_traits@G@std@@V?$allocator@G@2@@std@@QAE?AV?$_String_iterator@V?$_String_val@U?$_Simple_types@G@std@@@std@@@2@XZ 1004ac0c f i libcpmt:wlocale.obj
 0001:00049c2f       ?end@?$basic_string@_WU?$char_traits@_W@std@@V?$allocator@_W@2@@std@@QAE?AV?$_String_iterator@V?$_String_val@U?$_Simple_types@_W@std@@@std@@@2@XZ 1004ac2f f i libcpmt:wlocale.obj
 0001:00049c52       ?eof@?$_WChar_traits@G@std@@SAGXZ 1004ac52 f i libcpmt:wlocale.obj
 0001:00049c58       ?eof@?$_WChar_traits@_W@std@@SAGXZ 1004ac58 f i libcpmt:wlocale.obj
 0001:00049c5e       ?eq_int_type@?$_WChar_traits@G@std@@SA_NABG0@Z 1004ac5e f i libcpmt:wlocale.obj
 0001:00049c77       ?eq_int_type@?$_WChar_traits@_W@std@@SA_NABG0@Z 1004ac77 f i libcpmt:wlocale.obj
 0001:00049c90       ?equal@?$istreambuf_iterator@GU?$char_traits@G@std@@@std@@QBE_NABV12@@Z 1004ac90 f i libcpmt:wlocale.obj
 0001:00049cd8       ?equal@?$istreambuf_iterator@_WU?$char_traits@_W@std@@@std@@QBE_NABV12@@Z 1004acd8 f i libcpmt:wlocale.obj
 0001:00049d20       ?erase@?$basic_string@DU?$char_traits@D@std@@V?$allocator@D@2@@std@@QAEAAV12@I@Z 1004ad20 f i libcpmt:wlocale.obj
 0001:00049d52       ?erase@?$basic_string@GU?$char_traits@G@std@@V?$allocator@G@2@@std@@QAEAAV12@I@Z 1004ad52 f i libcpmt:wlocale.obj
 0001:00049d7b       ?erase@?$basic_string@_WU?$char_traits@_W@std@@V?$allocator@_W@2@@std@@QAEAAV12@I@Z 1004ad7b f i libcpmt:wlocale.obj
 0001:00049da4       ?falsename@?$numpunct@G@std@@QBE?AV?$basic_string@GU?$char_traits@G@std@@V?$allocator@G@2@@2@XZ 1004ada4 f i libcpmt:wlocale.obj
 0001:00049dd1       ?falsename@?$numpunct@_W@std@@QBE?AV?$basic_string@_WU?$char_traits@_W@std@@V?$allocator@_W@2@@2@XZ 1004add1 f i libcpmt:wlocale.obj
 0001:00049dfe       ?frac_digits@?$_Mpunct@G@std@@QBEHXZ 1004adfe f i libcpmt:wlocale.obj
 0001:00049e1c       ?frac_digits@?$_Mpunct@_W@std@@QBEHXZ 1004ae1c f i libcpmt:wlocale.obj
 0001:00049e3a       ?get_monthname@?$time_get@GV?$istreambuf_iterator@GU?$char_traits@G@std@@@std@@@std@@QBE?AV?$istreambuf_iterator@GU?$char_traits@G@std@@@2@V32@0AAVios_base@2@AAHPAUtm@@@Z 1004ae3a f i libcpmt:wlocale.obj
 0001:00049e80       ?get_monthname@?$time_get@_WV?$istreambuf_iterator@_WU?$char_traits@_W@std@@@std@@@std@@QBE?AV?$istreambuf_iterator@_WU?$char_traits@_W@std@@@2@V32@0AAVios_base@2@AAHPAUtm@@@Z 1004ae80 f i libcpmt:wlocale.obj
 0001:00049ec6       ?get_weekday@?$time_get@GV?$istreambuf_iterator@GU?$char_traits@G@std@@@std@@@std@@QBE?AV?$istreambuf_iterator@GU?$char_traits@G@std@@@2@V32@0AAVios_base@2@AAHPAUtm@@@Z 1004aec6 f i libcpmt:wlocale.obj
 0001:00049f0c       ?get_weekday@?$time_get@_WV?$istreambuf_iterator@_WU?$char_traits@_W@std@@@std@@@std@@QBE?AV?$istreambuf_iterator@_WU?$char_traits@_W@std@@@2@V32@0AAVios_base@2@AAHPAUtm@@@Z 1004af0c f i libcpmt:wlocale.obj
 0001:00049f52       ?get_year@?$time_get@GV?$istreambuf_iterator@GU?$char_traits@G@std@@@std@@@std@@QBE?AV?$istreambuf_iterator@GU?$char_traits@G@std@@@2@V32@0AAVios_base@2@AAHPAUtm@@@Z 1004af52 f i libcpmt:wlocale.obj
 0001:00049f98       ?get_year@?$time_get@_WV?$istreambuf_iterator@_WU?$char_traits@_W@std@@@std@@@std@@QBE?AV?$istreambuf_iterator@_WU?$char_traits@_W@std@@@2@V32@0AAVios_base@2@AAHPAUtm@@@Z 1004af98 f i libcpmt:wlocale.obj
 0001:00049fde       ?gptr@?$basic_streambuf@GU?$char_traits@G@std@@@std@@IBEPAGXZ 1004afde f i libcpmt:wlocale.obj
 0001:00049fe4       ?gptr@?$basic_streambuf@_WU?$char_traits@_W@std@@@std@@IBEPA_WXZ 1004afe4 f i libcpmt:wlocale.obj
 0001:00049fea       ?grouping@?$_Mpunct@G@std@@QBE?AV?$basic_string@DU?$char_traits@D@std@@V?$allocator@D@2@@2@XZ 1004afea f i libcpmt:wlocale.obj
 0001:0004a017       ?grouping@?$_Mpunct@_W@std@@QBE?AV?$basic_string@DU?$char_traits@D@std@@V?$allocator@D@2@@2@XZ 1004b017 f i libcpmt:wlocale.obj
 0001:0004a044       ?grouping@?$numpunct@G@std@@QBE?AV?$basic_string@DU?$char_traits@D@std@@V?$allocator@D@2@@2@XZ 1004b044 f i libcpmt:wlocale.obj
 0001:0004a071       ?grouping@?$numpunct@_W@std@@QBE?AV?$basic_string@DU?$char_traits@D@std@@V?$allocator@D@2@@2@XZ 1004b071 f i libcpmt:wlocale.obj
 0001:0004a09e       ?insert@?$basic_string@GU?$char_traits@G@std@@V?$allocator@G@2@@std@@QAEAAV12@IIG@Z 1004b09e f i libcpmt:wlocale.obj
 0001:0004a131       ?insert@?$basic_string@_WU?$char_traits@_W@std@@V?$allocator@_W@2@@std@@QAEAAV12@II_W@Z 1004b131 f i libcpmt:wlocale.obj
 0001:0004a1c4       ?is@?$ctype@G@std@@QBE_NFG@Z 1004b1c4 f i libcpmt:wlocale.obj
 0001:0004a1f1       ?is@?$ctype@_W@std@@QBE_NF_W@Z 1004b1f1 f i libcpmt:wlocale.obj
 0001:0004a21e       ?length@?$_Char_traits@GG@std@@SAIPBG@Z 1004b21e f i libcpmt:wlocale.obj
 0001:0004a23a       ?length@?$_WChar_traits@G@std@@SAIPBG@Z 1004b23a f i libcpmt:wlocale.obj
 0001:0004a256       ?length@?$_WChar_traits@_W@std@@SAIPB_W@Z 1004b256 f i libcpmt:wlocale.obj
 0001:0004a276       ?max_size@?$_Default_allocator_traits@V?$allocator@G@std@@@std@@SAIABV?$allocator@G@2@@Z 1004b276 f i libcpmt:wlocale.obj
 0001:0004a27c       ?max_size@?$_Default_allocator_traits@V?$allocator@_W@std@@@std@@SAIABV?$allocator@_W@2@@Z 1004b27c f i libcpmt:wlocale.obj
 0001:0004a282       ?max_size@?$basic_string@GU?$char_traits@G@std@@V?$allocator@G@2@@std@@QBEIXZ 1004b282 f i libcpmt:wlocale.obj
 0001:0004a288       ?max_size@?$basic_string@_WU?$char_traits@_W@std@@V?$allocator@_W@2@@std@@QBEIXZ 1004b288 f i libcpmt:wlocale.obj
 0001:0004a28e       ?move@?$_Char_traits@GG@std@@SAPAGQAGQBGI@Z 1004b28e f i libcpmt:wlocale.obj
 0001:0004a2b1       ?move@?$_Char_traits@_WG@std@@SAPA_WQA_WQB_WI@Z 1004b2b1 f i libcpmt:wlocale.obj
 0001:0004a2d4       ?name@locale@std@@QBE?AV?$basic_string@DU?$char_traits@D@std@@V?$allocator@D@2@@2@XZ 1004b2d4 f i libcpmt:wlocale.obj
 0001:0004a3a9       ?narrow@?$ctype@G@std@@QBEDGD@Z 1004b3a9 f i libcpmt:wlocale.obj
 0001:0004a3d6       ?narrow@?$ctype@_W@std@@QBED_WD@Z 1004b3d6 f i libcpmt:wlocale.obj
 0001:0004a403       ?neg_format@?$_Mpunct@G@std@@QBE?AUpattern@money_base@2@XZ 1004b403 f i libcpmt:wlocale.obj
 0001:0004a430       ?neg_format@?$_Mpunct@_W@std@@QBE?AUpattern@money_base@2@XZ 1004b430 f i libcpmt:wlocale.obj
 0001:0004a45d       ?negative_sign@?$_Mpunct@G@std@@QBE?AV?$basic_string@GU?$char_traits@G@std@@V?$allocator@G@2@@2@XZ 1004b45d f i libcpmt:wlocale.obj
 0001:0004a48a       ?negative_sign@?$_Mpunct@_W@std@@QBE?AV?$basic_string@_WU?$char_traits@_W@std@@V?$allocator@_W@2@@2@XZ 1004b48a f i libcpmt:wlocale.obj
 0001:0004a4b7       ?pos_format@?$_Mpunct@G@std@@QBE?AUpattern@money_base@2@XZ 1004b4b7 f i libcpmt:wlocale.obj
 0001:0004a4e4       ?pos_format@?$_Mpunct@_W@std@@QBE?AUpattern@money_base@2@XZ 1004b4e4 f i libcpmt:wlocale.obj
 0001:0004a511       ?positive_sign@?$_Mpunct@G@std@@QBE?AV?$basic_string@GU?$char_traits@G@std@@V?$allocator@G@2@@2@XZ 1004b511 f i libcpmt:wlocale.obj
 0001:0004a53e       ?positive_sign@?$_Mpunct@_W@std@@QBE?AV?$basic_string@_WU?$char_traits@_W@std@@V?$allocator@_W@2@@2@XZ 1004b53e f i libcpmt:wlocale.obj
 0001:0004a56b       ?push_back@?$basic_string@GU?$char_traits@G@std@@V?$allocator@G@2@@std@@QAEXG@Z 1004b56b f i libcpmt:wlocale.obj
 0001:0004a5b6       ?push_back@?$basic_string@_WU?$char_traits@_W@std@@V?$allocator@_W@2@@std@@QAEX_W@Z 1004b5b6 f i libcpmt:wlocale.obj
 0001:0004a601       ?resize@?$basic_string@GU?$char_traits@G@std@@V?$allocator@G@2@@std@@QAEXIG@Z 1004b601 f i libcpmt:wlocale.obj
 0001:0004a62c       ?resize@?$basic_string@_WU?$char_traits@_W@std@@V?$allocator@_W@2@@std@@QAEXI_W@Z 1004b62c f i libcpmt:wlocale.obj
 0001:0004a657       ?sbumpc@?$basic_streambuf@GU?$char_traits@G@std@@@std@@QAEGXZ 1004b657 f i libcpmt:wlocale.obj
 0001:0004a6a2       ?sbumpc@?$basic_streambuf@_WU?$char_traits@_W@std@@@std@@QAEGXZ 1004b6a2 f i libcpmt:wlocale.obj
 0001:0004a6ed       ?select_on_container_copy_construction@?$_Default_allocator_traits@V?$allocator@G@std@@@std@@SA?AV?$allocator@G@2@ABV32@@Z 1004b6ed f i libcpmt:wlocale.obj
 0001:0004a6f7       ?select_on_container_copy_construction@?$_Default_allocator_traits@V?$allocator@_W@std@@@std@@SA?AV?$allocator@_W@2@ABV32@@Z 1004b6f7 f i libcpmt:wlocale.obj
 0001:0004a701       ?sgetc@?$basic_streambuf@GU?$char_traits@G@std@@@std@@QAEGXZ 1004b701 f i libcpmt:wlocale.obj
 0001:0004a73e       ?sgetc@?$basic_streambuf@_WU?$char_traits@_W@std@@@std@@QAEGXZ 1004b73e f i libcpmt:wlocale.obj
 0001:0004a77b       ?size@?$basic_string@GU?$char_traits@G@std@@V?$allocator@G@2@@std@@QBEIXZ 1004b77b f i libcpmt:wlocale.obj
 0001:0004a77f       ?size@?$basic_string@_WU?$char_traits@_W@std@@V?$allocator@_W@2@@std@@QBEIXZ 1004b77f f i libcpmt:wlocale.obj
 0001:0004a783       ?sputc@?$basic_streambuf@GU?$char_traits@G@std@@@std@@QAEGG@Z 1004b783 f i libcpmt:wlocale.obj
 0001:0004a7dd       ?sputc@?$basic_streambuf@_WU?$char_traits@_W@std@@@std@@QAEG_W@Z 1004b7dd f i libcpmt:wlocale.obj
 0001:0004a837       ?thousands_sep@?$_Mpunct@G@std@@QBEGXZ 1004b837 f i libcpmt:wlocale.obj
 0001:0004a855       ?thousands_sep@?$_Mpunct@_W@std@@QBE_WXZ 1004b855 f i libcpmt:wlocale.obj
 0001:0004a873       ?thousands_sep@?$numpunct@G@std@@QBEGXZ 1004b873 f i libcpmt:wlocale.obj
 0001:0004a891       ?thousands_sep@?$numpunct@_W@std@@QBE_WXZ 1004b891 f i libcpmt:wlocale.obj
 0001:0004a8af       ?to_char_type@?$_WChar_traits@G@std@@SAGABG@Z 1004b8af f i libcpmt:wlocale.obj
 0001:0004a8bc       ?to_char_type@?$_WChar_traits@_W@std@@SA_WABG@Z 1004b8bc f i libcpmt:wlocale.obj
 0001:0004a8c9       ?to_int_type@?$_WChar_traits@G@std@@SAGABG@Z 1004b8c9 f i libcpmt:wlocale.obj
 0001:0004a8d6       ?to_int_type@?$_WChar_traits@_W@std@@SAGAB_W@Z 1004b8d6 f i libcpmt:wlocale.obj
 0001:0004a8e3       ?tolower@?$ctype@G@std@@QBEGG@Z 1004b8e3 f i libcpmt:wlocale.obj
 0001:0004a90c       ?tolower@?$ctype@_W@std@@QBE_W_W@Z 1004b90c f i libcpmt:wlocale.obj
 0001:0004a935       ?truename@?$numpunct@G@std@@QBE?AV?$basic_string@GU?$char_traits@G@std@@V?$allocator@G@2@@2@XZ 1004b935 f i libcpmt:wlocale.obj
 0001:0004a962       ?truename@?$numpunct@_W@std@@QBE?AV?$basic_string@_WU?$char_traits@_W@std@@V?$allocator@_W@2@@2@XZ 1004b962 f i libcpmt:wlocale.obj
 0001:0004a98f       ?widen@?$ctype@G@std@@QBEGD@Z 1004b98f f i libcpmt:wlocale.obj
 0001:0004a9b8       ?widen@?$ctype@G@std@@QBEPBDPBD0PAG@Z 1004b9b8 f i libcpmt:wlocale.obj
 0001:0004a9e8       ?widen@?$ctype@_W@std@@QBEPBDPBD0PA_W@Z 1004b9e8 f i libcpmt:wlocale.obj
 0001:0004aa18       ?widen@?$ctype@_W@std@@QBE_WD@Z 1004ba18 f i libcpmt:wlocale.obj
 0001:0004aa41       _wmemcpy                   1004ba41 f i libcpmt:wlocale.obj
 0001:0004aa60       _wmemset                   1004ba60 f i libcpmt:wlocale.obj
 0001:0004aa94       ??$_Copy_unchecked@PADV?$ostreambuf_iterator@DU?$char_traits@D@std@@@std@@@std@@YA?AV?$ostreambuf_iterator@DU?$char_traits@D@std@@@0@PAD0V10@@Z 1004ba94 f i libcpmt:xlocale.obj
 0001:0004aacb       ??$_Find_elem@D$0M@@std@@YAIAAY0M@$$CBDD@Z 1004bacb f i libcpmt:xlocale.obj
 0001:0004aaf9       ??$_Get_unwrapped@AAPAD@std@@YA?A_TAAPAD@Z 1004baf9 f i libcpmt:xlocale.obj
 0001:0004ab05       ??$_Get_unwrapped_n@AAV?$ostreambuf_iterator@DU?$char_traits@D@std@@@std@@H@std@@YA?A_TAAV?$ostreambuf_iterator@DU?$char_traits@D@std@@@0@H@Z 1004bb05 f i libcpmt:xlocale.obj
 0001:0004ab0f       ??$_Getvals@D@?$_Mpunct@D@std@@IAEXDPBUlconv@@@Z 1004bb0f f i libcpmt:xlocale.obj
 0001:0004abaa       ??$_Getvals@D@?$time_get@DV?$istreambuf_iterator@DU?$char_traits@D@std@@@std@@@std@@IAEXDABV_Locinfo@1@@Z 1004bbaa f i libcpmt:xlocale.obj
 0001:0004ac2f       ??$_Hash_array_representation@D@std@@YAIQBDI@Z 1004bc2f f i libcpmt:xlocale.obj
 0001:0004ac4d       ??$_Idl_distance@PADPAD@std@@YA?A_PABQAD0@Z 1004bc4d f i libcpmt:xlocale.obj
 0001:0004ac5f       ??$_LStrcoll@D@std@@YAHPBD000PBU_Collvec@@@Z 1004bc5f f i libcpmt:xlocale.obj
 0001:0004ac6a       ??$_LStrxfrm@D@std@@YAIPAD0PBD1PBU_Collvec@@@Z 1004bc6a f i libcpmt:xlocale.obj
 0001:0004ac75       ??$_Refancy@PAD$0A@@std@@YAPADPAD@Z 1004bc75 f i libcpmt:xlocale.obj
 0001:0004ac7f       ??$_Seek_wrapped@V?$ostreambuf_iterator@DU?$char_traits@D@std@@@std@@V12@@std@@YAXAAV?$ostreambuf_iterator@DU?$char_traits@D@std@@@0@$$QAV10@@Z 1004bc7f f i libcpmt:xlocale.obj
 0001:0004ac99       ??$addressof@$$CBV?$moneypunct@D$00@std@@@std@@YAPBV?$moneypunct@D$00@0@ABV10@@Z 1004bc99 f i libcpmt:xlocale.obj
 0001:0004aca3       ??$addressof@$$CBV?$moneypunct@D$0A@@std@@@std@@YAPBV?$moneypunct@D$0A@@0@ABV10@@Z 1004bca3 f i libcpmt:xlocale.obj
 0001:0004acad       ??$copy@PADV?$ostreambuf_iterator@DU?$char_traits@D@std@@@std@@@std@@YA?AV?$ostreambuf_iterator@DU?$char_traits@D@std@@@0@PAD0V10@@Z 1004bcad f i libcpmt:xlocale.obj
 0001:0004ace4       ??$forward@V?$ostreambuf_iterator@DU?$char_traits@D@std@@@std@@@std@@YA$$QAV?$ostreambuf_iterator@DU?$char_traits@D@std@@@0@AAV10@@Z 1004bce4 f i libcpmt:xlocale.obj
 0001:0004acee       ??$use_facet@V?$collate@D@std@@@std@@YAABV?$collate@D@0@ABVlocale@0@@Z 1004bcee f i libcpmt:xlocale.obj
 0001:0004ada8       ??$use_facet@V?$messages@D@std@@@std@@YAABV?$messages@D@0@ABVlocale@0@@Z 1004bda8 f i libcpmt:xlocale.obj
 0001:0004ae62       ??$use_facet@V?$money_get@DV?$istreambuf_iterator@DU?$char_traits@D@std@@@std@@@std@@@std@@YAABV?$money_get@DV?$istreambuf_iterator@DU?$char_traits@D@std@@@std@@@0@ABVlocale@0@@Z 1004be62 f i libcpmt:xlocale.obj
 0001:0004af1c       ??$use_facet@V?$money_put@DV?$ostreambuf_iterator@DU?$char_traits@D@std@@@std@@@std@@@std@@YAABV?$money_put@DV?$ostreambuf_iterator@DU?$char_traits@D@std@@@std@@@0@ABVlocale@0@@Z 1004bf1c f i libcpmt:xlocale.obj
 0001:0004afd6       ??$use_facet@V?$moneypunct@D$00@std@@@std@@YAABV?$moneypunct@D$00@0@ABVlocale@0@@Z 1004bfd6 f i libcpmt:xlocale.obj
 0001:0004b090       ??$use_facet@V?$moneypunct@D$0A@@std@@@std@@YAABV?$moneypunct@D$0A@@0@ABVlocale@0@@Z 1004c090 f i libcpmt:xlocale.obj
 0001:0004b14a       ??$use_facet@V?$time_get@DV?$istreambuf_iterator@DU?$char_traits@D@std@@@std@@@std@@@std@@YAABV?$time_get@DV?$istreambuf_iterator@DU?$char_traits@D@std@@@std@@@0@ABVlocale@0@@Z 1004c14a f i libcpmt:xlocale.obj
 0001:0004b204       ??$use_facet@V?$time_put@DV?$ostreambuf_iterator@DU?$char_traits@D@std@@@std@@@std@@@std@@YAABV?$time_put@DV?$ostreambuf_iterator@DU?$char_traits@D@std@@@std@@@0@ABVlocale@0@@Z 1004c204 f i libcpmt:xlocale.obj
 0001:0004b2be       ??0?$_Mpunct@D@std@@QAE@ABV_Locinfo@1@I_N1@Z 1004c2be f i libcpmt:xlocale.obj
 0001:0004b309       ??0?$_String_const_iterator@V?$_String_val@U?$_Simple_types@D@std@@@std@@@std@@QAE@PBDPBU_Container_base0@1@@Z 1004c309 f i libcpmt:xlocale.obj
 0001:0004b31a       ??0?$_String_const_iterator@V?$_String_val@U?$_Simple_types@D@std@@@std@@@std@@QAE@XZ 1004c31a f i libcpmt:xlocale.obj
 0001:0004b320       ??0?$_String_iterator@V?$_String_val@U?$_Simple_types@D@std@@@std@@@std@@QAE@PBDPBU_Container_base0@1@@Z 1004c320 f i libcpmt:xlocale.obj
 0001:0004b331       ??0?$basic_string@DU?$char_traits@D@std@@V?$allocator@D@2@@std@@QAE@ABV01@@Z 1004c331 f i libcpmt:xlocale.obj
 0001:0004b357       ??0?$basic_string@DU?$char_traits@D@std@@V?$allocator@D@2@@std@@QAE@QBDI@Z 1004c357 f i libcpmt:xlocale.obj
 0001:0004b39f       ??0?$collate@D@std@@QAE@ABV_Locinfo@1@I@Z 1004c39f f i libcpmt:xlocale.obj
 0001:0004b3d1       ??0?$messages@D@std@@QAE@ABV_Locinfo@1@I@Z 1004c3d1 f i libcpmt:xlocale.obj
 0001:0004b3f0       ??0?$money_get@DV?$istreambuf_iterator@DU?$char_traits@D@std@@@std@@@std@@QAE@ABV_Locinfo@1@I@Z 1004c3f0 f i libcpmt:xlocale.obj
 0001:0004b40f       ??0?$money_put@DV?$ostreambuf_iterator@DU?$char_traits@D@std@@@std@@@std@@QAE@ABV_Locinfo@1@I@Z 1004c40f f i libcpmt:xlocale.obj
 0001:0004b42e       ??0?$moneypunct@D$00@std@@QAE@ABV_Locinfo@1@I_N@Z 1004c42e f i libcpmt:xlocale.obj
 0001:0004b45e       ??0?$moneypunct@D$0A@@std@@QAE@ABV_Locinfo@1@I_N@Z 1004c45e f i libcpmt:xlocale.obj
 0001:0004b48e       ??0?$time_get@DV?$istreambuf_iterator@DU?$char_traits@D@std@@@std@@@std@@QAE@ABV_Locinfo@1@I@Z 1004c48e f i libcpmt:xlocale.obj
 0001:0004b4cd       ??0?$time_put@DV?$ostreambuf_iterator@DU?$char_traits@D@std@@@std@@@std@@QAE@ABV_Locinfo@1@I@Z 1004c4cd f i libcpmt:xlocale.obj
 0001:0004b500       ??1?$_Mpunct@D@std@@MAE@XZ 1004c500 f i libcpmt:xlocale.obj
 0001:0004b51b       ??1?$_Tidy_guard@V?$_Mpunct@D@std@@@std@@QAE@XZ 1004c51b f i libcpmt:xlocale.obj
 0001:0004b528       ??1?$_Tidy_guard@V?$time_get@DV?$istreambuf_iterator@DU?$char_traits@D@std@@@std@@@std@@@std@@QAE@XZ 1004c528 f i libcpmt:xlocale.obj
 0001:0004b535       ??1?$collate@D@std@@MAE@XZ 1004c535 f i libcpmt:xlocale.obj
 0001:0004b555       ??1?$messages@D@std@@MAE@XZ 1004c555 f i libcpmt:xlocale.obj
 0001:0004b55c       ??1?$money_get@DV?$istreambuf_iterator@DU?$char_traits@D@std@@@std@@@std@@MAE@XZ 1004c55c f i libcpmt:xlocale.obj
 0001:0004b563       ??1?$money_put@DV?$ostreambuf_iterator@DU?$char_traits@D@std@@@std@@@std@@MAE@XZ 1004c563 f i libcpmt:xlocale.obj
 0001:0004b56a       ??1?$moneypunct@D$00@std@@MAE@XZ 1004c56a f i libcpmt:xlocale.obj
 0001:0004b585       ??1?$moneypunct@D$0A@@std@@MAE@XZ 1004c585 f i libcpmt:xlocale.obj
 0001:0004b5a0       ??1?$time_get@DV?$istreambuf_iterator@DU?$char_traits@D@std@@@std@@@std@@MAE@XZ 1004c5a0 f i libcpmt:xlocale.obj
 0001:0004b5bb       ??1?$time_put@DV?$ostreambuf_iterator@DU?$char_traits@D@std@@@std@@@std@@MAE@XZ 1004c5bb f i libcpmt:xlocale.obj
 0001:0004b5db       ??8?$_String_const_iterator@V?$_String_val@U?$_Simple_types@D@std@@@std@@@std@@QBE_NABV01@@Z 1004c5db f i libcpmt:xlocale.obj
 0001:0004b5f0       ??D?$_String_const_iterator@V?$_String_val@U?$_Simple_types@D@std@@@std@@@std@@QBEABDXZ 1004c5f0 f i libcpmt:xlocale.obj
 0001:0004b5f3       ??D?$_String_iterator@V?$_String_val@U?$_Simple_types@D@std@@@std@@@std@@QBEAADXZ 1004c5f3 f i libcpmt:xlocale.obj
 0001:0004b5f6       ??E?$_String_const_iterator@V?$_String_val@U?$_Simple_types@D@std@@@std@@@std@@QAEAAV01@XZ 1004c5f6 f i libcpmt:xlocale.obj
 0001:0004b5fb       ??E?$_String_iterator@V?$_String_val@U?$_Simple_types@D@std@@@std@@@std@@QAEAAV01@XZ 1004c5fb f i libcpmt:xlocale.obj
 0001:0004b600       ??E?$ostreambuf_iterator@DU?$char_traits@D@std@@@std@@QAEAAV01@H@Z 1004c600 f i libcpmt:xlocale.obj
 0001:0004b605       ??G?$_String_iterator@V?$_String_val@U?$_Simple_types@D@std@@@std@@@std@@QBE?AV01@H@Z 1004c605 f i libcpmt:xlocale.obj
 0001:0004b61a       ??H?$_String_iterator@V?$_String_val@U?$_Simple_types@D@std@@@std@@@std@@QBE?AV01@H@Z 1004c61a f i libcpmt:xlocale.obj
 0001:0004b62f       ??Y?$_String_const_iterator@V?$_String_val@U?$_Simple_types@D@std@@@std@@@std@@QAEAAV01@H@Z 1004c62f f i libcpmt:xlocale.obj
 0001:0004b640       ??Y?$_String_iterator@V?$_String_val@U?$_Simple_types@D@std@@@std@@@std@@QAEAAV01@H@Z 1004c640 f i libcpmt:xlocale.obj
 0001:0004b651       ??Z?$_String_const_iterator@V?$_String_val@U?$_Simple_types@D@std@@@std@@@std@@QAEAAV01@H@Z 1004c651 f i libcpmt:xlocale.obj
 0001:0004b662       ??Z?$_String_iterator@V?$_String_val@U?$_Simple_types@D@std@@@std@@@std@@QAEAAV01@H@Z 1004c662 f i libcpmt:xlocale.obj
 0001:0004b673       ??_E?$_Mpunct@D@std@@MAEPAXI@Z 1004c673 f i libcpmt:xlocale.obj
 0001:0004b673       ??_G?$_Mpunct@D@std@@MAEPAXI@Z 1004c673 f i libcpmt:xlocale.obj
 0001:0004b6ac       ??_E?$collate@D@std@@MAEPAXI@Z 1004c6ac f i libcpmt:xlocale.obj
 0001:0004b6ac       ??_G?$collate@D@std@@MAEPAXI@Z 1004c6ac f i libcpmt:xlocale.obj
 0001:0004b6d6       ??_E?$messages@D@std@@MAEPAXI@Z 1004c6d6 f i libcpmt:xlocale.obj
 0001:0004b6d6       ??_G?$messages@D@std@@MAEPAXI@Z 1004c6d6 f i libcpmt:xlocale.obj
 0001:0004b701       ??_E?$money_get@DV?$istreambuf_iterator@DU?$char_traits@D@std@@@std@@@std@@MAEPAXI@Z 1004c701 f i libcpmt:xlocale.obj
 0001:0004b701       ??_G?$money_get@DV?$istreambuf_iterator@DU?$char_traits@D@std@@@std@@@std@@MAEPAXI@Z 1004c701 f i libcpmt:xlocale.obj
 0001:0004b72c       ??_G?$money_put@DV?$ostreambuf_iterator@DU?$char_traits@D@std@@@std@@@std@@MAEPAXI@Z 1004c72c f i libcpmt:xlocale.obj
 0001:0004b72c       ??_E?$money_put@DV?$ostreambuf_iterator@DU?$char_traits@D@std@@@std@@@std@@MAEPAXI@Z 1004c72c f i libcpmt:xlocale.obj
 0001:0004b757       ??_G?$moneypunct@D$00@std@@MAEPAXI@Z 1004c757 f i libcpmt:xlocale.obj
 0001:0004b757       ??_E?$moneypunct@D$00@std@@MAEPAXI@Z 1004c757 f i libcpmt:xlocale.obj
 0001:0004b790       ??_E?$moneypunct@D$0A@@std@@MAEPAXI@Z 1004c790 f i libcpmt:xlocale.obj
 0001:0004b790       ??_G?$moneypunct@D$0A@@std@@MAEPAXI@Z 1004c790 f i libcpmt:xlocale.obj
 0001:0004b7c9       ??_G?$time_get@DV?$istreambuf_iterator@DU?$char_traits@D@std@@@std@@@std@@MAEPAXI@Z 1004c7c9 f i libcpmt:xlocale.obj
 0001:0004b7c9       ??_E?$time_get@DV?$istreambuf_iterator@DU?$char_traits@D@std@@@std@@@std@@MAEPAXI@Z 1004c7c9 f i libcpmt:xlocale.obj
 0001:0004b802       ??_E?$time_put@DV?$ostreambuf_iterator@DU?$char_traits@D@std@@@std@@@std@@MAEPAXI@Z 1004c802 f i libcpmt:xlocale.obj
 0001:0004b802       ??_G?$time_put@DV?$ostreambuf_iterator@DU?$char_traits@D@std@@@std@@@std@@MAEPAXI@Z 1004c802 f i libcpmt:xlocale.obj
 0001:0004b82c       ?_Compat@?$_String_const_iterator@V?$_String_val@U?$_Simple_types@D@std@@@std@@@std@@QBEXABV12@@Z 1004c82c f i libcpmt:xlocale.obj
 0001:0004b82f       ?_Construct_lv_contents@?$basic_string@DU?$char_traits@D@std@@V?$allocator@D@2@@std@@AAEXABV12@@Z 1004c82f f i libcpmt:xlocale.obj
 0001:0004b8b1       ?_Getcat@?$collate@D@std@@SAIPAPBVfacet@locale@2@PBV42@@Z 1004c8b1 f i libcpmt:xlocale.obj
 0001:0004b97b       ?_Getcat@?$messages@D@std@@SAIPAPBVfacet@locale@2@PBV42@@Z 1004c97b f i libcpmt:xlocale.obj
 0001:0004b9fd       ?_Getcat@?$money_get@DV?$istreambuf_iterator@DU?$char_traits@D@std@@@std@@@std@@SAIPAPBVfacet@locale@2@PBV42@@Z 1004c9fd f i libcpmt:xlocale.obj
 0001:0004ba7f       ?_Getcat@?$money_put@DV?$ostreambuf_iterator@DU?$char_traits@D@std@@@std@@@std@@SAIPAPBVfacet@locale@2@PBV42@@Z 1004ca7f f i libcpmt:xlocale.obj
 0001:0004bb01       ?_Getcat@?$moneypunct@D$00@std@@SAIPAPBVfacet@locale@2@PBV42@@Z 1004cb01 f i libcpmt:xlocale.obj
 0001:0004bba6       ?_Getcat@?$moneypunct@D$0A@@std@@SAIPAPBVfacet@locale@2@PBV42@@Z 1004cba6 f i libcpmt:xlocale.obj
 0001:0004bc4c       ?_Getcat@?$time_get@DV?$istreambuf_iterator@DU?$char_traits@D@std@@@std@@@std@@SAIPAPBVfacet@locale@2@PBV42@@Z 1004cc4c f i libcpmt:xlocale.obj
 0001:0004bcd3       ?_Getcat@?$time_put@DV?$ostreambuf_iterator@DU?$char_traits@D@std@@@std@@@std@@SAIPAPBVfacet@locale@2@PBV42@@Z 1004ccd3 f i libcpmt:xlocale.obj
 0001:0004bd64       ?_Getfmt@?$time_get@DV?$istreambuf_iterator@DU?$char_traits@D@std@@@std@@@std@@IBE?AV?$istreambuf_iterator@DU?$char_traits@D@std@@@2@V32@0AAVios_base@2@AAHPAUtm@@PBD@Z 1004cd64 f i libcpmt:xlocale.obj
 0001:0004bee0       ?_Getint@?$time_get@DV?$istreambuf_iterator@DU?$char_traits@D@std@@@std@@@std@@ABAHAAV?$istreambuf_iterator@DU?$char_traits@D@std@@@2@0HHAAHABV?$ctype@D@2@@Z 1004cee0 f i libcpmt:xlocale.obj
 0001:0004c17f       ?_Getmfld@?$money_get@DV?$istreambuf_iterator@DU?$char_traits@D@std@@@std@@@std@@ABE?AV?$basic_string@DU?$char_traits@D@std@@V?$allocator@D@2@@2@AAV?$istreambuf_iterator@DU?$char_traits@D@std@@@2@0_NAAVios_base@2@AAY0M@D@Z 1004d17f f i libcpmt:xlocale.obj
 0001:0004cf26       ?_Gettnames@_Locinfo@std@@QBE?AV_Timevec@2@XZ 1004df26 f i libcpmt:xlocale.obj
 0001:0004cf3d       ?_Init@?$_Mpunct@D@std@@IAEXABV_Locinfo@2@_N@Z 1004df3d f i libcpmt:xlocale.obj
 0001:0004d03a       ?_Init@?$collate@D@std@@IAEXABV_Locinfo@2@@Z 1004e03a f i libcpmt:xlocale.obj
 0001:0004d050       ?_Init@?$messages@D@std@@IAEXABV_Locinfo@2@@Z 1004e050 f i libcpmt:xlocale.obj
 0001:0004d053       ?_Init@?$money_get@DV?$istreambuf_iterator@DU?$char_traits@D@std@@@std@@@std@@IAEXABV_Locinfo@2@@Z 1004e053 f i libcpmt:xlocale.obj
 0001:0004d056       ?_Init@?$money_put@DV?$ostreambuf_iterator@DU?$char_traits@D@std@@@std@@@std@@IAEXABV_Locinfo@2@@Z 1004e056 f i libcpmt:xlocale.obj
 0001:0004d059       ?_Init@?$time_get@DV?$istreambuf_iterator@DU?$char_traits@D@std@@@std@@@std@@IAEXABV_Locinfo@2@@Z 1004e059 f i libcpmt:xlocale.obj
 0001:0004d09f       ?_Init@?$time_put@DV?$ostreambuf_iterator@DU?$char_traits@D@std@@@std@@@std@@IAEXABV_Locinfo@2@@Z 1004e09f f i libcpmt:xlocale.obj
 0001:0004d0d2       ?_Makexloc@_Locimp@locale@std@@CAXABV_Locinfo@3@HPAV123@PBV23@@Z 1004e0d2 f   libcpmt:xlocale.obj
 0001:0004d4e2       ?_Makpat@?$_Mpunct@D@std@@AAEXAAUpattern@money_base@2@III@Z 1004e4e2 f i libcpmt:xlocale.obj
 0001:0004d533       ?_Put@?$money_put@DV?$ostreambuf_iterator@DU?$char_traits@D@std@@@std@@@std@@CA?AV?$ostreambuf_iterator@DU?$char_traits@D@std@@@2@V32@V?$_String_const_iterator@V?$_String_val@U?$_Simple_types@D@std@@@std@@@2@I@Z 1004e533 f i libcpmt:xlocale.obj
 0001:0004d577       ?_Putmfld@?$money_put@DV?$ostreambuf_iterator@DU?$char_traits@D@std@@@std@@@std@@ABE?AV?$ostreambuf_iterator@DU?$char_traits@D@std@@@2@V32@_NAAVios_base@2@D1V?$basic_string@DU?$char_traits@D@std@@V?$allocator@D@2@@2@D@Z 1004e577 f i libcpmt:xlocale.obj
 0001:0004dd12       ?_Rep@?$money_put@DV?$ostreambuf_iterator@DU?$char_traits@D@std@@@std@@@std@@CA?AV?$ostreambuf_iterator@DU?$char_traits@D@std@@@2@V32@DI@Z 1004ed12 f i libcpmt:xlocale.obj
 0001:0004dd49       ?_Tidy@?$_Mpunct@D@std@@AAEXXZ 1004ed49 f i libcpmt:xlocale.obj
 0001:0004dd7b       ?_Tidy@?$time_get@DV?$istreambuf_iterator@DU?$char_traits@D@std@@@std@@@std@@AAEXXZ 1004ed7b f i libcpmt:xlocale.obj
 0001:0004dda3       ?begin@?$basic_string@DU?$char_traits@D@std@@V?$allocator@D@2@@std@@QAE?AV?$_String_iterator@V?$_String_val@U?$_Simple_types@D@std@@@std@@@2@XZ 1004eda3 f i libcpmt:xlocale.obj
 0001:0004ddbc       ?curr_symbol@?$_Mpunct@D@std@@QBE?AV?$basic_string@DU?$char_traits@D@std@@V?$allocator@D@2@@2@XZ 1004edbc f i libcpmt:xlocale.obj
 0001:0004dde9       ?date_order@?$time_get@DV?$istreambuf_iterator@DU?$char_traits@D@std@@@std@@@std@@QBE?AW4dateorder@time_base@2@XZ 1004ede9 f i libcpmt:xlocale.obj
 0001:0004de07       ?decimal_point@?$_Mpunct@D@std@@QBEDXZ 1004ee07 f i libcpmt:xlocale.obj
 0001:0004de25       ?do_close@?$messages@D@std@@MBEXH@Z 1004ee25 f i libcpmt:xlocale.obj
 0001:0004de28       ?do_compare@?$collate@D@std@@MBEHPBD000@Z 1004ee28 f i libcpmt:xlocale.obj
 0001:0004de65       ?do_curr_symbol@?$_Mpunct@D@std@@MBE?AV?$basic_string@DU?$char_traits@D@std@@V?$allocator@D@2@@2@XZ 1004ee65 f i libcpmt:xlocale.obj
 0001:0004de7f       ?do_date_order@?$time_get@DV?$istreambuf_iterator@DU?$char_traits@D@std@@@std@@@std@@MBE?AW4dateorder@time_base@2@XZ 1004ee7f f i libcpmt:xlocale.obj
 0001:0004de83       ?do_decimal_point@?$_Mpunct@D@std@@MBEDXZ 1004ee83 f i libcpmt:xlocale.obj
 0001:0004de87       ?do_frac_digits@?$_Mpunct@D@std@@MBEHXZ 1004ee87 f i libcpmt:xlocale.obj
 0001:0004de8b       ?do_get@?$messages@D@std@@MBE?AV?$basic_string@DU?$char_traits@D@std@@V?$allocator@D@2@@2@HHHABV32@@Z 1004ee8b f i libcpmt:xlocale.obj
 0001:0004deb5       ?do_get@?$money_get@DV?$istreambuf_iterator@DU?$char_traits@D@std@@@std@@@std@@MBE?AV?$istreambuf_iterator@DU?$char_traits@D@std@@@2@V32@0_NAAVios_base@2@AAHAAO@Z 1004eeb5 f i libcpmt:xlocale.obj
 0001:0004df87       ?do_get@?$money_get@DV?$istreambuf_iterator@DU?$char_traits@D@std@@@std@@@std@@MBE?AV?$istreambuf_iterator@DU?$char_traits@D@std@@@2@V32@0_NAAVios_base@2@AAHAAV?$basic_string@DU?$char_traits@D@std@@V?$allocator@D@2@@2@@Z 1004ef87 f i libcpmt:xlocale.obj
 0001:0004e08d       ?do_get@?$time_get@DV?$istreambuf_iterator@DU?$char_traits@D@std@@@std@@@std@@MBE?AV?$istreambuf_iterator@DU?$char_traits@D@std@@@2@V32@0AAVios_base@2@AAHPAUtm@@DD@Z 1004f08d f i libcpmt:xlocale.obj
 0001:0004e53e       ?do_get_date@?$time_get@DV?$istreambuf_iterator@DU?$char_traits@D@std@@@std@@@std@@MBE?AV?$istreambuf_iterator@DU?$char_traits@D@std@@@2@V32@0AAVios_base@2@AAHPAUtm@@@Z 1004f53e f i libcpmt:xlocale.obj
 0001:0004eaef       ?do_get_monthname@?$time_get@DV?$istreambuf_iterator@DU?$char_traits@D@std@@@std@@@std@@MBE?AV?$istreambuf_iterator@DU?$char_traits@D@std@@@2@V32@0AAVios_base@2@AAHPAUtm@@@Z 1004faef f i libcpmt:xlocale.obj
 0001:0004eb41       ?do_get_time@?$time_get@DV?$istreambuf_iterator@DU?$char_traits@D@std@@@std@@@std@@MBE?AV?$istreambuf_iterator@DU?$char_traits@D@std@@@2@V32@0AAVios_base@2@AAHPAUtm@@@Z 1004fb41 f i libcpmt:xlocale.obj
 0001:0004ecab       ?do_get_weekday@?$time_get@DV?$istreambuf_iterator@DU?$char_traits@D@std@@@std@@@std@@MBE?AV?$istreambuf_iterator@DU?$char_traits@D@std@@@2@V32@0AAVios_base@2@AAHPAUtm@@@Z 1004fcab f i libcpmt:xlocale.obj
 0001:0004ecfd       ?do_get_year@?$time_get@DV?$istreambuf_iterator@DU?$char_traits@D@std@@@std@@@std@@MBE?AV?$istreambuf_iterator@DU?$char_traits@D@std@@@2@V32@0AAVios_base@2@AAHPAUtm@@@Z 1004fcfd f i libcpmt:xlocale.obj
 0001:0004edb7       ?do_grouping@?$_Mpunct@D@std@@MBE?AV?$basic_string@DU?$char_traits@D@std@@V?$allocator@D@2@@2@XZ 1004fdb7 f i libcpmt:xlocale.obj
 0001:0004edd1       ?do_hash@?$collate@D@std@@MBEJPBD0@Z 1004fdd1 f i libcpmt:xlocale.obj
 0001:0004edf6       ?do_neg_format@?$_Mpunct@D@std@@MBE?AUpattern@money_base@2@XZ 1004fdf6 f i libcpmt:xlocale.obj
 0001:0004ee08       ?do_negative_sign@?$_Mpunct@D@std@@MBE?AV?$basic_string@DU?$char_traits@D@std@@V?$allocator@D@2@@2@XZ 1004fe08 f i libcpmt:xlocale.obj
 0001:0004ee22       ?do_open@?$messages@D@std@@MBEHABV?$basic_string@DU?$char_traits@D@std@@V?$allocator@D@2@@2@ABVlocale@2@@Z 1004fe22 f i libcpmt:xlocale.obj
 0001:0004ee28       ?do_pos_format@?$_Mpunct@D@std@@MBE?AUpattern@money_base@2@XZ 1004fe28 f i libcpmt:xlocale.obj
 0001:0004ee3a       ?do_positive_sign@?$_Mpunct@D@std@@MBE?AV?$basic_string@DU?$char_traits@D@std@@V?$allocator@D@2@@2@XZ 1004fe3a f i libcpmt:xlocale.obj
 0001:0004ee54       ?do_put@?$money_put@DV?$ostreambuf_iterator@DU?$char_traits@D@std@@@std@@@std@@MBE?AV?$ostreambuf_iterator@DU?$char_traits@D@std@@@2@V32@_NAAVios_base@2@DABV?$basic_string@DU?$char_traits@D@std@@V?$allocator@D@2@@2@@Z 1004fe54 f i libcpmt:xlocale.obj
 0001:0004efcc       ?do_put@?$money_put@DV?$ostreambuf_iterator@DU?$char_traits@D@std@@@std@@@std@@MBE?AV?$ostreambuf_iterator@DU?$char_traits@D@std@@@2@V32@_NAAVios_base@2@DO@Z 1004ffcc f i libcpmt:xlocale.obj
 0001:0004f19b       ?do_put@?$time_put@DV?$ostreambuf_iterator@DU?$char_traits@D@std@@@std@@@std@@MBE?AV?$ostreambuf_iterator@DU?$char_traits@D@std@@@2@V32@AAVios_base@2@DPBUtm@@DD@Z 1005019b f i libcpmt:xlocale.obj
 0001:0004f2ed       ?do_thousands_sep@?$_Mpunct@D@std@@MBEDXZ 100502ed f i libcpmt:xlocale.obj
 0001:0004f2f1       ?do_transform@?$collate@D@std@@MBE?AV?$basic_string@DU?$char_traits@D@std@@V?$allocator@D@2@@2@PBD0@Z 100502f1 f i libcpmt:xlocale.obj
 0001:0004f398       ?empty@?$basic_string@DU?$char_traits@D@std@@V?$allocator@D@2@@std@@QBE_NXZ 10050398 f i libcpmt:xlocale.obj
 0001:0004f3a2       ?end@?$basic_string@DU?$char_traits@D@std@@V?$allocator@D@2@@std@@QAE?AV?$_String_iterator@V?$_String_val@U?$_Simple_types@D@std@@@std@@@2@XZ 100503a2 f i libcpmt:xlocale.obj
 0001:0004f3c3       ?frac_digits@?$_Mpunct@D@std@@QBEHXZ 100503c3 f i libcpmt:xlocale.obj
 0001:0004f3e1       ?get_monthname@?$time_get@DV?$istreambuf_iterator@DU?$char_traits@D@std@@@std@@@std@@QBE?AV?$istreambuf_iterator@DU?$char_traits@D@std@@@2@V32@0AAVios_base@2@AAHPAUtm@@@Z 100503e1 f i libcpmt:xlocale.obj
 0001:0004f427       ?get_weekday@?$time_get@DV?$istreambuf_iterator@DU?$char_traits@D@std@@@std@@@std@@QBE?AV?$istreambuf_iterator@DU?$char_traits@D@std@@@2@V32@0AAVios_base@2@AAHPAUtm@@@Z 10050427 f i libcpmt:xlocale.obj
 0001:0004f46d       ?get_year@?$time_get@DV?$istreambuf_iterator@DU?$char_traits@D@std@@@std@@@std@@QBE?AV?$istreambuf_iterator@DU?$char_traits@D@std@@@2@V32@0AAVios_base@2@AAHPAUtm@@@Z 1005046d f i libcpmt:xlocale.obj
 0001:0004f4b3       ?grouping@?$_Mpunct@D@std@@QBE?AV?$basic_string@DU?$char_traits@D@std@@V?$allocator@D@2@@2@XZ 100504b3 f i libcpmt:xlocale.obj
 0001:0004f4e0       ?is@?$ctype@D@std@@QBE_NFD@Z 100504e0 f i libcpmt:xlocale.obj
 0001:0004f4ff       ?narrow@?$ctype@D@std@@QBEDDD@Z 100504ff f i libcpmt:xlocale.obj
 0001:0004f52c       ?neg_format@?$_Mpunct@D@std@@QBE?AUpattern@money_base@2@XZ 1005052c f i libcpmt:xlocale.obj
 0001:0004f559       ?negative_sign@?$_Mpunct@D@std@@QBE?AV?$basic_string@DU?$char_traits@D@std@@V?$allocator@D@2@@2@XZ 10050559 f i libcpmt:xlocale.obj
 0001:0004f586       ?pos_format@?$_Mpunct@D@std@@QBE?AUpattern@money_base@2@XZ 10050586 f i libcpmt:xlocale.obj
 0001:0004f5b3       ?positive_sign@?$_Mpunct@D@std@@QBE?AV?$basic_string@DU?$char_traits@D@std@@V?$allocator@D@2@@2@XZ 100505b3 f i libcpmt:xlocale.obj
 0001:0004f5e0       ?select_on_container_copy_construction@?$_Default_allocator_traits@V?$allocator@D@std@@@std@@SA?AV?$allocator@D@2@ABV32@@Z 100505e0 f i libcpmt:xlocale.obj
 0001:0004f5ea       ?thousands_sep@?$_Mpunct@D@std@@QBEDXZ 100505ea f i libcpmt:xlocale.obj
 0001:0004f608       ?widen@?$ctype@D@std@@QBEDD@Z 10050608 f i libcpmt:xlocale.obj
 0001:0004f631       __Stolx                    10050631 f   libcpmt:xstol.obj
 0001:0004f6fe       __Stoul                    100506fe f   libcpmt:xstoul.obj
 0001:0004f71c       __Stoulx                   1005071c f   libcpmt:xstoul.obj
 0001:0004f8ea       __Stoll                    100508ea f   libcpmt:xstoll.obj
 0001:0004f908       __Stollx                   10050908 f   libcpmt:xstoll.obj
 0001:0004fa05       __Stoull                   10050a05 f   libcpmt:xstoull.obj
 0001:0004fa23       __Stoullx                  10050a23 f   libcpmt:xstoull.obj
 0001:0004fc50       __Getcoll                  10050c50 f   libcpmt:xstrcoll.obj
 0001:0004fc79       __Strcoll                  10050c79 f   libcpmt:xstrcoll.obj
 0001:0004fd30       __Getdateorder             10050d30 f   libcpmt:xdateord.obj
 0001:0004fdb6       __Mbrtowc                  10050db6 f   libcpmt:xmbtowc.obj
 0001:0004ffa0       __Wcscoll                  10050fa0 f   libcpmt:xwcscoll.obj
 0001:0005004a       _wmemcmp                   1005104a f i libcpmt:xwcscoll.obj
 0001:0005008d       ??$?RE@__crt_internal_free_policy@@QBEXQBE@Z 1005108d f i libcpmt:xwcsxfrm.obj
 0001:000500a1       ??0?$__crt_unique_heap_ptr@EU__crt_internal_free_policy@@@@QAE@QAE@Z 100510a1 f i libcpmt:xwcsxfrm.obj
 0001:000500b2       ??1?$__crt_unique_heap_ptr@EU__crt_internal_free_policy@@@@QAE@XZ 100510b2 f i libcpmt:xwcsxfrm.obj
 0001:000500c6       ??B?$__crt_unique_heap_ptr@EU__crt_internal_free_policy@@@@QBE_NXZ 100510c6 f i libcpmt:xwcsxfrm.obj
 0001:000500cd       ?get@?$__crt_unique_heap_ptr@EU__crt_internal_free_policy@@@@QBEPAEXZ 100510cd f i libcpmt:xwcsxfrm.obj
 0001:000500d0       ?is_valid@?$__crt_unique_heap_ptr@EU__crt_internal_free_policy@@@@QBE_NXZ 100510d0 f i libcpmt:xwcsxfrm.obj
 0001:000500d7       ?release@?$__crt_unique_heap_ptr@EU__crt_internal_free_policy@@@@QAEXXZ 100510d7 f i libcpmt:xwcsxfrm.obj
 0001:000500eb       __Wcsxfrm                  100510eb f   libcpmt:xwcsxfrm.obj
 0001:000501e7       __Getwctype                100511e7 f   libcpmt:xgetwctype.obj
 0001:0005020f       __Getwctypes               1005120f f   libcpmt:xgetwctype.obj
 0001:00050235       __Towlower                 10051235 f   libcpmt:xtowlower.obj
 0001:000502ad       __Towupper                 100512ad f   libcpmt:xtowupper.obj
 0001:0005032a       __Strxfrm                  1005132a f   libcpmt:xstrxfrm.obj
 0001:000503fe       ___crtCompareStringA       100513fe f   libcpmt:StlCompareStringA.obj
 0001:000506fd       ___crtCompareStringW       100516fd f   libcpmt:StlCompareStringW.obj
 0001:0005077a       ___crtLCMapStringW         1005177a f   libcpmt:StlLCMapStringW.obj
 0001:000507c6       _GetModuleHandleA@4        100517c6 f   kernel32:KERNEL32.dll
 0001:000507cc       _GetProcAddress@8          100517cc f   kernel32:KERNEL32.dll
 0001:000507d2       _FindFirstFileA@8          100517d2 f   kernel32:KERNEL32.dll
 0001:000507d8       _FindNextFileA@8           100517d8 f   kernel32:KERNEL32.dll
 0001:000507de       _CloseHandle@4             100517de f   kernel32:KERNEL32.dll
 0001:000507e4       _ReleaseSemaphore@12       100517e4 f   kernel32:KERNEL32.dll
 0001:000507ea       _ReleaseMutex@4            100517ea f   kernel32:KERNEL32.dll
 0001:000507f0       _WaitForSingleObject@8     100517f0 f   kernel32:KERNEL32.dll
 0001:000507f6       _CreateMutexA@12           100517f6 f   kernel32:KERNEL32.dll
 0001:000507fc       _CreateThread@24           100517fc f   kernel32:KERNEL32.dll
 0001:00050802       _TerminateThread@8         10051802 f   kernel32:KERNEL32.dll
 0001:00050808       _CreateSemaphoreA@16       10051808 f   kernel32:KERNEL32.dll
 0001:0005080e       _UnhandledExceptionFilter@4 1005180e f   kernel32:KERNEL32.dll
 0001:00050814       _SetUnhandledExceptionFilter@4 10051814 f   kernel32:KERNEL32.dll
 0001:0005081a       _GetCurrentProcess@0       1005181a f   kernel32:KERNEL32.dll
 0001:00050820       _TerminateProcess@8        10051820 f   kernel32:KERNEL32.dll
 0001:00050826       _IsProcessorFeaturePresent@4 10051826 f   kernel32:KERNEL32.dll
 0001:0005082c       _QueryPerformanceCounter@4 1005182c f   kernel32:KERNEL32.dll
 0001:00050832       _GetCurrentProcessId@0     10051832 f   kernel32:KERNEL32.dll
 0001:00050838       _GetCurrentThreadId@0      10051838 f   kernel32:KERNEL32.dll
 0001:0005083e       _GetSystemTimeAsFileTime@4 1005183e f   kernel32:KERNEL32.dll
 0001:00050844       _InitializeSListHead@4     10051844 f   kernel32:KERNEL32.dll
 0001:0005084a       _IsDebuggerPresent@0       1005184a f   kernel32:KERNEL32.dll
 0001:00050850       _GetStartupInfoW@4         10051850 f   kernel32:KERNEL32.dll
 0001:00050856       _GetModuleHandleW@4        10051856 f   kernel32:KERNEL32.dll
 0001:0005085c       _FormatMessageA@28         1005185c f   kernel32:KERNEL32.dll
 0001:00050862       _WideCharToMultiByte@32    10051862 f   kernel32:KERNEL32.dll
 0001:00050868       _EnterCriticalSection@4    10051868 f   kernel32:KERNEL32.dll
 0001:0005086e       _LeaveCriticalSection@4    1005186e f   kernel32:KERNEL32.dll
 0001:00050874       _InitializeCriticalSectionEx@12 10051874 f   kernel32:KERNEL32.dll
 0001:0005087a       _DeleteCriticalSection@4   1005187a f   kernel32:KERNEL32.dll
 0001:00050880       _LocalFree@4               10051880 f   kernel32:KERNEL32.dll
 0001:00050886       _EncodePointer@4           10051886 f   kernel32:KERNEL32.dll
 0001:0005088c       _DecodePointer@4           1005188c f   kernel32:KERNEL32.dll
 0001:00050892       _MultiByteToWideChar@24    10051892 f   kernel32:KERNEL32.dll
 0001:00050898       _LCMapStringEx@36          10051898 f   kernel32:KERNEL32.dll
 0001:0005089e       _GetLocaleInfoEx@16        1005189e f   kernel32:KERNEL32.dll
 0001:000508a4       _GetStringTypeW@16         100518a4 f   kernel32:KERNEL32.dll
 0001:000508aa       _CompareStringEx@36        100518aa f   kernel32:KERNEL32.dll
 0001:000508b0       _GetCPInfo@8               100518b0 f   kernel32:KERNEL32.dll
 0001:000508c0       _memcpy                    100518c0 f   libvcruntime:memcpy.obj
 0001:00050fa0       _strchr                    10051fa0 f   libvcruntime:strchr.obj
 0001:0005100e       ___from_strstr_to_strchr   1005200e     libvcruntime:strchr.obj
 0001:00051120       _memmove                   10052120 f   libvcruntime:memmove.obj
 0001:00051800       _memset                    10052800 f   libvcruntime:memset.obj
 0001:000519b0       ??$__crt_interlocked_exchange_pointer@$$A6AXXZP6AXXZ@@YAP6AXXZPDS6AXXZQ6AXXZ@Z 100529b0 f i libvcruntime:purevirt.obj
 0001:000519c0       ??$__crt_interlocked_read_pointer@$$A6AXXZ@@YAP6AXXZPDS6AXXZ@Z 100529c0 f i libvcruntime:purevirt.obj
 0001:000519cc       ?__crt_interlocked_read_32@@YAHPDH@Z 100529cc f i libvcruntime:purevirt.obj
 0001:000519d8       __get_purecall_handler     100529d8 f   libvcruntime:purevirt.obj
 0001:000519de       __purecall                 100529de f   libvcruntime:purevirt.obj
 0001:00051a01       __set_purecall_handler     10052a01 f   libvcruntime:purevirt.obj
 0001:00051a13       ___DestructExceptionObject 10052a13 f   libvcruntime:ehhelpers.obj
 0001:00051adc       ?_CallMemberFunction0@@YGXQAX0@Z 10052adc f i libvcruntime:ehhelpers.obj
 0001:00051b5a       ?raw_name@type_info@@QBEPBDXZ 10052b5a f i libvcruntime:ehhelpers.obj
 0001:00051b5e       __IsExceptionObjectToBeDestroyed 10052b5e f   libvcruntime:ehhelpers.obj
 0001:00051b8d       __SetWinRTOutOfMemoryExceptionCallback 10052b8d f   libvcruntime:ehhelpers.obj
 0001:00051b9d       ___AdjustPointer           10052b9d f   libvcruntime:ehhelpers.obj
 0001:00051bcb       ___FrameUnwindFilter       10052bcb f   libvcruntime:ehhelpers.obj
 0001:00051c36       ___GetPlatformExceptionInfo 10052c36 f   libvcruntime:ehhelpers.obj
 0001:00051c95       ___current_exception       10052c95 f   libvcruntime:ehhelpers.obj
 0001:00051ca0       ___current_exception_context 10052ca0 f   libvcruntime:ehhelpers.obj
 0001:00051cab       ___processing_throw        10052cab f   libvcruntime:ehhelpers.obj
 0001:00051cb6       ___std_terminate           10052cb6 f   libvcruntime:ehhelpers.obj
 0001:00051cbb       __is_exception_typeof      10052cbb f   libvcruntime:ehhelpers.obj
 0001:00051d88       ??$?RD@__crt_public_free_policy@@QBEXQBD@Z 10052d88 f i libvcruntime:std_exception.obj
 0001:00051d9c       ??0?$__crt_unique_heap_ptr@DU__crt_public_free_policy@@@@QAE@QAD@Z 10052d9c f i libvcruntime:std_exception.obj
 0001:00051dad       ??1?$__crt_unique_heap_ptr@DU__crt_public_free_policy@@@@QAE@XZ 10052dad f i libvcruntime:std_exception.obj
 0001:00051dc1       ??B?$__crt_unique_heap_ptr@DU__crt_public_free_policy@@@@QBE_NXZ 10052dc1 f i libvcruntime:std_exception.obj
 0001:00051dc8       ?detach@?$__crt_unique_heap_ptr@DU__crt_public_free_policy@@@@QAEPADXZ 10052dc8 f i libvcruntime:std_exception.obj
 0001:00051dce       ?get@?$__crt_unique_heap_ptr@DU__crt_public_free_policy@@@@QBEPADXZ 10052dce f i libvcruntime:std_exception.obj
 0001:00051dd1       ?is_valid@?$__crt_unique_heap_ptr@DU__crt_public_free_policy@@@@QBE_NXZ 10052dd1 f i libvcruntime:std_exception.obj
 0001:00051dd8       ?release@?$__crt_unique_heap_ptr@DU__crt_public_free_policy@@@@QAEXXZ 10052dd8 f i libvcruntime:std_exception.obj
 0001:00051dec       ___std_exception_copy      10052dec f   libvcruntime:std_exception.obj
 0001:00051e67       ___std_exception_destroy   10052e67 f   libvcruntime:std_exception.obj
 0001:00051e8d       __CxxThrowException@8      10052e8d f   libvcruntime:throw.obj
 0001:00051f14       ??$?0AAViterator@TryBlockMap@__FrameHandler3@@AAV012@$0A@@?$pair@Viterator@TryBlockMap@__FrameHandler3@@V123@@std@@QAE@AAViterator@TryBlockMap@__FrameHandler3@@0@Z 10052f14 f i libvcruntime:trnsctrl.obj
 0001:00051f41       ??$forward@AAViterator@TryBlockMap@__FrameHandler3@@@std@@YAAAViterator@TryBlockMap@__FrameHandler3@@AAV123@@Z 10052f41 f i libvcruntime:trnsctrl.obj
 0001:00051f4b       ??0iterator@TryBlockMap@__FrameHandler3@@QAE@AAV12@I@Z 10052f4b f i libvcruntime:trnsctrl.obj
 0001:00051f64       ?GetRangeOfTrysToCheck@__FrameHandler3@@SA?AU?$pair@Viterator@TryBlockMap@__FrameHandler3@@V123@@std@@AAVTryBlockMap@1@HPAXPBU_s_FuncInfo@@H@Z 10052f64 f   libvcruntime:trnsctrl.obj
 0001:00051ff0       ?_CallCatchBlock2@@YAPAXPAUEHRegistrationNode@@PBU_s_FuncInfo@@PAXHK@Z 10052ff0 f   libvcruntime:trnsctrl.obj
 0001:00052064       ?_CallSETranslator@@YAHPAUEHExceptionRecord@@PAUEHRegistrationNode@@PAX2PBU_s_FuncInfo@@H1@Z 10053064 f   libvcruntime:trnsctrl.obj
 0001:00052197       ?_JumpToContinuation@@YGXPAXPAUEHRegistrationNode@@@Z 10053197 f   libvcruntime:trnsctrl.obj
 0001:000521d3       ?_UnwindNestedFrames@@YGXPAUEHRegistrationNode@@PAUEHExceptionRecord@@@Z 100531d3 f   libvcruntime:trnsctrl.obj
 0001:0005223a       __CatchGuardHandler        1005323a f   libvcruntime:trnsctrl.obj
 0001:00052277       __CreateFrameInfo          10053277 f   libvcruntime:trnsctrl.obj
 0001:000522a4       __FindAndUnlinkFrame       100532a4 f   libvcruntime:trnsctrl.obj
 0001:000522fe       __TranslatorGuardHandler   100532fe f   libvcruntime:trnsctrl.obj
 0001:000523c2       ___CxxFrameHandler         100533c2 f   libvcruntime:trnsctrl.obj
 0001:00052405       ___CxxFrameHandler2        10053405 f   libvcruntime:trnsctrl.obj
 0001:00052448       ___CxxFrameHandler3        10053448 f   libvcruntime:trnsctrl.obj
 0001:0005248b       ___CxxLongjmpUnwind@4      1005348b f   libvcruntime:trnsctrl.obj
 0001:000524c0       _memchr                    100534c0 f   libvcruntime:memchr.obj
 0001:000525e0       __except_handler4          100535e0 f   libvcruntime:chandler4.obj
 0001:000527a5       ??$?RD@__crt_internal_free_policy@@QBEXQBD@Z 100537a5 f i libvcruntime:std_type_info.obj
 0001:000527b9       ??$?RX@__crt_internal_free_policy@@QBEXQBX@Z 100537b9 f i libvcruntime:std_type_info.obj
 0001:000527cd       ??$__crt_interlocked_compare_exchange_pointer@$$CBDPAD$$T@@YAPBDPDSBDQAD$$T@Z 100537cd f i libvcruntime:std_type_info.obj
 0001:000527e3       ??$__crt_interlocked_read_pointer@$$CBD@@YAPBDPDSBD@Z 100537e3 f i libvcruntime:std_type_info.obj
 0001:000527ef       ??0?$__crt_unique_heap_ptr@DU__crt_internal_free_policy@@@@QAE@QAD@Z 100537ef f i libvcruntime:std_type_info.obj
 0001:00052800       ??0?$__crt_unique_heap_ptr@XU__crt_internal_free_policy@@@@QAE@QAX@Z 10053800 f i libvcruntime:std_type_info.obj
 0001:00052811       ??1?$__crt_unique_heap_ptr@DU__crt_internal_free_policy@@@@QAE@XZ 10053811 f i libvcruntime:std_type_info.obj
 0001:00052825       ??1?$__crt_unique_heap_ptr@XU__crt_internal_free_policy@@@@QAE@XZ 10053825 f i libvcruntime:std_type_info.obj
 0001:00052839       ??B?$__crt_unique_heap_ptr@DU__crt_internal_free_policy@@@@QBE_NXZ 10053839 f i libvcruntime:std_type_info.obj
 0001:00052840       ??B?$__crt_unique_heap_ptr@XU__crt_internal_free_policy@@@@QBE_NXZ 10053840 f i libvcruntime:std_type_info.obj
 0001:0005287b       ?detach@?$__crt_unique_heap_ptr@XU__crt_internal_free_policy@@@@QAEPAXXZ 1005387b f i libvcruntime:std_type_info.obj
 0001:00052881       ?get@?$__crt_unique_heap_ptr@DU__crt_internal_free_policy@@@@QBEPADXZ 10053881 f i libvcruntime:std_type_info.obj
 0001:00052884       ?get@?$__crt_unique_heap_ptr@XU__crt_internal_free_policy@@@@QBEPAXXZ 10053884 f i libvcruntime:std_type_info.obj
 0001:00052887       ?is_valid@?$__crt_unique_heap_ptr@DU__crt_internal_free_policy@@@@QBE_NXZ 10053887 f i libvcruntime:std_type_info.obj
 0001:0005288e       ?is_valid@?$__crt_unique_heap_ptr@XU__crt_internal_free_policy@@@@QBE_NXZ 1005388e f i libvcruntime:std_type_info.obj
 0001:00052895       ?release@?$__crt_unique_heap_ptr@DU__crt_internal_free_policy@@@@QAEXXZ 10053895 f i libvcruntime:std_type_info.obj
 0001:000528a9       ?release@?$__crt_unique_heap_ptr@XU__crt_internal_free_policy@@@@QAEXXZ 100538a9 f i libvcruntime:std_type_info.obj
 0001:000528bd       ___std_type_info_compare   100538bd f   libvcruntime:std_type_info.obj
 0001:00052908       ___std_type_info_destroy_list 10053908 f   libvcruntime:std_type_info.obj
 0001:00052933       ___std_type_info_hash      10053933 f   libvcruntime:std_type_info.obj
 0001:00052962       ___std_type_info_name      10053962 f   libvcruntime:std_type_info.obj
 0001:00052a58       ___vcrt_initialize         10053a58 f   libvcruntime:initialization.obj
 0001:00052a7e       ___vcrt_thread_attach      10053a7e f   libvcruntime:initialization.obj
 0001:00052a8b       ___vcrt_thread_detach      10053a8b f   libvcruntime:initialization.obj
 0001:00052a98       ___vcrt_uninitialize       10053a98 f   libvcruntime:initialization.obj
 0001:00052ab4       ___vcrt_uninitialize_critical 10053ab4 f   libvcruntime:initialization.obj
 0001:00052ac1       ___uncaught_exception      10053ac1 f   libvcruntime:uncaught_exception.obj
 0001:00052c0b       _memcmp                    10053c0b f   libvcruntime:memcmp.obj
 0001:000550af       ??$?RU__vcrt_ptd@@@__crt_internal_free_policy@@QBEXQBU__vcrt_ptd@@@Z 100560af f i libvcruntime:per_thread_data.obj
 0001:000550c3       ??0?$__crt_unique_heap_ptr@U__vcrt_ptd@@U__crt_internal_free_policy@@@@QAE@QAU__vcrt_ptd@@@Z 100560c3 f i libvcruntime:per_thread_data.obj
 0001:000550e6       ??1?$__crt_unique_heap_ptr@U__vcrt_ptd@@U__crt_internal_free_policy@@@@QAE@XZ 100560e6 f i libvcruntime:per_thread_data.obj
 0001:00055105       ??B?$__crt_unique_heap_ptr@U__vcrt_ptd@@U__crt_internal_free_policy@@@@QBE_NXZ 10056105 f i libvcruntime:per_thread_data.obj
 0001:0005510c       ?detach@?$__crt_unique_heap_ptr@U__vcrt_ptd@@U__crt_internal_free_policy@@@@QAEPAU__vcrt_ptd@@XZ 1005610c f i libvcruntime:per_thread_data.obj
 0001:00055112       ?get@?$__crt_unique_heap_ptr@U__vcrt_ptd@@U__crt_internal_free_policy@@@@QBEPAU__vcrt_ptd@@XZ 10056112 f i libvcruntime:per_thread_data.obj
 0001:00055115       ?is_valid@?$__crt_unique_heap_ptr@U__vcrt_ptd@@U__crt_internal_free_policy@@@@QBE_NXZ 10056115 f i libvcruntime:per_thread_data.obj
 0001:0005511c       ?release@?$__crt_unique_heap_ptr@U__vcrt_ptd@@U__crt_internal_free_policy@@@@QAEXXZ 1005611c f i libvcruntime:per_thread_data.obj
 0001:00055150       ___vcrt_freefls@4          10056150 f   libvcruntime:per_thread_data.obj
 0001:00055173       ___vcrt_freeptd            10056173 f   libvcruntime:per_thread_data.obj
 0001:000551b6       ___vcrt_getptd             100561b6 f   libvcruntime:per_thread_data.obj
 0001:000551c7       ___vcrt_getptd_noexit      100561c7 f   libvcruntime:per_thread_data.obj
 0001:0005527d       ___vcrt_getptd_noinit      1005627d f   libvcruntime:per_thread_data.obj
 0001:000552c1       ___vcrt_initialize_ptd     100562c1 f   libvcruntime:per_thread_data.obj
 0001:00055300       ___vcrt_uninitialize_ptd   10056300 f   libvcruntime:per_thread_data.obj
 0001:00055c24       ??$TypeMatchHelper@V__FrameHandler3@@@@YAHPBU_s_HandlerType@@PBU_s_CatchableType@@PBU_s_ThrowInfo@@@Z 10056c24 f i libvcruntime:frame.obj
 0001:00055cd5       ??$__InternalCxxFrameHandler@V__FrameHandler3@@@@YA?AW4_EXCEPTION_DISPOSITION@@PAUEHExceptionRecord@@PAUEHRegistrationNode@@PAU_CONTEXT@@PAXPBU_s_FuncInfo@@H1E@Z 10056cd5 f i libvcruntime:frame.obj
 0001:00055e17       ??0HandlerMap@__FrameHandler3@@QAE@PBU_s_TryBlockMapEntry@@II@Z 10056e17 f i libvcruntime:frame.obj
 0001:00055e33       ??0TryBlockMap@__FrameHandler3@@QAE@PBU_s_FuncInfo@@I@Z 10056e33 f i libvcruntime:frame.obj
 0001:00055e4c       ??0bad_exception@std@@QAE@ABV01@@Z 10056e4c f i libvcruntime:frame.obj
 0001:00055e6d       ??0bad_exception@std@@QAE@XZ 10056e6d f i libvcruntime:frame.obj
 0001:00055e8b       ??0iterator@HandlerMap@__FrameHandler3@@QAE@AAV12@I@Z 10056e8b f i libvcruntime:frame.obj
 0001:00055ea4       ??1bad_exception@std@@UAE@XZ 10056ea4 f i libvcruntime:frame.obj
 0001:00055eb9       ??8iterator@HandlerMap@__FrameHandler3@@QBE_NABV012@@Z 10056eb9 f i libvcruntime:frame.obj
 0001:00055ed0       ??8type_info@@QBE_NABV0@@Z 10056ed0 f i libvcruntime:frame.obj
 0001:00055ef6       ??9iterator@HandlerMap@__FrameHandler3@@QBE_NABV012@@Z 10056ef6 f i libvcruntime:frame.obj
 0001:00055f0d       ??Diterator@HandlerMap@__FrameHandler3@@QAE?BU_s_HandlerType@@XZ 10056f0d f i libvcruntime:frame.obj
 0001:00055f33       ??Diterator@TryBlockMap@__FrameHandler3@@QAE?BU_s_TryBlockMapEntry@@XZ 10056f33 f i libvcruntime:frame.obj
 0001:00055f5d       ??Eiterator@HandlerMap@__FrameHandler3@@QAEAAV012@XZ 10056f5d f i libvcruntime:frame.obj
 0001:00055f63       ??Eiterator@TryBlockMap@__FrameHandler3@@QAEAAV012@XZ 10056f63 f i libvcruntime:frame.obj
 0001:00055f69       ??Miterator@TryBlockMap@__FrameHandler3@@QBE_NABV012@@Z 10056f69 f i libvcruntime:frame.obj
 0001:00055f80       ??_Ebad_exception@std@@UAEPAXI@Z 10056f80 f i libvcruntime:frame.obj
 0001:00055f80       ??_Gbad_exception@std@@UAEPAXI@Z 10056f80 f i libvcruntime:frame.obj
 0001:00055fb8       ?BuildCatchObject@__FrameHandler3@@SAXPAUEHExceptionRecord@@PAXPBU_s_HandlerType@@PBU_s_CatchableType@@@Z 10056fb8 f   libvcruntime:frame.obj
 0001:00055fbd       ?BuildCatchObjectHelper@__FrameHandler3@@SAHPAUEHExceptionRecord@@PAXPBU_s_HandlerType@@PBU_s_CatchableType@@@Z 10056fbd f   libvcruntime:frame.obj
 0001:000562a7       ?FrameUnwindToEmptyState@__FrameHandler3@@SAXPAUEHRegistrationNode@@PAXPBU_s_FuncInfo@@@Z 100572a7 f   libvcruntime:frame.obj
 0001:000562c5       ?FrameUnwindToState@__FrameHandler3@@SAXPAUEHRegistrationNode@@PAXPBU_s_FuncInfo@@H@Z 100572c5 f   libvcruntime:frame.obj
 0001:000563e7       ?GetMaxState@__FrameHandler3@@SAHPAXPBU_s_FuncInfo@@@Z 100573e7 f i libvcruntime:frame.obj
 0001:000564fb       ?TypeMatch@__FrameHandler3@@SAHPBU_s_HandlerType@@PBU_s_CatchableType@@PBU_s_ThrowInfo@@@Z 100574fb f   libvcruntime:frame.obj
 0001:00056506       ?_CallMemberFunction1@@YGXQAX00@Z 10057506 f i libvcruntime:frame.obj
 0001:0005651a       ?_CallMemberFunction2@@YGXQAX00H@Z 1005751a f i libvcruntime:frame.obj
 0001:00056531       ?begin@HandlerMap@__FrameHandler3@@QAE?AViterator@12@XZ 10057531 f i libvcruntime:frame.obj
 0001:00056545       ?end@HandlerMap@__FrameHandler3@@QAE?AViterator@12@XZ 10057545 f i libvcruntime:frame.obj
 0001:0005655a       ?getESTypes@__FrameHandler3@@SAPBU_s_ESTypeList@@PBU_s_FuncInfo@@@Z 1005755a f i libvcruntime:frame.obj
 0001:00056567       ?getLastEntry@HandlerMap@__FrameHandler3@@QAEPBU_s_HandlerType@@XZ 10057567 f i libvcruntime:frame.obj
 0001:00056578       ?getMagicNum@__FrameHandler3@@SAIPBU_s_FuncInfo@@@Z 10057578 f i libvcruntime:frame.obj
 0001:0005658a       ?getNumTryBlocks@TryBlockMap@__FrameHandler3@@QAEIXZ 1005758a f i libvcruntime:frame.obj
 0001:00056590       ?isEHs@__FrameHandler3@@SA_NPBU_s_FuncInfo@@@Z 10057590 f i libvcruntime:frame.obj
 0001:000565a0       ?isNoExcept@__FrameHandler3@@SA_NPBU_s_FuncInfo@@@Z 100575a0 f i libvcruntime:frame.obj
 0001:000565b4       ___BuildCatchObject        100575b4 f   libvcruntime:frame.obj
 0001:000565b9       ___BuildCatchObjectHelper  100575b9 f   libvcruntime:frame.obj
 0001:000565c4       ___TypeMatch               100575c4 f   libvcruntime:frame.obj
 0001:000565cf       ___vcrt_EncodePointer      100575cf f i libvcruntime:frame.obj
 0001:000565e0       __CallSettingFrame@12      100575e0 f   libvcruntime:lowhelpr.obj
 0001:00056607       __NLG_Return               10057607     libvcruntime:lowhelpr.obj
 0001:0005664c       ___except_validate_context_record 1005764c f   libvcruntime:jbcxrval.obj
 0001:00056688       ___except_validate_jump_buffer 10057688 f   libvcruntime:jbcxrval.obj
 0001:000566c0       ___except_validate_jump_buffer_common 100576c0 f i libvcruntime:jbcxrval.obj
 0001:00056710       __local_unwind4            10057710 f   libvcruntime:exsup4.obj
 0001:00056840       __seh_longjmp_unwind4@4    10057840 f   libvcruntime:exsup4.obj
 0001:00056880       @_EH4_CallFilterFunc@8     10057880 f   libvcruntime:exsup4.obj
 0001:000568a0       @_EH4_TransferToHandler@8  100578a0 f   libvcruntime:exsup4.obj
 0001:000568c0       @_EH4_GlobalUnwind2@8      100578c0 f   libvcruntime:exsup4.obj
 0001:000568e0       @_EH4_LocalUnwind@16       100578e0 f   libvcruntime:exsup4.obj
 0001:000568fc       ??$?0$00@DName@@QAE@PBDU?$StringLifeSelector@$00@@@Z 100578fc f i libvcruntime:undname.obj
 0001:0005693b       ??$?0$00@pcharNode@@QAE@PBDHU?$StringLifeSelector@$00@@@Z 1005793b f i libvcruntime:undname.obj
 0001:0005695c       ??$?0$01@DName@@QAE@PBDU?$StringLifeSelector@$01@@@Z 1005795c f i libvcruntime:undname.obj
 0001:0005699b       ??$?0$01@pcharNode@@QAE@PBDHU?$StringLifeSelector@$01@@@Z 1005799b f i libvcruntime:undname.obj
 0001:000569eb       ??$?0$0A@@DName@@QAE@PBDU?$StringLifeSelector@$0A@@@@Z 100579eb f i libvcruntime:undname.obj
 0001:00056a2a       ??$?0$0A@@pcharNode@@QAE@PBDHU?$StringLifeSelector@$0A@@@@Z 10057a2a f i libvcruntime:undname.obj
 0001:00056a7a       ??$?0_K$0A@@?$optional@_K@std@@QAE@$$QA_K@Z 10057a7a f i libvcruntime:undname.obj
 0001:00056a9a       ??$?0_K@?$_Optional_construct_base@_K@std@@QAE@Uin_place_t@1@$$QA_K@Z 10057a9a f i libvcruntime:undname.obj
 0001:00056aba       ??$?0_K@?$_Optional_destruct_base@_K$00@std@@QAE@Uin_place_t@1@$$QA_K@Z 10057aba f i libvcruntime:undname.obj
 0001:00056ada       ??$append@VDNameNode@@@DName@@AAEXPBVDNameNode@@@Z 10057ada f i libvcruntime:undname.obj
 0001:00056b2b       ??$append@VDNameStatusNode@@@DName@@AAEXPBVDNameStatusNode@@@Z 10057b2b f i libvcruntime:undname.obj
 0001:00056b7c       ??$append@VcharNode@@@DName@@AAEXPBVcharNode@@@Z 10057b7c f i libvcruntime:undname.obj
 0001:00056bcd       ??$append@VpDNameNode@@@DName@@AAEXPBVpDNameNode@@@Z 10057bcd f i libvcruntime:undname.obj
 0001:00056c1e       ??$append@VpcharNode@@@DName@@AAEXPBVpcharNode@@@Z 10057c1e f i libvcruntime:undname.obj
 0001:00056c6f       ??$doPchar@$00@DName@@AAEXPBDH@Z 10057c6f f i libvcruntime:undname.obj
 0001:00056cf4       ??$doPchar@$01@DName@@AAEXPBDH@Z 10057cf4 f i libvcruntime:undname.obj
 0001:00056d81       ??$doPchar@$0A@@DName@@AAEXPBDH@Z 10057d81 f i libvcruntime:undname.obj
 0001:00056e0e       ??$forward@_K@std@@YA$$QA_KAA_K@Z 10057e0e f i libvcruntime:undname.obj
 0001:00056e18       ??$size@D$04@std@@YAIAAY04$$CBD@Z 10057e18 f i libvcruntime:undname.obj
 0001:00056e1c       ??$size@D$0EB@@std@@YAIAAY0EB@$$CBD@Z 10057e1c f i libvcruntime:undname.obj
 0001:00056e20       ??0?$_Optional_construct_base@_K@std@@QAE@XZ 10057e20 f i libvcruntime:undname.obj
 0001:00056e27       ??0?$_Optional_destruct_base@_K$00@std@@QAE@XZ 10057e27 f i libvcruntime:undname.obj
 0001:00056e2e       ??0?$optional@_K@std@@QAE@XZ 10057e2e f i libvcruntime:undname.obj
 0001:00056e35       ??0Block@_HeapManager@@QAE@XZ 10057e35 f i libvcruntime:undname.obj
 0001:00056e3b       ??0DName@@QAE@AAPBDD@Z     10057e3b f   libvcruntime:undname.obj
 0001:00056edb       ??0DName@@QAE@ABUStringLiteral@@@Z 10057edb f   libvcruntime:undname.obj
 0001:00056f0b       ??0DName@@QAE@ABV0@@Z      10057f0b f i libvcruntime:undname.obj
 0001:00056f26       ??0DName@@QAE@D@Z          10057f26 f   libvcruntime:undname.obj
 0001:00056f49       ??0DName@@QAE@PAV0@@Z      10057f49 f   libvcruntime:undname.obj
 0001:00056fa1       ??0DName@@QAE@W4DNameStatus@@@Z 10057fa1 f   libvcruntime:undname.obj
 0001:00056ff1       ??0DName@@QAE@XZ           10057ff1 f i libvcruntime:undname.obj
 0001:00056ffd       ??0DName@@QAE@_J@Z         10057ffd f   libvcruntime:undname.obj
 0001:000570ac       ??0DName@@QAE@_K@Z         100580ac f   libvcruntime:undname.obj
 0001:0005712b       ??0DNameNode@@IAE@XZ       1005812b f i libvcruntime:undname.obj
 0001:00057136       ??0Replicator@@QAE@XZ      10058136 f i libvcruntime:undname.obj
 0001:00057147       ??0UnDecorator@@QAE@PBDP6APADJ@ZK@Z 10058147 f i libvcruntime:undname.obj
 0001:000571a6       ??0_Nontrivial_dummy_type@std@@QAE@XZ 100581a6 f i libvcruntime:undname.obj
 0001:000571a9       ??0charNode@@QAE@D@Z       100581a9 f i libvcruntime:undname.obj
 0001:000571c3       ??0pDNameNode@@QAE@PAVDName@@@Z 100581c3 f   libvcruntime:undname.obj
 0001:000571f5       ??0pairNode@@QAE@PBVDNameNode@@0@Z 100581f5 f i libvcruntime:undname.obj
 0001:00057222       ??2@YAPAXIAAV_HeapManager@@H@Z 10058222 f   libvcruntime:undname.obj
 0001:00057248       ??4DName@@QAEAAV0@ABUStringLiteral@@@Z 10058248 f   libvcruntime:undname.obj
 0001:00057271       ??4DName@@QAEAAV0@ABV0@@Z  10058271 f   libvcruntime:undname.obj
 0001:0005728c       ??4DName@@QAEAAV0@D@Z      1005828c f i libvcruntime:undname.obj
 0001:000572af       ??4DName@@QAEAAV0@PAV0@@Z  100582af f   libvcruntime:undname.obj
 0001:00057302       ??4DName@@QAEAAV0@W4DNameStatus@@@Z 10058302 f   libvcruntime:undname.obj
 0001:00057340       ??AReplicator@@QBE?AVDName@@H@Z 10058340 f   libvcruntime:undname.obj
 0001:00057397       ??B?$optional@_K@std@@QBE_NXZ 10058397 f i libvcruntime:undname.obj
 0001:0005739b       ??D?$optional@_K@std@@QGAEAA_KXZ 1005839b f i libvcruntime:undname.obj
 0001:0005739e       ??H@YA?AVDName@@ABUStringLiteral@@ABV0@@Z 1005839e f i libvcruntime:undname.obj
 0001:000573c8       ??H@YA?AVDName@@DABV0@@Z   100583c8 f i libvcruntime:undname.obj
 0001:000573fd       ??H@YA?AVDName@@W4DNameStatus@@ABV0@@Z 100583fd f i libvcruntime:undname.obj
 0001:00057427       ??HDName@@QBE?AV0@ABUStringLiteral@@@Z 10058427 f   libvcruntime:undname.obj
 0001:00057451       ??HDName@@QBE?AV0@ABV0@@Z  10058451 f   libvcruntime:undname.obj
 0001:0005747b       ??HDName@@QBE?AV0@D@Z      1005847b f   libvcruntime:undname.obj
 0001:000574a5       ??HDName@@QBE?AV0@PAV0@@Z  100584a5 f   libvcruntime:undname.obj
 0001:000574cf       ??HDName@@QBE?AV0@W4DNameStatus@@@Z 100584cf f   libvcruntime:undname.obj
 0001:000574f9       ??HStringLiteral@@QBE?AU0@H@Z 100584f9 f i libvcruntime:undname.obj
 0001:00057519       ??YDName@@QAEAAV0@ABUStringLiteral@@@Z 10058519 f   libvcruntime:undname.obj
 0001:00057587       ??YDName@@QAEAAV0@ABV0@@Z  10058587 f   libvcruntime:undname.obj
 0001:000575f3       ??YDName@@QAEAAV0@D@Z      100585f3 f   libvcruntime:undname.obj
 0001:0005765d       ??YDName@@QAEAAV0@PAV0@@Z  1005865d f   libvcruntime:undname.obj
 0001:000576da       ??YDName@@QAEAAV0@W4DNameStatus@@@Z 100586da f   libvcruntime:undname.obj
 0001:0005772a       ??YReplicator@@QAEAAV0@ABVDName@@@Z 1005872a f   libvcruntime:undname.obj
 0001:00057777       ??_5DName@@QAEAAV0@ABV0@@Z 10058777 f   libvcruntime:undname.obj
 0001:0005779a       ??__K_l@@YA?AUStringLiteral@@PBDI@Z 1005879a f i libvcruntime:undname.obj
 0001:000577a7       ?Constructor@_HeapManager@@QAEXP6APAXI@ZP6AXPAX@Z@Z 100587a7 f i libvcruntime:undname.obj
 0001:000577cb       ?Destructor@_HeapManager@@QAEXXZ 100587cb f i libvcruntime:undname.obj
 0001:00057823       ?UScore@UnDecorator@@SA?AUStringLiteral@@W4Tokens@@@Z 10058823 f   libvcruntime:undname.obj
 0001:00057853       ?composeDeclaration@UnDecorator@@CA?AVDName@@ABV2@@Z 10058853 f i libvcruntime:undname.obj
 0001:000588d2       ?doAccessSpecifiers@UnDecorator@@SAHXZ 100598d2 f i libvcruntime:undname.obj
 0001:000588e3       ?doAllocationLanguage@UnDecorator@@SAHXZ 100598e3 f i libvcruntime:undname.obj
 0001:000588f4       ?doAllocationModel@UnDecorator@@SAHXZ 100598f4 f i libvcruntime:undname.obj
 0001:00058905       ?doEcsu@UnDecorator@@SAHXZ 10059905 f i libvcruntime:undname.obj
 0001:00058916       ?doEllipsis@UnDecorator@@SAHXZ 10059916 f i libvcruntime:undname.obj
 0001:00058927       ?doFunctionReturns@UnDecorator@@SAHXZ 10059927 f i libvcruntime:undname.obj
 0001:00058938       ?doMSKeywords@UnDecorator@@SAHXZ 10059938 f i libvcruntime:undname.obj
 0001:00058948       ?doMemberTypes@UnDecorator@@SAHXZ 10059948 f i libvcruntime:undname.obj
 0001:00058959       ?doNameOnly@UnDecorator@@SAHXZ 10059959 f i libvcruntime:undname.obj
 0001:00058966       ?doNoIdentCharCheck@UnDecorator@@SAHXZ 10059966 f i libvcruntime:undname.obj
 0001:00058973       ?doPchar@DName@@AAEXD@Z    10059973 f   libvcruntime:undname.obj
 0001:000589b9       ?doPtr64@UnDecorator@@SAHXZ 100599b9 f i libvcruntime:undname.obj
 0001:000589ca       ?doRestrictionSpec@UnDecorator@@SAHXZ 100599ca f i libvcruntime:undname.obj
 0001:000589db       ?doThisTypes@UnDecorator@@SAHXZ 100599db f i libvcruntime:undname.obj
 0001:000589f1       ?doThrowTypes@UnDecorator@@SAHXZ 100599f1 f i libvcruntime:undname.obj
 0001:00058a02       ?doTypeOnly@UnDecorator@@SAHXZ 10059a02 f i libvcruntime:undname.obj
 0001:00058a0f       ?doUnderScore@UnDecorator@@SAHXZ 10059a0f f i libvcruntime:undname.obj
 0001:00058a1c       ?getAddressOf@UnDecorator@@CA?AVDName@@XZ 10059a1c f   libvcruntime:undname.obj
 0001:00058aab       ?getArgumentList@UnDecorator@@CA?AVDName@@XZ 10059aab f   libvcruntime:undname.obj
 0001:00058bfb       ?getArgumentTypes@UnDecorator@@CA?AVDName@@XZ 10059bfb f   libvcruntime:undname.obj
 0001:00058d46       ?getArrayAccess@UnDecorator@@CA?AVDName@@XZ 10059d46 f   libvcruntime:undname.obj
 0001:00058de4       ?getArrayObject@UnDecorator@@CA?AVDName@@XZ 10059de4 f   libvcruntime:undname.obj
 0001:00058ebe       ?getArrayType@UnDecorator@@CA?AVDName@@ABV2@@Z 10059ebe f i libvcruntime:undname.obj
 0001:000590c2       ?getBasedType@UnDecorator@@CA?AVDName@@XZ 1005a0c2 f   libvcruntime:undname.obj
 0001:000591a0       ?getBasicDataType@UnDecorator@@CA?AVDName@@ABV2@@Z 1005a1a0 f   libvcruntime:undname.obj
 0001:00059817       ?getCHPEName@UnDecorator@@QAEPADPADH@Z 1005a817 f i libvcruntime:undname.obj
 0001:0005992b       ?getCallIndex@UnDecorator@@CA?AVDName@@XZ 1005a92b f i libvcruntime:undname.obj
 0001:00059944       ?getCallingConvention@UnDecorator@@CA?AVDName@@XZ 1005a944 f   libvcruntime:undname.obj
 0001:00059a58       ?getDataIndirectType@UnDecorator@@CA?AVDName@@ABV2@W4IndirectionKind@@0H@Z 1005aa58 f   libvcruntime:undname.obj
 0001:0005a29e       ?getDataIndirectType@UnDecorator@@CA?AVDName@@XZ 1005b29e f i libvcruntime:undname.obj
 0001:0005a2d7       ?getDataType@UnDecorator@@CA?AVDName@@PAV2@@Z 1005b2d7 f   libvcruntime:undname.obj
 0001:0005a3e3       ?getDecoratedName@UnDecorator@@CA?AVDName@@XZ 1005b3e3 f   libvcruntime:undname.obj
 0001:0005a6e7       ?getDimension@UnDecorator@@CA?AVDName@@_N@Z 1005b6e7 f   libvcruntime:undname.obj
 0001:0005a82f       ?getDispatchTarget@UnDecorator@@CA?AVDName@@XZ 1005b82f f   libvcruntime:undname.obj
 0001:0005a8a3       ?getDisplacement@UnDecorator@@CA?AVDName@@XZ 1005b8a3 f i libvcruntime:undname.obj
 0001:0005a8bc       ?getECSUDataType@UnDecorator@@CA?AVDName@@XZ 1005b8bc f   libvcruntime:undname.obj
 0001:0005aace       ?getECSUName@UnDecorator@@CA?AVDName@@XZ 1005bace f i libvcruntime:undname.obj
 0001:0005aae3       ?getEnumType@UnDecorator@@CA?AVDName@@XZ 1005bae3 f i libvcruntime:undname.obj
 0001:0005ac5a       ?getExtendedDataIndirectType@UnDecorator@@CA?AVDName@@AAW4IndirectionKind@@AA_NH@Z 1005bc5a f   libvcruntime:undname.obj
 0001:0005ae79       ?getExternalDataType@UnDecorator@@CA?AVDName@@ABV2@@Z 1005be79 f i libvcruntime:undname.obj
 0001:0005aef7       ?getFloatingPoint@UnDecorator@@CA?AVDName@@H@Z 1005bef7 f   libvcruntime:undname.obj
 0001:0005b028       ?getFunctionIndirectType@UnDecorator@@CA?AVDName@@ABV2@@Z 1005c028 f   libvcruntime:undname.obj
 0001:0005b4cf       ?getGuardNumber@UnDecorator@@CA?AVDName@@XZ 1005c4cf f i libvcruntime:undname.obj
 0001:0005b4e8       ?getLastChar@DName@@QBEDXZ 1005c4e8 f i libvcruntime:undname.obj
 0001:0005b510       ?getLastChar@DNameStatusNode@@UBEDXZ 1005c510 f i libvcruntime:undname.obj
 0001:0005b51f       ?getLastChar@charNode@@UBEDXZ 1005c51f f i libvcruntime:undname.obj
 0001:0005b523       ?getLastChar@pDNameNode@@UBEDXZ 1005c523 f i libvcruntime:undname.obj
 0001:0005b534       ?getLastChar@pairNode@@UBEDXZ 1005c534 f i libvcruntime:undname.obj
 0001:0005b576       ?getLastChar@pcharNode@@UBEDXZ 1005c576 f i libvcruntime:undname.obj
 0001:0005b58c       ?getLexicalFrame@UnDecorator@@CA?AVDName@@XZ 1005c58c f i libvcruntime:undname.obj
 0001:0005b5c9       ?getMemberAccess@UnDecorator@@CA?AVDName@@XZ 1005c5c9 f   libvcruntime:undname.obj
 0001:0005b662       ?getMemoryWithBuffer@_HeapManager@@QAEPAXI@Z 1005c662 f   libvcruntime:undname.obj
 0001:0005b6e6       ?getMemoryWithoutBuffer@_HeapManager@@QAEPAXI@Z 1005c6e6 f   libvcruntime:undname.obj
 0001:0005b70e       ?getNoexcept@UnDecorator@@CA?AVDName@@XZ 1005c70e f   libvcruntime:undname.obj
 0001:0005b768       ?getNumberOfDimensions@UnDecorator@@CAHXZ 1005c768 f   libvcruntime:undname.obj
 0001:0005b7d2       ?getOperatorName@UnDecorator@@CA?AVDName@@_NPA_N@Z 1005c7d2 f i libvcruntime:undname.obj
 0001:0005c13e       ?getPointerToMember@UnDecorator@@CA?AVDName@@XZ 1005d13e f   libvcruntime:undname.obj
 0001:0005c227       ?getPointerType@UnDecorator@@CA?AVDName@@ABV2@0@Z 1005d227 f i libvcruntime:undname.obj
 0001:0005c248       ?getPointerTypeArray@UnDecorator@@CA?AVDName@@ABV2@0@Z 1005d248 f i libvcruntime:undname.obj
 0001:0005c269       ?getPrimaryDataType@UnDecorator@@CA?AVDName@@ABV2@@Z 1005d269 f   libvcruntime:undname.obj
 0001:0005c54b       ?getPtrRefDataType@UnDecorator@@CA?AVDName@@ABV2@H@Z 1005d54b f   libvcruntime:undname.obj
 0001:0005c713       ?getPtrRefType@UnDecorator@@CA?AVDName@@ABV2@0W4IndirectionKind@@@Z 1005d713 f   libvcruntime:undname.obj
 0001:0005c868       ?getReferenceType@UnDecorator@@CA?AVDName@@ABV2@0W4IndirectionKind@@@Z 1005d868 f i libvcruntime:undname.obj
 0001:0005c88b       ?getRestrictionSpec@UnDecorator@@CA?AVDName@@XZ 1005d88b f   libvcruntime:undname.obj
 0001:0005c9ee       ?getReturnType@UnDecorator@@CA?AVDName@@PAV2@@Z 1005d9ee f   libvcruntime:undname.obj
 0001:0005ca28       ?getScope@UnDecorator@@CA?AVDName@@XZ 1005da28 f   libvcruntime:undname.obj
 0001:0005cec6       ?getScopedName@UnDecorator@@CA?AVDName@@XZ 1005dec6 f   libvcruntime:undname.obj
 0001:0005cfeb       ?getSignedDimension@UnDecorator@@CA?AVDName@@XZ 1005dfeb f   libvcruntime:undname.obj
 0001:0005d050       ?getStorageConvention@UnDecorator@@CA?AVDName@@XZ 1005e050 f i libvcruntime:undname.obj
 0001:0005d065       ?getString@DName@@QBEPADPAD0@Z 1005e065 f i libvcruntime:undname.obj
 0001:0005d09d       ?getString@DName@@QBEPADPADH@Z 1005e09d f i libvcruntime:undname.obj
 0001:0005d107       ?getString@DNameStatusNode@@UBEPADPAD0@Z 1005e107 f i libvcruntime:undname.obj
 0001:0005d15e       ?getString@charNode@@UBEPADPAD0@Z 1005e15e f i libvcruntime:undname.obj
 0001:0005d178       ?getString@pDNameNode@@UBEPADPAD0@Z 1005e178 f i libvcruntime:undname.obj
 0001:0005d194       ?getString@pairNode@@UBEPADPAD0@Z 1005e194 f i libvcruntime:undname.obj
 0001:0005d1eb       ?getString@pcharNode@@UBEPADPAD0@Z 1005e1eb f i libvcruntime:undname.obj
 0001:0005d20c       ?getStringEncoding@UnDecorator@@CA?AVDName@@W4PrefixKind@@H@Z 1005e20c f   libvcruntime:undname.obj
 0001:0005d2e5       ?getStringHelper@@YAPADPADPBD1H@Z 1005e2e5 f i libvcruntime:undname.obj
 0001:0005d319       ?getStringObject@UnDecorator@@CA?AVDName@@XZ 1005e319 f   libvcruntime:undname.obj
 0001:0005d385       ?getSymbolName@UnDecorator@@CA?AVDName@@XZ 1005e385 f i libvcruntime:undname.obj
 0001:0005d3df       ?getTemplateArgumentList@UnDecorator@@CA?AVDName@@XZ 1005e3df f   libvcruntime:undname.obj
 0001:0005d60a       ?getTemplateName@UnDecorator@@CA?AVDName@@_N@Z 1005e60a f   libvcruntime:undname.obj
 0001:0005d7c3       ?getTemplateNonTypeArgument@UnDecorator@@CA?AVDName@@XZ 1005e7c3 f   libvcruntime:undname.obj
 0001:0005dc50       ?getTemplateTypeArgument@UnDecorator@@CA?AVDName@@XZ 1005ec50 f   libvcruntime:undname.obj
 0001:0005dd97       ?getThisType@UnDecorator@@CA?AVDName@@XZ 1005ed97 f i libvcruntime:undname.obj
 0001:0005ddd1       ?getThrowTypes@UnDecorator@@CA?AVDName@@XZ 1005edd1 f   libvcruntime:undname.obj
 0001:0005ddf7       ?getTypeEncoding@UnDecorator@@CAHXZ 1005edf7 f i libvcruntime:undname.obj
 0001:0005e234       ?getUndecoratedName@UnDecorator@@QAEPADPADH@Z 1005f234 f i libvcruntime:undname.obj
 0001:0005e39a       ?getUnionObject@UnDecorator@@CA?AVDName@@XZ 1005f39a f   libvcruntime:undname.obj
 0001:0005e474       ?getVCallThunkType@UnDecorator@@CA?AVDName@@XZ 1005f474 f i libvcruntime:undname.obj
 0001:0005e4df       ?getValue@UnDecorator@@CA?AV?$optional@_K@std@@XZ 1005f4df f   libvcruntime:undname.obj
 0001:0005e568       ?getValueObject@UnDecorator@@CA?AVDName@@XZ 1005f568 f   libvcruntime:undname.obj
 0001:0005e6d6       ?getVbTableType@UnDecorator@@CA?AVDName@@ABV2@@Z 1005f6d6 f i libvcruntime:undname.obj
 0001:0005e6f0       ?getVdispMapType@UnDecorator@@CA?AVDName@@ABV2@@Z 1005f6f0 f i libvcruntime:undname.obj
 0001:0005e769       ?getVfTableType@UnDecorator@@CA?AVDName@@ABV2@@Z 1005f769 f i libvcruntime:undname.obj
 0001:0005e914       ?getZName@UnDecorator@@CA?AVDName@@_N0@Z 1005f914 f   libvcruntime:undname.obj
 0001:0005eba8       ?get_current_character_and_increment_buffer@UnDecorator@@CADXZ 1005fba8 f i libvcruntime:undname.obj
 0001:0005ebc1       ?haveTemplateParameters@UnDecorator@@SAHXZ 1005fbc1 f i libvcruntime:undname.obj
 0001:0005ebce       ?increment_buffer@UnDecorator@@CA_NI@Z 1005fbce f i libvcruntime:undname.obj
 0001:0005ec00       ?increment_buffer_no_check@UnDecorator@@CAXI@Z 1005fc00 f i libvcruntime:undname.obj
 0001:0005ec11       ?increment_buffer_no_check@UnDecorator@@CAXXZ 1005fc11 f i libvcruntime:undname.obj
 0001:0005ec18       ?isArray@DName@@QBEHXZ     1005fc18 f i libvcruntime:undname.obj
 0001:0005ec24       ?isComArray@DName@@QBEHXZ  1005fc24 f i libvcruntime:undname.obj
 0001:0005ec30       ?isEmpty@DName@@QBEHXZ     1005fc30 f i libvcruntime:undname.obj
 0001:0005ec3a       ?isFull@Replicator@@QBEHXZ 1005fc3a f i libvcruntime:undname.obj
 0001:0005ec45       ?isNoTE@DName@@QBEHXZ      1005fc45 f i libvcruntime:undname.obj
 0001:0005ec51       ?isPinPtr@DName@@QBEHXZ    1005fc51 f i libvcruntime:undname.obj
 0001:0005ec5d       ?isPtrRef@DName@@QBEHXZ    1005fc5d f i libvcruntime:undname.obj
 0001:0005ec69       ?isUDC@DName@@QBEHXZ       1005fc69 f i libvcruntime:undname.obj
 0001:0005ec7e       ?isUDTThunk@DName@@QBEHXZ  1005fc7e f i libvcruntime:undname.obj
 0001:0005ec93       ?isVCallThunk@DName@@QBEHXZ 1005fc93 f i libvcruntime:undname.obj
 0001:0005ec9f       ?isValid@DName@@QBEHXZ     1005fc9f f i libvcruntime:undname.obj
 0001:0005ecab       ?length@DName@@QBEHXZ      1005fcab f i libvcruntime:undname.obj
 0001:0005ecd1       ?length@DNameStatusNode@@UBEHXZ 1005fcd1 f i libvcruntime:undname.obj
 0001:0005ecd5       ?length@charNode@@UBEHXZ   1005fcd5 f i libvcruntime:undname.obj
 0001:0005ecd9       ?length@pDNameNode@@UBEHXZ 1005fcd9 f i libvcruntime:undname.obj
 0001:0005ecea       ?length@pairNode@@UBEHXZ   1005fcea f i libvcruntime:undname.obj
 0001:0005ed45       ?length@pcharNode@@UBEHXZ  1005fd45 f i libvcruntime:undname.obj
 0001:0005ed49       ?make@DNameStatusNode@@SAPBV1@W4DNameStatus@@@Z 1005fd49 f i libvcruntime:undname.obj
 0001:0005ed6c       ?parseDecoratedName@UnDecorator@@CA?AVDName@@XZ 1005fd6c f   libvcruntime:undname.obj
 0001:0005eea5       ?raw_length@DNameStatusNode@@UBEHXZ 1005fea5 f i libvcruntime:undname.obj
 0001:0005eea9       ?raw_length@charNode@@UBEHXZ 1005fea9 f i libvcruntime:undname.obj
 0001:0005eead       ?raw_length@pDNameNode@@UBEHXZ 1005fead f i libvcruntime:undname.obj
 0001:0005eeb1       ?raw_length@pairNode@@UBEHXZ 1005feb1 f i libvcruntime:undname.obj
 0001:0005eeb5       ?raw_length@pcharNode@@UBEHXZ 1005feb5 f i libvcruntime:undname.obj
 0001:0005eeb9       ?setIsArray@DName@@QAEXXZ  1005feb9 f i libvcruntime:undname.obj
 0001:0005eec3       ?setIsComArray@DName@@QAEXXZ 1005fec3 f i libvcruntime:undname.obj
 0001:0005eecd       ?setIsNoTE@DName@@QAEXXZ   1005fecd f i libvcruntime:undname.obj
 0001:0005eed7       ?setIsPinPtr@DName@@QAEXXZ 1005fed7 f i libvcruntime:undname.obj
 0001:0005eee1       ?setIsUDC@DName@@QAEXXZ    1005fee1 f i libvcruntime:undname.obj
 0001:0005eef1       ?setIsVCallThunk@DName@@QAEXXZ 1005fef1 f i libvcruntime:undname.obj
 0001:0005eefb       ?setPtrRef@DName@@QAEAAV1@XZ 1005fefb f i libvcruntime:undname.obj
 0001:0005ef07       ?status@DName@@QBE?AW4DNameStatus@@XZ 1005ff07 f i libvcruntime:undname.obj
 0001:0005ef8c       ___unDName                 1005ff8c f   libvcruntime:undname.obj
 0001:0005efb7       ___unDNameEx               1005ffb7 f   libvcruntime:undname.obj
 0001:0005f07d       _unDNameGenerateCHPE       1006007d f   libvcruntime:undname.obj
 0001:0005f141       ___vcrt_initialize_locks   10060141 f   libvcruntime:locks.obj
 0001:0005f18c       ___vcrt_lock               1006018c f   libvcruntime:locks.obj
 0001:0005f1a6       ___vcrt_uninitialize_locks 100601a6 f   libvcruntime:locks.obj
 0001:0005f1e0       ___vcrt_unlock             100601e0 f   libvcruntime:locks.obj
 0001:0005f1fa       ??$__crt_interlocked_exchange_pointer@UHINSTANCE__@@PAU1@@@YAPAUHINSTANCE__@@PDSAU0@QAU0@@Z 100601fa f i libvcruntime:winapi_downlevel.obj
 0001:0005f20a       ??$__crt_interlocked_exchange_pointer@UHINSTANCE__@@PAX@@YAPAUHINSTANCE__@@PDSAU0@QAX@Z 1006020a f i libvcruntime:winapi_downlevel.obj
 0001:0005f21a       ??$__crt_interlocked_exchange_pointer@XPAX@@YAPAXPDSAXQAX@Z 1006021a f i libvcruntime:winapi_downlevel.obj
 0001:0005f22a       ??$__crt_interlocked_read_pointer@UHINSTANCE__@@@@YAPAUHINSTANCE__@@PDSAU0@@Z 1006022a f i libvcruntime:winapi_downlevel.obj
 0001:0005f236       ??$__crt_interlocked_read_pointer@X@@YAPAXPDSAX@Z 10060236 f i libvcruntime:winapi_downlevel.obj
 0001:0005f4ea       ___vcrt_FlsAlloc           100604ea f   libvcruntime:winapi_downlevel.obj
 0001:0005f533       ___vcrt_FlsFree            10060533 f   libvcruntime:winapi_downlevel.obj
 0001:0005f57c       ___vcrt_FlsGetValue        1006057c f   libvcruntime:winapi_downlevel.obj
 0001:0005f5c5       ___vcrt_FlsSetValue        100605c5 f   libvcruntime:winapi_downlevel.obj
 0001:0005f612       ___vcrt_InitializeCriticalSectionEx 10060612 f   libvcruntime:winapi_downlevel.obj
 0001:0005f683       __get_unexpected           10060683 f   libvcruntime:unexpected.obj
 0001:0005f699       _set_unexpected            10060699 f   libvcruntime:unexpected.obj
 0001:0005f6be       _unexpected                100606be f   libvcruntime:unexpected.obj
 0001:0005f6e2       ?GetCurrentState@__FrameHandler3@@SAHPAUEHRegistrationNode@@PAXPBU_s_FuncInfo@@@Z 100606e2 f   libvcruntime:ehstate.obj
 0001:0005f706       ?SetState@__FrameHandler3@@SAXPAUEHRegistrationNode@@PBU_s_FuncInfo@@H@Z 10060706 f   libvcruntime:ehstate.obj
 0001:0005f720       __global_unwind2           10060720 f   libvcruntime:exsup.obj
 0001:0005f7b0       __local_unwind2            100607b0 f   libvcruntime:exsup.obj
 0001:0005f870       __abnormal_termination     10060870 f   libvcruntime:exsup.obj
 0001:0005f8b0       __NLG_Notify1              100608b0 f   libvcruntime:exsup.obj
 0001:0005f8c0       __NLG_Notify               100608c0 f   libvcruntime:exsup.obj
 0001:0005f8d7       __NLG_Dispatch2            100608d7     libvcruntime:exsup.obj
 0001:0005f8d7       __NLG_Dispatch             100608d7     libvcruntime:exsup.obj
 0001:0005f8f0       __NLG_Call                 100608f0 f   libvcruntime:exsup.obj
 0001:0005f8f2       __NLG_Return2              100608f2     libvcruntime:exsup.obj
 0001:0005f8f3       _malloc                    100608f3 f   libucrt:malloc.obj
 0001:0005f900       _free                      10060900 f   libucrt:free.obj
 0001:0005f921       ??$?RPAU__crt_stdio_stream_data@@@__crt_internal_free_policy@@QBEXQBQAU__crt_stdio_stream_data@@@Z 10060921 f i libucrt:_file.obj
 0001:0005f937       ??0?$__crt_unique_heap_ptr@PAU__crt_stdio_stream_data@@U__crt_internal_free_policy@@@@QAE@QAPAU__crt_stdio_stream_data@@@Z 10060937 f i libucrt:_file.obj
 0001:0005f94b       ??0__crt_stdio_stream@@QAE@QAU_iobuf@@@Z 1006094b f i libucrt:_file.obj
 0001:0005f95f       ??1?$__crt_unique_heap_ptr@PAU__crt_stdio_stream_data@@U__crt_internal_free_policy@@@@QAE@XZ 1006095f f i libucrt:_file.obj
 0001:0005f975       ??C__crt_stdio_stream@@QBEPAU__crt_stdio_stream_data@@XZ 10060975 f i libucrt:_file.obj
 0001:0005f978       ?detach@?$__crt_unique_heap_ptr@PAU__crt_stdio_stream_data@@U__crt_internal_free_policy@@@@QAEPAPAU__crt_stdio_stream_data@@XZ 10060978 f i libucrt:_file.obj
 0001:0005f97e       ?release@?$__crt_unique_heap_ptr@PAU__crt_stdio_stream_data@@U__crt_internal_free_policy@@@@QAEXXZ 1006097e f i libucrt:_file.obj
 0001:0005f994       ___acrt_initialize_stdio   10060994 f   libucrt:_file.obj
 0001:0005fa8e       ___acrt_iob_func           10060a8e f   libucrt:_file.obj
 0001:0005faa2       ___acrt_uninitialize_stdio 10060aa2 f   libucrt:_file.obj
 0001:0005fb01       __get_stream_buffer_pointers 10060b01 f   libucrt:_file.obj
 0001:0005fb58       __lock_file                10060b58 f   libucrt:_file.obj
 0001:0005fb71       __unlock_file              10060b71 f   libucrt:_file.obj
 0001:0005fb8a       ??$?0ABV?$stream_output_adapter@D@__crt_stdio_output@@AB_KABQBDAAV__crt_cached_ptd_host@@ABQAD@?$format_validation_base@DV?$stream_output_adapter@D@__crt_stdio_output@@@__crt_stdio_output@@IAE@ABV?$stream_output_adapter@D@1@AB_KABQBDAAV__crt_cached_ptd_host@@ABQAD@Z 10060b8a f i libucrt:output.obj
 0001:0005fbb5       ??$?0ABV?$stream_output_adapter@D@__crt_stdio_output@@AB_KABQBDAAV__crt_cached_ptd_host@@ABQAD@?$positional_parameter_base@DV?$stream_output_adapter@D@__crt_stdio_output@@@__crt_stdio_output@@IAE@ABV?$stream_output_adapter@D@1@AB_KABQBDAAV__crt_cached_ptd_host@@ABQAD@Z 10060bb5 f i libucrt:output.obj
 0001:0005fc0f       ??$?0ABV?$stream_output_adapter@D@__crt_stdio_output@@AB_KABQBDAAV__crt_cached_ptd_host@@ABQAD@?$standard_base@DV?$stream_output_adapter@D@__crt_stdio_output@@@__crt_stdio_output@@IAE@ABV?$stream_output_adapter@D@1@AB_KABQBDAAV__crt_cached_ptd_host@@ABQAD@Z 10060c0f f i libucrt:output.obj
 0001:0005fc4e       ??$?0ABV?$stream_output_adapter@_W@__crt_stdio_output@@AB_KABQB_WAAV__crt_cached_ptd_host@@ABQAD@?$format_validation_base@_WV?$stream_output_adapter@_W@__crt_stdio_output@@@__crt_stdio_output@@IAE@ABV?$stream_output_adapter@_W@1@AB_KABQB_WAAV__crt_cached_ptd_host@@ABQAD@Z 10060c4e f i libucrt:output.obj
 0001:0005fc79       ??$?0ABV?$stream_output_adapter@_W@__crt_stdio_output@@AB_KABQB_WAAV__crt_cached_ptd_host@@ABQAD@?$positional_parameter_base@_WV?$stream_output_adapter@_W@__crt_stdio_output@@@__crt_stdio_output@@IAE@ABV?$stream_output_adapter@_W@1@AB_KABQB_WAAV__crt_cached_ptd_host@@ABQAD@Z 10060c79 f i libucrt:output.obj
 0001:0005fcd3       ??$?0ABV?$stream_output_adapter@_W@__crt_stdio_output@@AB_KABQB_WAAV__crt_cached_ptd_host@@ABQAD@?$standard_base@_WV?$stream_output_adapter@_W@__crt_stdio_output@@@__crt_stdio_output@@IAE@ABV?$stream_output_adapter@_W@1@AB_KABQB_WAAV__crt_cached_ptd_host@@ABQAD@Z 10060cd3 f i libucrt:output.obj
 0001:0005fd12       ??$?0ABV?$string_output_adapter@D@__crt_stdio_output@@AB_KABQBDAAV__crt_cached_ptd_host@@ABQAD@?$format_validation_base@DV?$string_output_adapter@D@__crt_stdio_output@@@__crt_stdio_output@@IAE@ABV?$string_output_adapter@D@1@AB_KABQBDAAV__crt_cached_ptd_host@@ABQAD@Z 10060d12 f i libucrt:output.obj
 0001:0005fd3d       ??$?0ABV?$string_output_adapter@D@__crt_stdio_output@@AB_KABQBDAAV__crt_cached_ptd_host@@ABQAD@?$positional_parameter_base@DV?$string_output_adapter@D@__crt_stdio_output@@@__crt_stdio_output@@IAE@ABV?$string_output_adapter@D@1@AB_KABQBDAAV__crt_cached_ptd_host@@ABQAD@Z 10060d3d f i libucrt:output.obj
 0001:0005fd97       ??$?0ABV?$string_output_adapter@D@__crt_stdio_output@@AB_KABQBDAAV__crt_cached_ptd_host@@ABQAD@?$standard_base@DV?$string_output_adapter@D@__crt_stdio_output@@@__crt_stdio_output@@IAE@ABV?$string_output_adapter@D@1@AB_KABQBDAAV__crt_cached_ptd_host@@ABQAD@Z 10060d97 f i libucrt:output.obj
 0001:0005fdd6       ??$?0ABV?$string_output_adapter@_W@__crt_stdio_output@@AB_KABQB_WAAV__crt_cached_ptd_host@@ABQAD@?$format_validation_base@_WV?$string_output_adapter@_W@__crt_stdio_output@@@__crt_stdio_output@@IAE@ABV?$string_output_adapter@_W@1@AB_KABQB_WAAV__crt_cached_ptd_host@@ABQAD@Z 10060dd6 f i libucrt:output.obj
 0001:0005fe01       ??$?0ABV?$string_output_adapter@_W@__crt_stdio_output@@AB_KABQB_WAAV__crt_cached_ptd_host@@ABQAD@?$positional_parameter_base@_WV?$string_output_adapter@_W@__crt_stdio_output@@@__crt_stdio_output@@IAE@ABV?$string_output_adapter@_W@1@AB_KABQB_WAAV__crt_cached_ptd_host@@ABQAD@Z 10060e01 f i libucrt:output.obj
 0001:0005fe5b       ??$?0ABV?$string_output_adapter@_W@__crt_stdio_output@@AB_KABQB_WAAV__crt_cached_ptd_host@@ABQAD@?$standard_base@_WV?$string_output_adapter@_W@__crt_stdio_output@@@__crt_stdio_output@@IAE@ABV?$string_output_adapter@_W@1@AB_KABQB_WAAV__crt_cached_ptd_host@@ABQAD@Z 10060e5b f i libucrt:output.obj
 0001:0006025a       ??$__crt_interlocked_read@J@@YAJPDJ@Z 1006125a f i libucrt:output.obj
 0001:0006026a       ??$_tcstol_internal@DPAPAD$0A@@@YAJAAV__crt_cached_ptd_host@@QBDQAPADH@Z 1006126a f i libucrt:output.obj
 0001:0006029f       ??$_tcstol_internal@_WPAPA_W$0A@@@YAJAAV__crt_cached_ptd_host@@QB_WQAPA_WH@Z 1006129f f i libucrt:output.obj
 0001:000615c8       ??$count@D@formatting_buffer@__crt_stdio_output@@QBEIXZ 100625c8 f i libucrt:output.obj
 0001:000615e6       ??$count@_W@formatting_buffer@__crt_stdio_output@@QBEIXZ 100625e6 f i libucrt:output.obj
 0001:00061605       ??$data@D@formatting_buffer@__crt_stdio_output@@QAEPADXZ 10062605 f i libucrt:output.obj
 0001:00061615       ??$data@_W@formatting_buffer@__crt_stdio_output@@QAEPA_WXZ 10062615 f i libucrt:output.obj
 0001:00061625       ??$ensure_buffer_is_big_enough@D@formatting_buffer@__crt_stdio_output@@QAE_NIAAV__crt_cached_ptd_host@@@Z 10062625 f i libucrt:output.obj
 0001:000616c6       ??$ensure_buffer_is_big_enough@_W@formatting_buffer@__crt_stdio_output@@QAE_NIAAV__crt_cached_ptd_host@@@Z 100626c6 f i libucrt:output.obj
 0001:00061768       ??$extract_argument_from_va_list@C_J@?$positional_parameter_base@DV?$stream_output_adapter@D@__crt_stdio_output@@@__crt_stdio_output@@IAE_NAA_J@Z 10062768 f i libucrt:output.obj
 0001:0006181a       ??$extract_argument_from_va_list@C_J@?$positional_parameter_base@DV?$string_output_adapter@D@__crt_stdio_output@@@__crt_stdio_output@@IAE_NAA_J@Z 1006281a f i libucrt:output.obj
 0001:000618cc       ??$extract_argument_from_va_list@C_J@?$positional_parameter_base@_WV?$stream_output_adapter@_W@__crt_stdio_output@@@__crt_stdio_output@@IAE_NAA_J@Z 100628cc f i libucrt:output.obj
 0001:00061980       ??$extract_argument_from_va_list@C_J@?$positional_parameter_base@_WV?$string_output_adapter@_W@__crt_stdio_output@@@__crt_stdio_output@@IAE_NAA_J@Z 10062980 f i libucrt:output.obj
 0001:00061a34       ??$extract_argument_from_va_list@C_J@?$standard_base@DV?$stream_output_adapter@D@__crt_stdio_output@@@__crt_stdio_output@@IAE_NAA_J@Z 10062a34 f i libucrt:output.obj
 0001:00061a5c       ??$extract_argument_from_va_list@C_J@?$standard_base@DV?$string_output_adapter@D@__crt_stdio_output@@@__crt_stdio_output@@IAE_NAA_J@Z 10062a5c f i libucrt:output.obj
 0001:00061a84       ??$extract_argument_from_va_list@C_J@?$standard_base@_WV?$stream_output_adapter@_W@__crt_stdio_output@@@__crt_stdio_output@@IAE_NAA_J@Z 10062a84 f i libucrt:output.obj
 0001:00061aac       ??$extract_argument_from_va_list@C_J@?$standard_base@_WV?$string_output_adapter@_W@__crt_stdio_output@@@__crt_stdio_output@@IAE_NAA_J@Z 10062aac f i libucrt:output.obj
 0001:00061ad4       ??$extract_argument_from_va_list@E_J@?$positional_parameter_base@DV?$stream_output_adapter@D@__crt_stdio_output@@@__crt_stdio_output@@IAE_NAA_J@Z 10062ad4 f i libucrt:output.obj
 0001:00061b86       ??$extract_argument_from_va_list@E_J@?$positional_parameter_base@DV?$string_output_adapter@D@__crt_stdio_output@@@__crt_stdio_output@@IAE_NAA_J@Z 10062b86 f i libucrt:output.obj
 0001:00061c38       ??$extract_argument_from_va_list@E_J@?$positional_parameter_base@_WV?$stream_output_adapter@_W@__crt_stdio_output@@@__crt_stdio_output@@IAE_NAA_J@Z 10062c38 f i libucrt:output.obj
 0001:00061cec       ??$extract_argument_from_va_list@E_J@?$positional_parameter_base@_WV?$string_output_adapter@_W@__crt_stdio_output@@@__crt_stdio_output@@IAE_NAA_J@Z 10062cec f i libucrt:output.obj
 0001:00061da0       ??$extract_argument_from_va_list@E_J@?$standard_base@DV?$stream_output_adapter@D@__crt_stdio_output@@@__crt_stdio_output@@IAE_NAA_J@Z 10062da0 f i libucrt:output.obj
 0001:00061dc8       ??$extract_argument_from_va_list@E_J@?$standard_base@DV?$string_output_adapter@D@__crt_stdio_output@@@__crt_stdio_output@@IAE_NAA_J@Z 10062dc8 f i libucrt:output.obj
 0001:00061df0       ??$extract_argument_from_va_list@E_J@?$standard_base@_WV?$stream_output_adapter@_W@__crt_stdio_output@@@__crt_stdio_output@@IAE_NAA_J@Z 10062df0 f i libucrt:output.obj
 0001:00061e18       ??$extract_argument_from_va_list@E_J@?$standard_base@_WV?$string_output_adapter@_W@__crt_stdio_output@@@__crt_stdio_output@@IAE_NAA_J@Z 10062e18 f i libucrt:output.obj
 0001:00061e40       ??$extract_argument_from_va_list@F_J@?$positional_parameter_base@DV?$stream_output_adapter@D@__crt_stdio_output@@@__crt_stdio_output@@IAE_NAA_J@Z 10062e40 f i libucrt:output.obj
 0001:00061ef2       ??$extract_argument_from_va_list@F_J@?$positional_parameter_base@DV?$string_output_adapter@D@__crt_stdio_output@@@__crt_stdio_output@@IAE_NAA_J@Z 10062ef2 f i libucrt:output.obj
 0001:00061fa4       ??$extract_argument_from_va_list@F_J@?$positional_parameter_base@_WV?$stream_output_adapter@_W@__crt_stdio_output@@@__crt_stdio_output@@IAE_NAA_J@Z 10062fa4 f i libucrt:output.obj
 0001:00062058       ??$extract_argument_from_va_list@F_J@?$positional_parameter_base@_WV?$string_output_adapter@_W@__crt_stdio_output@@@__crt_stdio_output@@IAE_NAA_J@Z 10063058 f i libucrt:output.obj
 0001:0006210c       ??$extract_argument_from_va_list@F_J@?$standard_base@DV?$stream_output_adapter@D@__crt_stdio_output@@@__crt_stdio_output@@IAE_NAA_J@Z 1006310c f i libucrt:output.obj
 0001:00062134       ??$extract_argument_from_va_list@F_J@?$standard_base@DV?$string_output_adapter@D@__crt_stdio_output@@@__crt_stdio_output@@IAE_NAA_J@Z 10063134 f i libucrt:output.obj
 0001:0006215c       ??$extract_argument_from_va_list@F_J@?$standard_base@_WV?$stream_output_adapter@_W@__crt_stdio_output@@@__crt_stdio_output@@IAE_NAA_J@Z 1006315c f i libucrt:output.obj
 0001:00062184       ??$extract_argument_from_va_list@F_J@?$standard_base@_WV?$string_output_adapter@_W@__crt_stdio_output@@@__crt_stdio_output@@IAE_NAA_J@Z 10063184 f i libucrt:output.obj
 0001:000621ac       ??$extract_argument_from_va_list@GD@?$positional_parameter_base@DV?$stream_output_adapter@D@__crt_stdio_output@@@__crt_stdio_output@@IAE_NAAD@Z 100631ac f i libucrt:output.obj
 0001:0006225d       ??$extract_argument_from_va_list@GD@?$positional_parameter_base@DV?$string_output_adapter@D@__crt_stdio_output@@@__crt_stdio_output@@IAE_NAAD@Z 1006325d f i libucrt:output.obj
 0001:0006230e       ??$extract_argument_from_va_list@GD@?$standard_base@DV?$stream_output_adapter@D@__crt_stdio_output@@@__crt_stdio_output@@IAE_NAAD@Z 1006330e f i libucrt:output.obj
 0001:0006232f       ??$extract_argument_from_va_list@GD@?$standard_base@DV?$string_output_adapter@D@__crt_stdio_output@@@__crt_stdio_output@@IAE_NAAD@Z 1006332f f i libucrt:output.obj
 0001:00062350       ??$extract_argument_from_va_list@G_J@?$positional_parameter_base@DV?$stream_output_adapter@D@__crt_stdio_output@@@__crt_stdio_output@@IAE_NAA_J@Z 10063350 f i libucrt:output.obj
 0001:00062402       ??$extract_argument_from_va_list@G_J@?$positional_parameter_base@DV?$string_output_adapter@D@__crt_stdio_output@@@__crt_stdio_output@@IAE_NAA_J@Z 10063402 f i libucrt:output.obj
 0001:000624b4       ??$extract_argument_from_va_list@G_J@?$positional_parameter_base@_WV?$stream_output_adapter@_W@__crt_stdio_output@@@__crt_stdio_output@@IAE_NAA_J@Z 100634b4 f i libucrt:output.obj
 0001:00062568       ??$extract_argument_from_va_list@G_J@?$positional_parameter_base@_WV?$string_output_adapter@_W@__crt_stdio_output@@@__crt_stdio_output@@IAE_NAA_J@Z 10063568 f i libucrt:output.obj
 0001:0006261c       ??$extract_argument_from_va_list@G_J@?$standard_base@DV?$stream_output_adapter@D@__crt_stdio_output@@@__crt_stdio_output@@IAE_NAA_J@Z 1006361c f i libucrt:output.obj
 0001:00062644       ??$extract_argument_from_va_list@G_J@?$standard_base@DV?$string_output_adapter@D@__crt_stdio_output@@@__crt_stdio_output@@IAE_NAA_J@Z 10063644 f i libucrt:output.obj
 0001:0006266c       ??$extract_argument_from_va_list@G_J@?$standard_base@_WV?$stream_output_adapter@_W@__crt_stdio_output@@@__crt_stdio_output@@IAE_NAA_J@Z 1006366c f i libucrt:output.obj
 0001:00062694       ??$extract_argument_from_va_list@G_J@?$standard_base@_WV?$string_output_adapter@_W@__crt_stdio_output@@@__crt_stdio_output@@IAE_NAA_J@Z 10063694 f i libucrt:output.obj
 0001:000626bc       ??$extract_argument_from_va_list@H_J@?$positional_parameter_base@DV?$stream_output_adapter@D@__crt_stdio_output@@@__crt_stdio_output@@IAE_NAA_J@Z 100636bc f i libucrt:output.obj
 0001:00062767       ??$extract_argument_from_va_list@H_J@?$positional_parameter_base@DV?$string_output_adapter@D@__crt_stdio_output@@@__crt_stdio_output@@IAE_NAA_J@Z 10063767 f i libucrt:output.obj
 0001:00062812       ??$extract_argument_from_va_list@H_J@?$positional_parameter_base@_WV?$stream_output_adapter@_W@__crt_stdio_output@@@__crt_stdio_output@@IAE_NAA_J@Z 10063812 f i libucrt:output.obj
 0001:000628be       ??$extract_argument_from_va_list@H_J@?$positional_parameter_base@_WV?$string_output_adapter@_W@__crt_stdio_output@@@__crt_stdio_output@@IAE_NAA_J@Z 100638be f i libucrt:output.obj
 0001:0006296a       ??$extract_argument_from_va_list@H_J@?$standard_base@DV?$stream_output_adapter@D@__crt_stdio_output@@@__crt_stdio_output@@IAE_NAA_J@Z 1006396a f i libucrt:output.obj
 0001:00062990       ??$extract_argument_from_va_list@H_J@?$standard_base@DV?$string_output_adapter@D@__crt_stdio_output@@@__crt_stdio_output@@IAE_NAA_J@Z 10063990 f i libucrt:output.obj
 0001:000629b6       ??$extract_argument_from_va_list@H_J@?$standard_base@_WV?$stream_output_adapter@_W@__crt_stdio_output@@@__crt_stdio_output@@IAE_NAA_J@Z 100639b6 f i libucrt:output.obj
 0001:000629dc       ??$extract_argument_from_va_list@H_J@?$standard_base@_WV?$string_output_adapter@_W@__crt_stdio_output@@@__crt_stdio_output@@IAE_NAA_J@Z 100639dc f i libucrt:output.obj
 0001:00062a02       ??$extract_argument_from_va_list@I_J@?$positional_parameter_base@DV?$stream_output_adapter@D@__crt_stdio_output@@@__crt_stdio_output@@IAE_NAA_J@Z 10063a02 f i libucrt:output.obj
 0001:00062abd       ??$extract_argument_from_va_list@I_J@?$positional_parameter_base@DV?$string_output_adapter@D@__crt_stdio_output@@@__crt_stdio_output@@IAE_NAA_J@Z 10063abd f i libucrt:output.obj
 0001:00062b78       ??$extract_argument_from_va_list@I_J@?$positional_parameter_base@_WV?$stream_output_adapter@_W@__crt_stdio_output@@@__crt_stdio_output@@IAE_NAA_J@Z 10063b78 f i libucrt:output.obj
 0001:00062c34       ??$extract_argument_from_va_list@I_J@?$positional_parameter_base@_WV?$string_output_adapter@_W@__crt_stdio_output@@@__crt_stdio_output@@IAE_NAA_J@Z 10063c34 f i libucrt:output.obj
 0001:00062cf0       ??$extract_argument_from_va_list@I_J@?$standard_base@DV?$stream_output_adapter@D@__crt_stdio_output@@@__crt_stdio_output@@IAE_NAA_J@Z 10063cf0 f i libucrt:output.obj
 0001:00062d16       ??$extract_argument_from_va_list@I_J@?$standard_base@DV?$string_output_adapter@D@__crt_stdio_output@@@__crt_stdio_output@@IAE_NAA_J@Z 10063d16 f i libucrt:output.obj
 0001:00062d3c       ??$extract_argument_from_va_list@I_J@?$standard_base@_WV?$stream_output_adapter@_W@__crt_stdio_output@@@__crt_stdio_output@@IAE_NAA_J@Z 10063d3c f i libucrt:output.obj
 0001:00062d62       ??$extract_argument_from_va_list@I_J@?$standard_base@_WV?$string_output_adapter@_W@__crt_stdio_output@@@__crt_stdio_output@@IAE_NAA_J@Z 10063d62 f i libucrt:output.obj
 0001:00062d88       ??$extract_argument_from_va_list@PADPAD@?$positional_parameter_base@DV?$stream_output_adapter@D@__crt_stdio_output@@@__crt_stdio_output@@IAE_NAAPAD@Z 10063d88 f i libucrt:output.obj
 0001:00062e39       ??$extract_argument_from_va_list@PADPAD@?$positional_parameter_base@DV?$string_output_adapter@D@__crt_stdio_output@@@__crt_stdio_output@@IAE_NAAPAD@Z 10063e39 f i libucrt:output.obj
 0001:00062eea       ??$extract_argument_from_va_list@PADPAD@?$positional_parameter_base@_WV?$stream_output_adapter@_W@__crt_stdio_output@@@__crt_stdio_output@@IAE_NAAPAD@Z 10063eea f i libucrt:output.obj
 0001:00062f9c       ??$extract_argument_from_va_list@PADPAD@?$positional_parameter_base@_WV?$string_output_adapter@_W@__crt_stdio_output@@@__crt_stdio_output@@IAE_NAAPAD@Z 10063f9c f i libucrt:output.obj
 0001:0006304e       ??$extract_argument_from_va_list@PADPAD@?$standard_base@DV?$stream_output_adapter@D@__crt_stdio_output@@@__crt_stdio_output@@IAE_NAAPAD@Z 1006404e f i libucrt:output.obj
 0001:00063072       ??$extract_argument_from_va_list@PADPAD@?$standard_base@DV?$string_output_adapter@D@__crt_stdio_output@@@__crt_stdio_output@@IAE_NAAPAD@Z 10064072 f i libucrt:output.obj
 0001:00063096       ??$extract_argument_from_va_list@PADPAD@?$standard_base@_WV?$stream_output_adapter@_W@__crt_stdio_output@@@__crt_stdio_output@@IAE_NAAPAD@Z 10064096 f i libucrt:output.obj
 0001:000630ba       ??$extract_argument_from_va_list@PADPAD@?$standard_base@_WV?$string_output_adapter@_W@__crt_stdio_output@@@__crt_stdio_output@@IAE_NAAPAD@Z 100640ba f i libucrt:output.obj
 0001:000630de       ??$extract_argument_from_va_list@PAUansi_string@?1??type_case_Z@?$output_processor@DV?$stream_output_adapter@D@__crt_stdio_output@@V?$format_validation_base@DV?$stream_output_adapter@D@__crt_stdio_output@@@2@@__crt_stdio_output@@AAE_NXZ@PAU1?1??234@AAE_NXZ@@?$standard_base@DV?$stream_output_adapter@D@__crt_stdio_output@@@__crt_stdio_output@@IAE_NAAPAUansi_string@?1??type_case_Z@?$output_processor@DV?$stream_output_adapter@D@__crt_stdio_output@@V?$format_validation_base@DV?$stream_output_adapter@D@__crt_stdio_output@@@2@@1@AAE_NXZ@@Z 100640de f i libucrt:output.obj
 0001:00063102       ??$extract_argument_from_va_list@PAUansi_string@?1??type_case_Z@?$output_processor@DV?$stream_output_adapter@D@__crt_stdio_output@@V?$positional_parameter_base@DV?$stream_output_adapter@D@__crt_stdio_output@@@2@@__crt_stdio_output@@AAE_NXZ@PAU1?1??234@AAE_NXZ@@?$positional_parameter_base@DV?$stream_output_adapter@D@__crt_stdio_output@@@__crt_stdio_output@@IAE_NAAPAUansi_string@?1??type_case_Z@?$output_processor@DV?$stream_output_adapter@D@__crt_stdio_output@@V?$positional_parameter_base@DV?$stream_output_adapter@D@__crt_stdio_output@@@2@@1@AAE_NXZ@@Z 10064102 f i libucrt:output.obj
 0001:000631b3       ??$extract_argument_from_va_list@PAUansi_string@?1??type_case_Z@?$output_processor@DV?$stream_output_adapter@D@__crt_stdio_output@@V?$positional_parameter_base@DV?$stream_output_adapter@D@__crt_stdio_output@@@2@@__crt_stdio_output@@AAE_NXZ@PAU1?1??234@AAE_NXZ@@?$standard_base@DV?$stream_output_adapter@D@__crt_stdio_output@@@__crt_stdio_output@@IAE_NAAPAUansi_string@?1??type_case_Z@?$output_processor@DV?$stream_output_adapter@D@__crt_stdio_output@@V?$positional_parameter_base@DV?$stream_output_adapter@D@__crt_stdio_output@@@2@@1@AAE_NXZ@@Z 100641b3 f i libucrt:output.obj
 0001:000631d7       ??$extract_argument_from_va_list@PAUansi_string@?1??type_case_Z@?$output_processor@DV?$stream_output_adapter@D@__crt_stdio_output@@V?$standard_base@DV?$stream_output_adapter@D@__crt_stdio_output@@@2@@__crt_stdio_output@@AAE_NXZ@PAU1?1??234@AAE_NXZ@@?$standard_base@DV?$stream_output_adapter@D@__crt_stdio_output@@@__crt_stdio_output@@IAE_NAAPAUansi_string@?1??type_case_Z@?$output_processor@DV?$stream_output_adapter@D@__crt_stdio_output@@V?$standard_base@DV?$stream_output_adapter@D@__crt_stdio_output@@@2@@1@AAE_NXZ@@Z 100641d7 f i libucrt:output.obj
 0001:000631fb       ??$extract_argument_from_va_list@PAUansi_string@?1??type_case_Z@?$output_processor@DV?$string_output_adapter@D@__crt_stdio_output@@V?$format_validation_base@DV?$string_output_adapter@D@__crt_stdio_output@@@2@@__crt_stdio_output@@AAE_NXZ@PAU1?1??234@AAE_NXZ@@?$standard_base@DV?$string_output_adapter@D@__crt_stdio_output@@@__crt_stdio_output@@IAE_NAAPAUansi_string@?1??type_case_Z@?$output_processor@DV?$string_output_adapter@D@__crt_stdio_output@@V?$format_validation_base@DV?$string_output_adapter@D@__crt_stdio_output@@@2@@1@AAE_NXZ@@Z 100641fb f i libucrt:output.obj
 0001:0006321f       ??$extract_argument_from_va_list@PAUansi_string@?1??type_case_Z@?$output_processor@DV?$string_output_adapter@D@__crt_stdio_output@@V?$positional_parameter_base@DV?$string_output_adapter@D@__crt_stdio_output@@@2@@__crt_stdio_output@@AAE_NXZ@PAU1?1??234@AAE_NXZ@@?$positional_parameter_base@DV?$string_output_adapter@D@__crt_stdio_output@@@__crt_stdio_output@@IAE_NAAPAUansi_string@?1??type_case_Z@?$output_processor@DV?$string_output_adapter@D@__crt_stdio_output@@V?$positional_parameter_base@DV?$string_output_adapter@D@__crt_stdio_output@@@2@@1@AAE_NXZ@@Z 1006421f f i libucrt:output.obj
 0001:000632d0       ??$extract_argument_from_va_list@PAUansi_string@?1??type_case_Z@?$output_processor@DV?$string_output_adapter@D@__crt_stdio_output@@V?$positional_parameter_base@DV?$string_output_adapter@D@__crt_stdio_output@@@2@@__crt_stdio_output@@AAE_NXZ@PAU1?1??234@AAE_NXZ@@?$standard_base@DV?$string_output_adapter@D@__crt_stdio_output@@@__crt_stdio_output@@IAE_NAAPAUansi_string@?1??type_case_Z@?$output_processor@DV?$string_output_adapter@D@__crt_stdio_output@@V?$positional_parameter_base@DV?$string_output_adapter@D@__crt_stdio_output@@@2@@1@AAE_NXZ@@Z 100642d0 f i libucrt:output.obj
 0001:000632f4       ??$extract_argument_from_va_list@PAUansi_string@?1??type_case_Z@?$output_processor@DV?$string_output_adapter@D@__crt_stdio_output@@V?$standard_base@DV?$string_output_adapter@D@__crt_stdio_output@@@2@@__crt_stdio_output@@AAE_NXZ@PAU1?1??234@AAE_NXZ@@?$standard_base@DV?$string_output_adapter@D@__crt_stdio_output@@@__crt_stdio_output@@IAE_NAAPAUansi_string@?1??type_case_Z@?$output_processor@DV?$string_output_adapter@D@__crt_stdio_output@@V?$standard_base@DV?$string_output_adapter@D@__crt_stdio_output@@@2@@1@AAE_NXZ@@Z 100642f4 f i libucrt:output.obj
 0001:00063318       ??$extract_argument_from_va_list@PAUansi_string@?1??type_case_Z@?$output_processor@_WV?$stream_output_adapter@_W@__crt_stdio_output@@V?$format_validation_base@_WV?$stream_output_adapter@_W@__crt_stdio_output@@@2@@__crt_stdio_output@@AAE_NXZ@PAU1?1??234@AAE_NXZ@@?$standard_base@_WV?$stream_output_adapter@_W@__crt_stdio_output@@@__crt_stdio_output@@IAE_NAAPAUansi_string@?1??type_case_Z@?$output_processor@_WV?$stream_output_adapter@_W@__crt_stdio_output@@V?$format_validation_base@_WV?$stream_output_adapter@_W@__crt_stdio_output@@@2@@1@AAE_NXZ@@Z 10064318 f i libucrt:output.obj
 0001:0006333c       ??$extract_argument_from_va_list@PAUansi_string@?1??type_case_Z@?$output_processor@_WV?$stream_output_adapter@_W@__crt_stdio_output@@V?$positional_parameter_base@_WV?$stream_output_adapter@_W@__crt_stdio_output@@@2@@__crt_stdio_output@@AAE_NXZ@PAU1?1??234@AAE_NXZ@@?$positional_parameter_base@_WV?$stream_output_adapter@_W@__crt_stdio_output@@@__crt_stdio_output@@IAE_NAAPAUansi_string@?1??type_case_Z@?$output_processor@_WV?$stream_output_adapter@_W@__crt_stdio_output@@V?$positional_parameter_base@_WV?$stream_output_adapter@_W@__crt_stdio_output@@@2@@1@AAE_NXZ@@Z 1006433c f i libucrt:output.obj
 0001:000633ee       ??$extract_argument_from_va_list@PAUansi_string@?1??type_case_Z@?$output_processor@_WV?$stream_output_adapter@_W@__crt_stdio_output@@V?$positional_parameter_base@_WV?$stream_output_adapter@_W@__crt_stdio_output@@@2@@__crt_stdio_output@@AAE_NXZ@PAU1?1??234@AAE_NXZ@@?$standard_base@_WV?$stream_output_adapter@_W@__crt_stdio_output@@@__crt_stdio_output@@IAE_NAAPAUansi_string@?1??type_case_Z@?$output_processor@_WV?$stream_output_adapter@_W@__crt_stdio_output@@V?$positional_parameter_base@_WV?$stream_output_adapter@_W@__crt_stdio_output@@@2@@1@AAE_NXZ@@Z 100643ee f i libucrt:output.obj
 0001:00063412       ??$extract_argument_from_va_list@PAUansi_string@?1??type_case_Z@?$output_processor@_WV?$stream_output_adapter@_W@__crt_stdio_output@@V?$standard_base@_WV?$stream_output_adapter@_W@__crt_stdio_output@@@2@@__crt_stdio_output@@AAE_NXZ@PAU1?1??234@AAE_NXZ@@?$standard_base@_WV?$stream_output_adapter@_W@__crt_stdio_output@@@__crt_stdio_output@@IAE_NAAPAUansi_string@?1??type_case_Z@?$output_processor@_WV?$stream_output_adapter@_W@__crt_stdio_output@@V?$standard_base@_WV?$stream_output_adapter@_W@__crt_stdio_output@@@2@@1@AAE_NXZ@@Z 10064412 f i libucrt:output.obj
 0001:00063436       ??$extract_argument_from_va_list@PAUansi_string@?1??type_case_Z@?$output_processor@_WV?$string_output_adapter@_W@__crt_stdio_output@@V?$format_validation_base@_WV?$string_output_adapter@_W@__crt_stdio_output@@@2@@__crt_stdio_output@@AAE_NXZ@PAU1?1??234@AAE_NXZ@@?$standard_base@_WV?$string_output_adapter@_W@__crt_stdio_output@@@__crt_stdio_output@@IAE_NAAPAUansi_string@?1??type_case_Z@?$output_processor@_WV?$string_output_adapter@_W@__crt_stdio_output@@V?$format_validation_base@_WV?$string_output_adapter@_W@__crt_stdio_output@@@2@@1@AAE_NXZ@@Z 10064436 f i libucrt:output.obj
 0001:0006345a       ??$extract_argument_from_va_list@PAUansi_string@?1??type_case_Z@?$output_processor@_WV?$string_output_adapter@_W@__crt_stdio_output@@V?$positional_parameter_base@_WV?$string_output_adapter@_W@__crt_stdio_output@@@2@@__crt_stdio_output@@AAE_NXZ@PAU1?1??234@AAE_NXZ@@?$positional_parameter_base@_WV?$string_output_adapter@_W@__crt_stdio_output@@@__crt_stdio_output@@IAE_NAAPAUansi_string@?1??type_case_Z@?$output_processor@_WV?$string_output_adapter@_W@__crt_stdio_output@@V?$positional_parameter_base@_WV?$string_output_adapter@_W@__crt_stdio_output@@@2@@1@AAE_NXZ@@Z 1006445a f i libucrt:output.obj
 0001:0006350c       ??$extract_argument_from_va_list@PAUansi_string@?1??type_case_Z@?$output_processor@_WV?$string_output_adapter@_W@__crt_stdio_output@@V?$positional_parameter_base@_WV?$string_output_adapter@_W@__crt_stdio_output@@@2@@__crt_stdio_output@@AAE_NXZ@PAU1?1??234@AAE_NXZ@@?$standard_base@_WV?$string_output_adapter@_W@__crt_stdio_output@@@__crt_stdio_output@@IAE_NAAPAUansi_string@?1??type_case_Z@?$output_processor@_WV?$string_output_adapter@_W@__crt_stdio_output@@V?$positional_parameter_base@_WV?$string_output_adapter@_W@__crt_stdio_output@@@2@@1@AAE_NXZ@@Z 1006450c f i libucrt:output.obj
 0001:00063530       ??$extract_argument_from_va_list@PAUansi_string@?1??type_case_Z@?$output_processor@_WV?$string_output_adapter@_W@__crt_stdio_output@@V?$standard_base@_WV?$string_output_adapter@_W@__crt_stdio_output@@@2@@__crt_stdio_output@@AAE_NXZ@PAU1?1??234@AAE_NXZ@@?$standard_base@_WV?$string_output_adapter@_W@__crt_stdio_output@@@__crt_stdio_output@@IAE_NAAPAUansi_string@?1??type_case_Z@?$output_processor@_WV?$string_output_adapter@_W@__crt_stdio_output@@V?$standard_base@_WV?$string_output_adapter@_W@__crt_stdio_output@@@2@@1@AAE_NXZ@@Z 10064530 f i libucrt:output.obj
 0001:00063554       ??$extract_argument_from_va_list@PAXPAX@?$positional_parameter_base@DV?$stream_output_adapter@D@__crt_stdio_output@@@__crt_stdio_output@@IAE_NAAPAX@Z 10064554 f i libucrt:output.obj
 0001:00063605       ??$extract_argument_from_va_list@PAXPAX@?$positional_parameter_base@DV?$string_output_adapter@D@__crt_stdio_output@@@__crt_stdio_output@@IAE_NAAPAX@Z 10064605 f i libucrt:output.obj
 0001:000636b6       ??$extract_argument_from_va_list@PAXPAX@?$positional_parameter_base@_WV?$stream_output_adapter@_W@__crt_stdio_output@@@__crt_stdio_output@@IAE_NAAPAX@Z 100646b6 f i libucrt:output.obj
 0001:00063768       ??$extract_argument_from_va_list@PAXPAX@?$positional_parameter_base@_WV?$string_output_adapter@_W@__crt_stdio_output@@@__crt_stdio_output@@IAE_NAAPAX@Z 10064768 f i libucrt:output.obj
 0001:0006381a       ??$extract_argument_from_va_list@PAXPAX@?$standard_base@DV?$stream_output_adapter@D@__crt_stdio_output@@@__crt_stdio_output@@IAE_NAAPAX@Z 1006481a f i libucrt:output.obj
 0001:0006383e       ??$extract_argument_from_va_list@PAXPAX@?$standard_base@DV?$string_output_adapter@D@__crt_stdio_output@@@__crt_stdio_output@@IAE_NAAPAX@Z 1006483e f i libucrt:output.obj
 0001:00063862       ??$extract_argument_from_va_list@PAXPAX@?$standard_base@_WV?$stream_output_adapter@_W@__crt_stdio_output@@@__crt_stdio_output@@IAE_NAAPAX@Z 10064862 f i libucrt:output.obj
 0001:00063886       ??$extract_argument_from_va_list@PAXPAX@?$standard_base@_WV?$string_output_adapter@_W@__crt_stdio_output@@@__crt_stdio_output@@IAE_NAAPAX@Z 10064886 f i libucrt:output.obj
 0001:000638aa       ??$extract_argument_from_va_list@U_CRT_DOUBLE@@U1@@?$positional_parameter_base@DV?$stream_output_adapter@D@__crt_stdio_output@@@__crt_stdio_output@@IAE_NAAU_CRT_DOUBLE@@@Z 100648aa f i libucrt:output.obj
 0001:00063965       ??$extract_argument_from_va_list@U_CRT_DOUBLE@@U1@@?$positional_parameter_base@DV?$string_output_adapter@D@__crt_stdio_output@@@__crt_stdio_output@@IAE_NAAU_CRT_DOUBLE@@@Z 10064965 f i libucrt:output.obj
 0001:00063a20       ??$extract_argument_from_va_list@U_CRT_DOUBLE@@U1@@?$positional_parameter_base@_WV?$stream_output_adapter@_W@__crt_stdio_output@@@__crt_stdio_output@@IAE_NAAU_CRT_DOUBLE@@@Z 10064a20 f i libucrt:output.obj
 0001:00063adc       ??$extract_argument_from_va_list@U_CRT_DOUBLE@@U1@@?$positional_parameter_base@_WV?$string_output_adapter@_W@__crt_stdio_output@@@__crt_stdio_output@@IAE_NAAU_CRT_DOUBLE@@@Z 10064adc f i libucrt:output.obj
 0001:00063b98       ??$extract_argument_from_va_list@U_CRT_DOUBLE@@U1@@?$standard_base@DV?$stream_output_adapter@D@__crt_stdio_output@@@__crt_stdio_output@@IAE_NAAU_CRT_DOUBLE@@@Z 10064b98 f i libucrt:output.obj
 0001:00063bc1       ??$extract_argument_from_va_list@U_CRT_DOUBLE@@U1@@?$standard_base@DV?$string_output_adapter@D@__crt_stdio_output@@@__crt_stdio_output@@IAE_NAAU_CRT_DOUBLE@@@Z 10064bc1 f i libucrt:output.obj
 0001:00063bea       ??$extract_argument_from_va_list@U_CRT_DOUBLE@@U1@@?$standard_base@_WV?$stream_output_adapter@_W@__crt_stdio_output@@@__crt_stdio_output@@IAE_NAAU_CRT_DOUBLE@@@Z 10064bea f i libucrt:output.obj
 0001:00063c13       ??$extract_argument_from_va_list@U_CRT_DOUBLE@@U1@@?$standard_base@_WV?$string_output_adapter@_W@__crt_stdio_output@@@__crt_stdio_output@@IAE_NAAU_CRT_DOUBLE@@@Z 10064c13 f i libucrt:output.obj
 0001:00063c3c       ??$extract_argument_from_va_list@_J_J@?$positional_parameter_base@DV?$stream_output_adapter@D@__crt_stdio_output@@@__crt_stdio_output@@IAE_NAA_J@Z 10064c3c f i libucrt:output.obj
 0001:00063cfc       ??$extract_argument_from_va_list@_J_J@?$positional_parameter_base@DV?$string_output_adapter@D@__crt_stdio_output@@@__crt_stdio_output@@IAE_NAA_J@Z 10064cfc f i libucrt:output.obj
 0001:00063dbc       ??$extract_argument_from_va_list@_J_J@?$positional_parameter_base@_WV?$stream_output_adapter@_W@__crt_stdio_output@@@__crt_stdio_output@@IAE_NAA_J@Z 10064dbc f i libucrt:output.obj
 0001:00063e7d       ??$extract_argument_from_va_list@_J_J@?$positional_parameter_base@_WV?$string_output_adapter@_W@__crt_stdio_output@@@__crt_stdio_output@@IAE_NAA_J@Z 10064e7d f i libucrt:output.obj
 0001:00063f3e       ??$extract_argument_from_va_list@_J_J@?$standard_base@DV?$stream_output_adapter@D@__crt_stdio_output@@@__crt_stdio_output@@IAE_NAA_J@Z 10064f3e f i libucrt:output.obj
 0001:00063f67       ??$extract_argument_from_va_list@_J_J@?$standard_base@DV?$string_output_adapter@D@__crt_stdio_output@@@__crt_stdio_output@@IAE_NAA_J@Z 10064f67 f i libucrt:output.obj
 0001:00063f90       ??$extract_argument_from_va_list@_J_J@?$standard_base@_WV?$stream_output_adapter@_W@__crt_stdio_output@@@__crt_stdio_output@@IAE_NAA_J@Z 10064f90 f i libucrt:output.obj
 0001:00063fb9       ??$extract_argument_from_va_list@_J_J@?$standard_base@_WV?$string_output_adapter@_W@__crt_stdio_output@@@__crt_stdio_output@@IAE_NAA_J@Z 10064fb9 f i libucrt:output.obj
 0001:00063fe2       ??$extract_argument_from_va_list@_K_J@?$positional_parameter_base@DV?$stream_output_adapter@D@__crt_stdio_output@@@__crt_stdio_output@@IAE_NAA_J@Z 10064fe2 f i libucrt:output.obj
 0001:000640a2       ??$extract_argument_from_va_list@_K_J@?$positional_parameter_base@DV?$string_output_adapter@D@__crt_stdio_output@@@__crt_stdio_output@@IAE_NAA_J@Z 100650a2 f i libucrt:output.obj
 0001:00064162       ??$extract_argument_from_va_list@_K_J@?$positional_parameter_base@_WV?$stream_output_adapter@_W@__crt_stdio_output@@@__crt_stdio_output@@IAE_NAA_J@Z 10065162 f i libucrt:output.obj
 0001:00064223       ??$extract_argument_from_va_list@_K_J@?$positional_parameter_base@_WV?$string_output_adapter@_W@__crt_stdio_output@@@__crt_stdio_output@@IAE_NAA_J@Z 10065223 f i libucrt:output.obj
 0001:000642e4       ??$extract_argument_from_va_list@_K_J@?$standard_base@DV?$stream_output_adapter@D@__crt_stdio_output@@@__crt_stdio_output@@IAE_NAA_J@Z 100652e4 f i libucrt:output.obj
 0001:0006430d       ??$extract_argument_from_va_list@_K_J@?$standard_base@DV?$string_output_adapter@D@__crt_stdio_output@@@__crt_stdio_output@@IAE_NAA_J@Z 1006530d f i libucrt:output.obj
 0001:00064336       ??$extract_argument_from_va_list@_K_J@?$standard_base@_WV?$stream_output_adapter@_W@__crt_stdio_output@@@__crt_stdio_output@@IAE_NAA_J@Z 10065336 f i libucrt:output.obj
 0001:0006435f       ??$extract_argument_from_va_list@_K_J@?$standard_base@_WV?$string_output_adapter@_W@__crt_stdio_output@@@__crt_stdio_output@@IAE_NAA_J@Z 1006535f f i libucrt:output.obj
 0001:00064388       ??$extract_argument_from_va_list@_W_W@?$positional_parameter_base@DV?$stream_output_adapter@D@__crt_stdio_output@@@__crt_stdio_output@@IAE_NAA_W@Z 10065388 f i libucrt:output.obj
 0001:0006443e       ??$extract_argument_from_va_list@_W_W@?$positional_parameter_base@DV?$string_output_adapter@D@__crt_stdio_output@@@__crt_stdio_output@@IAE_NAA_W@Z 1006543e f i libucrt:output.obj
 0001:000644f4       ??$extract_argument_from_va_list@_W_W@?$positional_parameter_base@_WV?$stream_output_adapter@_W@__crt_stdio_output@@@__crt_stdio_output@@IAE_NAA_W@Z 100654f4 f i libucrt:output.obj
 0001:000645ab       ??$extract_argument_from_va_list@_W_W@?$positional_parameter_base@_WV?$string_output_adapter@_W@__crt_stdio_output@@@__crt_stdio_output@@IAE_NAA_W@Z 100655ab f i libucrt:output.obj
 0001:00064662       ??$extract_argument_from_va_list@_W_W@?$standard_base@DV?$stream_output_adapter@D@__crt_stdio_output@@@__crt_stdio_output@@IAE_NAA_W@Z 10065662 f i libucrt:output.obj
 0001:00064686       ??$extract_argument_from_va_list@_W_W@?$standard_base@DV?$string_output_adapter@D@__crt_stdio_output@@@__crt_stdio_output@@IAE_NAA_W@Z 10065686 f i libucrt:output.obj
 0001:000646aa       ??$extract_argument_from_va_list@_W_W@?$standard_base@_WV?$stream_output_adapter@_W@__crt_stdio_output@@@__crt_stdio_output@@IAE_NAA_W@Z 100656aa f i libucrt:output.obj
 0001:000646ce       ??$extract_argument_from_va_list@_W_W@?$standard_base@_WV?$string_output_adapter@_W@__crt_stdio_output@@@__crt_stdio_output@@IAE_NAA_W@Z 100656ce f i libucrt:output.obj
 0001:000646f2       ??$get_parameter_type@D@?$positional_parameter_base@DV?$stream_output_adapter@D@__crt_stdio_output@@@__crt_stdio_output@@CA?AW4parameter_type@01@PAD@Z 100656f2 f i libucrt:output.obj
 0001:000646f6       ??$get_parameter_type@D@?$positional_parameter_base@DV?$string_output_adapter@D@__crt_stdio_output@@@__crt_stdio_output@@CA?AW4parameter_type@01@PAD@Z 100656f6 f i libucrt:output.obj
 0001:000646fa       ??$get_parameter_type@D@?$positional_parameter_base@_WV?$stream_output_adapter@_W@__crt_stdio_output@@@__crt_stdio_output@@CA?AW4parameter_type@01@PAD@Z 100656fa f i libucrt:output.obj
 0001:000646fe       ??$get_parameter_type@D@?$positional_parameter_base@_WV?$string_output_adapter@_W@__crt_stdio_output@@@__crt_stdio_output@@CA?AW4parameter_type@01@PAD@Z 100656fe f i libucrt:output.obj
 0001:00064702       ??$get_parameter_type@Uansi_string@?1??type_case_Z@?$output_processor@DV?$stream_output_adapter@D@__crt_stdio_output@@V?$positional_parameter_base@DV?$stream_output_adapter@D@__crt_stdio_output@@@2@@__crt_stdio_output@@AAE_NXZ@@?$positional_parameter_base@DV?$stream_output_adapter@D@__crt_stdio_output@@@__crt_stdio_output@@CA?AW4parameter_type@01@PAUansi_string@?1??type_case_Z@?$output_processor@DV?$stream_output_adapter@D@__crt_stdio_output@@V?$positional_parameter_base@DV?$stream_output_adapter@D@__crt_stdio_output@@@2@@1@AAE_NXZ@@Z 10065702 f i libucrt:output.obj
 0001:00064706       ??$get_parameter_type@Uansi_string@?1??type_case_Z@?$output_processor@DV?$string_output_adapter@D@__crt_stdio_output@@V?$positional_parameter_base@DV?$string_output_adapter@D@__crt_stdio_output@@@2@@__crt_stdio_output@@AAE_NXZ@@?$positional_parameter_base@DV?$string_output_adapter@D@__crt_stdio_output@@@__crt_stdio_output@@CA?AW4parameter_type@01@PAUansi_string@?1??type_case_Z@?$output_processor@DV?$string_output_adapter@D@__crt_stdio_output@@V?$positional_parameter_base@DV?$string_output_adapter@D@__crt_stdio_output@@@2@@1@AAE_NXZ@@Z 10065706 f i libucrt:output.obj
 0001:0006470a       ??$get_parameter_type@Uansi_string@?1??type_case_Z@?$output_processor@_WV?$stream_output_adapter@_W@__crt_stdio_output@@V?$positional_parameter_base@_WV?$stream_output_adapter@_W@__crt_stdio_output@@@2@@__crt_stdio_output@@AAE_NXZ@@?$positional_parameter_base@_WV?$stream_output_adapter@_W@__crt_stdio_output@@@__crt_stdio_output@@CA?AW4parameter_type@01@PAUansi_string@?1??type_case_Z@?$output_processor@_WV?$stream_output_adapter@_W@__crt_stdio_output@@V?$positional_parameter_base@_WV?$stream_output_adapter@_W@__crt_stdio_output@@@2@@1@AAE_NXZ@@Z 1006570a f i libucrt:output.obj
 0001:0006470e       ??$get_parameter_type@Uansi_string@?1??type_case_Z@?$output_processor@_WV?$string_output_adapter@_W@__crt_stdio_output@@V?$positional_parameter_base@_WV?$string_output_adapter@_W@__crt_stdio_output@@@2@@__crt_stdio_output@@AAE_NXZ@@?$positional_parameter_base@_WV?$string_output_adapter@_W@__crt_stdio_output@@@__crt_stdio_output@@CA?AW4parameter_type@01@PAUansi_string@?1??type_case_Z@?$output_processor@_WV?$string_output_adapter@_W@__crt_stdio_output@@V?$positional_parameter_base@_WV?$string_output_adapter@_W@__crt_stdio_output@@@2@@1@AAE_NXZ@@Z 1006570e f i libucrt:output.obj
 0001:00064712       ??$get_parameter_type@X@?$positional_parameter_base@DV?$stream_output_adapter@D@__crt_stdio_output@@@__crt_stdio_output@@CA?AW4parameter_type@01@PAX@Z 10065712 f i libucrt:output.obj
 0001:00064716       ??$get_parameter_type@X@?$positional_parameter_base@DV?$string_output_adapter@D@__crt_stdio_output@@@__crt_stdio_output@@CA?AW4parameter_type@01@PAX@Z 10065716 f i libucrt:output.obj
 0001:0006471a       ??$get_parameter_type@X@?$positional_parameter_base@_WV?$stream_output_adapter@_W@__crt_stdio_output@@@__crt_stdio_output@@CA?AW4parameter_type@01@PAX@Z 1006571a f i libucrt:output.obj
 0001:0006471e       ??$get_parameter_type@X@?$positional_parameter_base@_WV?$string_output_adapter@_W@__crt_stdio_output@@@__crt_stdio_output@@CA?AW4parameter_type@01@PAX@Z 1006571e f i libucrt:output.obj
 0001:00064722       ??$is_character_specifier@D@?$positional_parameter_base@DV?$stream_output_adapter@D@__crt_stdio_output@@@__crt_stdio_output@@CA_ND@Z 10065722 f i libucrt:output.obj
 0001:00064740       ??$is_character_specifier@D@?$positional_parameter_base@DV?$string_output_adapter@D@__crt_stdio_output@@@__crt_stdio_output@@CA_ND@Z 10065740 f i libucrt:output.obj
 0001:0006475e       ??$is_character_specifier@_W@?$positional_parameter_base@_WV?$stream_output_adapter@_W@__crt_stdio_output@@@__crt_stdio_output@@CA_N_W@Z 1006575e f i libucrt:output.obj
 0001:0006477f       ??$is_character_specifier@_W@?$positional_parameter_base@_WV?$string_output_adapter@_W@__crt_stdio_output@@@__crt_stdio_output@@CA_N_W@Z 1006577f f i libucrt:output.obj
 0001:000647a0       ??$is_integral_specifier@D@?$positional_parameter_base@DV?$stream_output_adapter@D@__crt_stdio_output@@@__crt_stdio_output@@CA_ND@Z 100657a0 f i libucrt:output.obj
 0001:000647d7       ??$is_integral_specifier@D@?$positional_parameter_base@DV?$string_output_adapter@D@__crt_stdio_output@@@__crt_stdio_output@@CA_ND@Z 100657d7 f i libucrt:output.obj
 0001:0006480e       ??$is_integral_specifier@_W@?$positional_parameter_base@_WV?$stream_output_adapter@_W@__crt_stdio_output@@@__crt_stdio_output@@CA_N_W@Z 1006580e f i libucrt:output.obj
 0001:00064857       ??$is_integral_specifier@_W@?$positional_parameter_base@_WV?$string_output_adapter@_W@__crt_stdio_output@@@__crt_stdio_output@@CA_N_W@Z 10065857 f i libucrt:output.obj
 0001:000648a0       ??$is_overflow_condition@K@__crt_strtox@@YA_NIK@Z 100658a0 f i libucrt:output.obj
 0001:000648e1       ??$is_pointer_specifier@D@?$positional_parameter_base@DV?$stream_output_adapter@D@__crt_stdio_output@@@__crt_stdio_output@@CA_ND@Z 100658e1 f i libucrt:output.obj
 0001:000648f2       ??$is_pointer_specifier@D@?$positional_parameter_base@DV?$string_output_adapter@D@__crt_stdio_output@@@__crt_stdio_output@@CA_ND@Z 100658f2 f i libucrt:output.obj
 0001:00064903       ??$is_pointer_specifier@_W@?$positional_parameter_base@_WV?$stream_output_adapter@_W@__crt_stdio_output@@@__crt_stdio_output@@CA_N_W@Z 10065903 f i libucrt:output.obj
 0001:00064915       ??$is_pointer_specifier@_W@?$positional_parameter_base@_WV?$string_output_adapter@_W@__crt_stdio_output@@@__crt_stdio_output@@CA_N_W@Z 10065915 f i libucrt:output.obj
 0001:00064927       ??$is_string_specifier@D@?$positional_parameter_base@DV?$stream_output_adapter@D@__crt_stdio_output@@@__crt_stdio_output@@CA_ND@Z 10065927 f i libucrt:output.obj
 0001:00064945       ??$is_string_specifier@D@?$positional_parameter_base@DV?$string_output_adapter@D@__crt_stdio_output@@@__crt_stdio_output@@CA_ND@Z 10065945 f i libucrt:output.obj
 0001:00064963       ??$is_string_specifier@_W@?$positional_parameter_base@_WV?$stream_output_adapter@_W@__crt_stdio_output@@@__crt_stdio_output@@CA_N_W@Z 10065963 f i libucrt:output.obj
 0001:00064984       ??$is_string_specifier@_W@?$positional_parameter_base@_WV?$string_output_adapter@_W@__crt_stdio_output@@@__crt_stdio_output@@CA_N_W@Z 10065984 f i libucrt:output.obj
 0001:000649a5       ??$is_wide_character_specifier@D@__crt_stdio_output@@YA_N_KDW4length_modifier@0@@Z 100659a5 f i libucrt:output.obj
 0001:000649e2       ??$is_wide_character_specifier@_W@__crt_stdio_output@@YA_N_K_WW4length_modifier@0@@Z 100659e2 f i libucrt:output.obj
 0001:00064a43       ??$make_c_string_character_source@DPAPAD@__crt_strtox@@YA?AV?$c_string_character_source@D@0@QBDQAPAD@Z 10065a43 f i libucrt:output.obj
 0001:00064a64       ??$make_c_string_character_source@_WPAPA_W@__crt_strtox@@YA?AV?$c_string_character_source@_W@0@QB_WQAPA_W@Z 10065a64 f i libucrt:output.obj
 0001:00064a85       ??$parse_integer@KV?$c_string_character_source@D@__crt_strtox@@$0A@@__crt_strtox@@YAKAAV__crt_cached_ptd_host@@V?$c_string_character_source@D@0@H_N@Z 10065a85 f i libucrt:output.obj
 0001:00064d17       ??$parse_integer@KV?$c_string_character_source@_W@__crt_strtox@@$0A@@__crt_strtox@@YAKAAV__crt_cached_ptd_host@@V?$c_string_character_source@_W@0@H_N@Z 10065d17 f i libucrt:output.obj
 0001:0006545e       ??$peek_va_arg@C@__crt_stdio_output@@YACPAD@Z 1006645e f i libucrt:output.obj
 0001:0006546d       ??$peek_va_arg@E@__crt_stdio_output@@YAEPAD@Z 1006646d f i libucrt:output.obj
 0001:0006547c       ??$peek_va_arg@F@__crt_stdio_output@@YAFPAD@Z 1006647c f i libucrt:output.obj
 0001:0006548c       ??$peek_va_arg@G@__crt_stdio_output@@YAGPAD@Z 1006648c f i libucrt:output.obj
 0001:0006549c       ??$peek_va_arg@H@__crt_stdio_output@@YAHPAD@Z 1006649c f i libucrt:output.obj
 0001:000654ab       ??$peek_va_arg@I@__crt_stdio_output@@YAIPAD@Z 100664ab f i libucrt:output.obj
 0001:000654ba       ??$peek_va_arg@PAD@__crt_stdio_output@@YAPADPAD@Z 100664ba f i libucrt:output.obj
 0001:000654c9       ??$peek_va_arg@PAUansi_string@?1??type_case_Z@?$output_processor@DV?$stream_output_adapter@D@__crt_stdio_output@@V?$positional_parameter_base@DV?$stream_output_adapter@D@__crt_stdio_output@@@2@@__crt_stdio_output@@AAE_NXZ@@__crt_stdio_output@@YAPAUansi_string@?1??type_case_Z@?$output_processor@DV?$stream_output_adapter@D@__crt_stdio_output@@V?$positional_parameter_base@DV?$stream_output_adapter@D@__crt_stdio_output@@@2@@0@AAE_NXZ@PAD@Z 100664c9 f i libucrt:output.obj
 0001:000654d8       ??$peek_va_arg@PAUansi_string@?1??type_case_Z@?$output_processor@DV?$string_output_adapter@D@__crt_stdio_output@@V?$positional_parameter_base@DV?$string_output_adapter@D@__crt_stdio_output@@@2@@__crt_stdio_output@@AAE_NXZ@@__crt_stdio_output@@YAPAUansi_string@?1??type_case_Z@?$output_processor@DV?$string_output_adapter@D@__crt_stdio_output@@V?$positional_parameter_base@DV?$string_output_adapter@D@__crt_stdio_output@@@2@@0@AAE_NXZ@PAD@Z 100664d8 f i libucrt:output.obj
 0001:000654e7       ??$peek_va_arg@PAUansi_string@?1??type_case_Z@?$output_processor@_WV?$stream_output_adapter@_W@__crt_stdio_output@@V?$positional_parameter_base@_WV?$stream_output_adapter@_W@__crt_stdio_output@@@2@@__crt_stdio_output@@AAE_NXZ@@__crt_stdio_output@@YAPAUansi_string@?1??type_case_Z@?$output_processor@_WV?$stream_output_adapter@_W@__crt_stdio_output@@V?$positional_parameter_base@_WV?$stream_output_adapter@_W@__crt_stdio_output@@@2@@0@AAE_NXZ@PAD@Z 100664e7 f i libucrt:output.obj
 0001:000654f6       ??$peek_va_arg@PAUansi_string@?1??type_case_Z@?$output_processor@_WV?$string_output_adapter@_W@__crt_stdio_output@@V?$positional_parameter_base@_WV?$string_output_adapter@_W@__crt_stdio_output@@@2@@__crt_stdio_output@@AAE_NXZ@@__crt_stdio_output@@YAPAUansi_string@?1??type_case_Z@?$output_processor@_WV?$string_output_adapter@_W@__crt_stdio_output@@V?$positional_parameter_base@_WV?$string_output_adapter@_W@__crt_stdio_output@@@2@@0@AAE_NXZ@PAD@Z 100664f6 f i libucrt:output.obj
 0001:00065505       ??$peek_va_arg@PAX@__crt_stdio_output@@YAPAXPAD@Z 10066505 f i libucrt:output.obj
 0001:00065514       ??$peek_va_arg@U_CRT_DOUBLE@@@__crt_stdio_output@@YA?AU_CRT_DOUBLE@@PAD@Z 10066514 f i libucrt:output.obj
 0001:00065526       ??$peek_va_arg@_J@__crt_stdio_output@@YA_JPAD@Z 10066526 f i libucrt:output.obj
 0001:00065538       ??$peek_va_arg@_K@__crt_stdio_output@@YA_KPAD@Z 10066538 f i libucrt:output.obj
 0001:0006554a       ??$peek_va_arg@_W@__crt_stdio_output@@YA_WPAD@Z 1006654a f i libucrt:output.obj
 0001:0006555a       ??$puttc_nolock_internal@ABDPAU_iobuf@@AAV__crt_cached_ptd_host@@@?$__crt_char_traits@D@@SAHABD$$QAPAU_iobuf@@AAV__crt_cached_ptd_host@@@Z 1006655a f i libucrt:output.obj
 0001:0006557f       ??$puttc_nolock_internal@AB_WPAU_iobuf@@AAV__crt_cached_ptd_host@@@?$__crt_char_traits@_W@@SAGAB_W$$QAPAU_iobuf@@AAV__crt_cached_ptd_host@@@Z 1006657f f i libucrt:output.obj
 0001:000655a4       ??$read_va_arg@C@__crt_stdio_output@@YACAAPAD@Z 100665a4 f i libucrt:output.obj
 0001:000655bb       ??$read_va_arg@E@__crt_stdio_output@@YAEAAPAD@Z 100665bb f i libucrt:output.obj
 0001:000655d2       ??$read_va_arg@F@__crt_stdio_output@@YAFAAPAD@Z 100665d2 f i libucrt:output.obj
 0001:000655eb       ??$read_va_arg@G@__crt_stdio_output@@YAGAAPAD@Z 100665eb f i libucrt:output.obj
 0001:00065604       ??$read_va_arg@H@__crt_stdio_output@@YAHAAPAD@Z 10066604 f i libucrt:output.obj
 0001:0006561b       ??$read_va_arg@I@__crt_stdio_output@@YAIAAPAD@Z 1006661b f i libucrt:output.obj
 0001:00065632       ??$read_va_arg@PAD@__crt_stdio_output@@YAPADAAPAD@Z 10066632 f i libucrt:output.obj
 0001:00065649       ??$read_va_arg@PAUansi_string@?1??type_case_Z@?$output_processor@DV?$stream_output_adapter@D@__crt_stdio_output@@V?$format_validation_base@DV?$stream_output_adapter@D@__crt_stdio_output@@@2@@__crt_stdio_output@@AAE_NXZ@@__crt_stdio_output@@YAPAUansi_string@?1??type_case_Z@?$output_processor@DV?$stream_output_adapter@D@__crt_stdio_output@@V?$format_validation_base@DV?$stream_output_adapter@D@__crt_stdio_output@@@2@@0@AAE_NXZ@AAPAD@Z 10066649 f i libucrt:output.obj
 0001:00065660       ??$read_va_arg@PAUansi_string@?1??type_case_Z@?$output_processor@DV?$stream_output_adapter@D@__crt_stdio_output@@V?$positional_parameter_base@DV?$stream_output_adapter@D@__crt_stdio_output@@@2@@__crt_stdio_output@@AAE_NXZ@@__crt_stdio_output@@YAPAUansi_string@?1??type_case_Z@?$output_processor@DV?$stream_output_adapter@D@__crt_stdio_output@@V?$positional_parameter_base@DV?$stream_output_adapter@D@__crt_stdio_output@@@2@@0@AAE_NXZ@AAPAD@Z 10066660 f i libucrt:output.obj
 0001:00065677       ??$read_va_arg@PAUansi_string@?1??type_case_Z@?$output_processor@DV?$stream_output_adapter@D@__crt_stdio_output@@V?$standard_base@DV?$stream_output_adapter@D@__crt_stdio_output@@@2@@__crt_stdio_output@@AAE_NXZ@@__crt_stdio_output@@YAPAUansi_string@?1??type_case_Z@?$output_processor@DV?$stream_output_adapter@D@__crt_stdio_output@@V?$standard_base@DV?$stream_output_adapter@D@__crt_stdio_output@@@2@@0@AAE_NXZ@AAPAD@Z 10066677 f i libucrt:output.obj
 0001:0006568e       ??$read_va_arg@PAUansi_string@?1??type_case_Z@?$output_processor@DV?$string_output_adapter@D@__crt_stdio_output@@V?$format_validation_base@DV?$string_output_adapter@D@__crt_stdio_output@@@2@@__crt_stdio_output@@AAE_NXZ@@__crt_stdio_output@@YAPAUansi_string@?1??type_case_Z@?$output_processor@DV?$string_output_adapter@D@__crt_stdio_output@@V?$format_validation_base@DV?$string_output_adapter@D@__crt_stdio_output@@@2@@0@AAE_NXZ@AAPAD@Z 1006668e f i libucrt:output.obj
 0001:000656a5       ??$read_va_arg@PAUansi_string@?1??type_case_Z@?$output_processor@DV?$string_output_adapter@D@__crt_stdio_output@@V?$positional_parameter_base@DV?$string_output_adapter@D@__crt_stdio_output@@@2@@__crt_stdio_output@@AAE_NXZ@@__crt_stdio_output@@YAPAUansi_string@?1??type_case_Z@?$output_processor@DV?$string_output_adapter@D@__crt_stdio_output@@V?$positional_parameter_base@DV?$string_output_adapter@D@__crt_stdio_output@@@2@@0@AAE_NXZ@AAPAD@Z 100666a5 f i libucrt:output.obj
 0001:000656bc       ??$read_va_arg@PAUansi_string@?1??type_case_Z@?$output_processor@DV?$string_output_adapter@D@__crt_stdio_output@@V?$standard_base@DV?$string_output_adapter@D@__crt_stdio_output@@@2@@__crt_stdio_output@@AAE_NXZ@@__crt_stdio_output@@YAPAUansi_string@?1??type_case_Z@?$output_processor@DV?$string_output_adapter@D@__crt_stdio_output@@V?$standard_base@DV?$string_output_adapter@D@__crt_stdio_output@@@2@@0@AAE_NXZ@AAPAD@Z 100666bc f i libucrt:output.obj
 0001:000656d3       ??$read_va_arg@PAUansi_string@?1??type_case_Z@?$output_processor@_WV?$stream_output_adapter@_W@__crt_stdio_output@@V?$format_validation_base@_WV?$stream_output_adapter@_W@__crt_stdio_output@@@2@@__crt_stdio_output@@AAE_NXZ@@__crt_stdio_output@@YAPAUansi_string@?1??type_case_Z@?$output_processor@_WV?$stream_output_adapter@_W@__crt_stdio_output@@V?$format_validation_base@_WV?$stream_output_adapter@_W@__crt_stdio_output@@@2@@0@AAE_NXZ@AAPAD@Z 100666d3 f i libucrt:output.obj
 0001:000656ea       ??$read_va_arg@PAUansi_string@?1??type_case_Z@?$output_processor@_WV?$stream_output_adapter@_W@__crt_stdio_output@@V?$positional_parameter_base@_WV?$stream_output_adapter@_W@__crt_stdio_output@@@2@@__crt_stdio_output@@AAE_NXZ@@__crt_stdio_output@@YAPAUansi_string@?1??type_case_Z@?$output_processor@_WV?$stream_output_adapter@_W@__crt_stdio_output@@V?$positional_parameter_base@_WV?$stream_output_adapter@_W@__crt_stdio_output@@@2@@0@AAE_NXZ@AAPAD@Z 100666ea f i libucrt:output.obj
 0001:00065701       ??$read_va_arg@PAUansi_string@?1??type_case_Z@?$output_processor@_WV?$stream_output_adapter@_W@__crt_stdio_output@@V?$standard_base@_WV?$stream_output_adapter@_W@__crt_stdio_output@@@2@@__crt_stdio_output@@AAE_NXZ@@__crt_stdio_output@@YAPAUansi_string@?1??type_case_Z@?$output_processor@_WV?$stream_output_adapter@_W@__crt_stdio_output@@V?$standard_base@_WV?$stream_output_adapter@_W@__crt_stdio_output@@@2@@0@AAE_NXZ@AAPAD@Z 10066701 f i libucrt:output.obj
 0001:00065718       ??$read_va_arg@PAUansi_string@?1??type_case_Z@?$output_processor@_WV?$string_output_adapter@_W@__crt_stdio_output@@V?$format_validation_base@_WV?$string_output_adapter@_W@__crt_stdio_output@@@2@@__crt_stdio_output@@AAE_NXZ@@__crt_stdio_output@@YAPAUansi_string@?1??type_case_Z@?$output_processor@_WV?$string_output_adapter@_W@__crt_stdio_output@@V?$format_validation_base@_WV?$string_output_adapter@_W@__crt_stdio_output@@@2@@0@AAE_NXZ@AAPAD@Z 10066718 f i libucrt:output.obj
 0001:0006572f       ??$read_va_arg@PAUansi_string@?1??type_case_Z@?$output_processor@_WV?$string_output_adapter@_W@__crt_stdio_output@@V?$positional_parameter_base@_WV?$string_output_adapter@_W@__crt_stdio_output@@@2@@__crt_stdio_output@@AAE_NXZ@@__crt_stdio_output@@YAPAUansi_string@?1??type_case_Z@?$output_processor@_WV?$string_output_adapter@_W@__crt_stdio_output@@V?$positional_parameter_base@_WV?$string_output_adapter@_W@__crt_stdio_output@@@2@@0@AAE_NXZ@AAPAD@Z 1006672f f i libucrt:output.obj
 0001:00065746       ??$read_va_arg@PAUansi_string@?1??type_case_Z@?$output_processor@_WV?$string_output_adapter@_W@__crt_stdio_output@@V?$standard_base@_WV?$string_output_adapter@_W@__crt_stdio_output@@@2@@__crt_stdio_output@@AAE_NXZ@@__crt_stdio_output@@YAPAUansi_string@?1??type_case_Z@?$output_processor@_WV?$string_output_adapter@_W@__crt_stdio_output@@V?$standard_base@_WV?$string_output_adapter@_W@__crt_stdio_output@@@2@@0@AAE_NXZ@AAPAD@Z 10066746 f i libucrt:output.obj
 0001:0006575d       ??$read_va_arg@PAX@__crt_stdio_output@@YAPAXAAPAD@Z 1006675d f i libucrt:output.obj
 0001:00065774       ??$read_va_arg@U_CRT_DOUBLE@@@__crt_stdio_output@@YA?AU_CRT_DOUBLE@@AAPAD@Z 10066774 f i libucrt:output.obj
 0001:0006578f       ??$read_va_arg@_J@__crt_stdio_output@@YA_JAAPAD@Z 1006678f f i libucrt:output.obj
 0001:000657aa       ??$read_va_arg@_K@__crt_stdio_output@@YA_KAAPAD@Z 100667aa f i libucrt:output.obj
 0001:000657c5       ??$read_va_arg@_W@__crt_stdio_output@@YA_WAAPAD@Z 100667c5 f i libucrt:output.obj
 0001:000657de       ??$scratch_count@D@formatting_buffer@__crt_stdio_output@@QBEIXZ 100667de f i libucrt:output.obj
 0001:000657e3       ??$scratch_data@D@formatting_buffer@__crt_stdio_output@@QAEPADXZ 100667e3 f i libucrt:output.obj
 0001:00065808       ??$type_case_integer@$07@?$output_processor@DV?$stream_output_adapter@D@__crt_stdio_output@@V?$format_validation_base@DV?$stream_output_adapter@D@__crt_stdio_output@@@2@@__crt_stdio_output@@AAE_N_N@Z 10066808 f i libucrt:output.obj
 0001:000659f8       ??$type_case_integer@$07@?$output_processor@DV?$stream_output_adapter@D@__crt_stdio_output@@V?$positional_parameter_base@DV?$stream_output_adapter@D@__crt_stdio_output@@@2@@__crt_stdio_output@@AAE_N_N@Z 100669f8 f i libucrt:output.obj
 0001:00065bfb       ??$type_case_integer@$07@?$output_processor@DV?$stream_output_adapter@D@__crt_stdio_output@@V?$standard_base@DV?$stream_output_adapter@D@__crt_stdio_output@@@2@@__crt_stdio_output@@AAE_N_N@Z 10066bfb f i libucrt:output.obj
 0001:00065deb       ??$type_case_integer@$07@?$output_processor@DV?$string_output_adapter@D@__crt_stdio_output@@V?$format_validation_base@DV?$string_output_adapter@D@__crt_stdio_output@@@2@@__crt_stdio_output@@AAE_N_N@Z 10066deb f i libucrt:output.obj
 0001:00065fdb       ??$type_case_integer@$07@?$output_processor@DV?$string_output_adapter@D@__crt_stdio_output@@V?$positional_parameter_base@DV?$string_output_adapter@D@__crt_stdio_output@@@2@@__crt_stdio_output@@AAE_N_N@Z 10066fdb f i libucrt:output.obj
 0001:000661de       ??$type_case_integer@$07@?$output_processor@DV?$string_output_adapter@D@__crt_stdio_output@@V?$standard_base@DV?$string_output_adapter@D@__crt_stdio_output@@@2@@__crt_stdio_output@@AAE_N_N@Z 100671de f i libucrt:output.obj
 0001:000663ce       ??$type_case_integer@$07@?$output_processor@_WV?$stream_output_adapter@_W@__crt_stdio_output@@V?$format_validation_base@_WV?$stream_output_adapter@_W@__crt_stdio_output@@@2@@__crt_stdio_output@@AAE_N_N@Z 100673ce f i libucrt:output.obj
 0001:000665c4       ??$type_case_integer@$07@?$output_processor@_WV?$stream_output_adapter@_W@__crt_stdio_output@@V?$positional_parameter_base@_WV?$stream_output_adapter@_W@__crt_stdio_output@@@2@@__crt_stdio_output@@AAE_N_N@Z 100675c4 f i libucrt:output.obj
 0001:000667cc       ??$type_case_integer@$07@?$output_processor@_WV?$stream_output_adapter@_W@__crt_stdio_output@@V?$standard_base@_WV?$stream_output_adapter@_W@__crt_stdio_output@@@2@@__crt_stdio_output@@AAE_N_N@Z 100677cc f i libucrt:output.obj
 0001:000669c2       ??$type_case_integer@$07@?$output_processor@_WV?$string_output_adapter@_W@__crt_stdio_output@@V?$format_validation_base@_WV?$string_output_adapter@_W@__crt_stdio_output@@@2@@__crt_stdio_output@@AAE_N_N@Z 100679c2 f i libucrt:output.obj
 0001:00066bb8       ??$type_case_integer@$07@?$output_processor@_WV?$string_output_adapter@_W@__crt_stdio_output@@V?$positional_parameter_base@_WV?$string_output_adapter@_W@__crt_stdio_output@@@2@@__crt_stdio_output@@AAE_N_N@Z 10067bb8 f i libucrt:output.obj
 0001:00066dc0       ??$type_case_integer@$07@?$output_processor@_WV?$string_output_adapter@_W@__crt_stdio_output@@V?$standard_base@_WV?$string_output_adapter@_W@__crt_stdio_output@@@2@@__crt_stdio_output@@AAE_N_N@Z 10067dc0 f i libucrt:output.obj
 0001:00066fb6       ??$type_case_integer@$09@?$output_processor@DV?$stream_output_adapter@D@__crt_stdio_output@@V?$format_validation_base@DV?$stream_output_adapter@D@__crt_stdio_output@@@2@@__crt_stdio_output@@AAE_N_N@Z 10067fb6 f i libucrt:output.obj
 0001:000671a6       ??$type_case_integer@$09@?$output_processor@DV?$stream_output_adapter@D@__crt_stdio_output@@V?$positional_parameter_base@DV?$stream_output_adapter@D@__crt_stdio_output@@@2@@__crt_stdio_output@@AAE_N_N@Z 100681a6 f i libucrt:output.obj
 0001:000673a9       ??$type_case_integer@$09@?$output_processor@DV?$stream_output_adapter@D@__crt_stdio_output@@V?$standard_base@DV?$stream_output_adapter@D@__crt_stdio_output@@@2@@__crt_stdio_output@@AAE_N_N@Z 100683a9 f i libucrt:output.obj
 0001:00067599       ??$type_case_integer@$09@?$output_processor@DV?$string_output_adapter@D@__crt_stdio_output@@V?$format_validation_base@DV?$string_output_adapter@D@__crt_stdio_output@@@2@@__crt_stdio_output@@AAE_N_N@Z 10068599 f i libucrt:output.obj
 0001:00067789       ??$type_case_integer@$09@?$output_processor@DV?$string_output_adapter@D@__crt_stdio_output@@V?$positional_parameter_base@DV?$string_output_adapter@D@__crt_stdio_output@@@2@@__crt_stdio_output@@AAE_N_N@Z 10068789 f i libucrt:output.obj
 0001:0006798c       ??$type_case_integer@$09@?$output_processor@DV?$string_output_adapter@D@__crt_stdio_output@@V?$standard_base@DV?$string_output_adapter@D@__crt_stdio_output@@@2@@__crt_stdio_output@@AAE_N_N@Z 1006898c f i libucrt:output.obj
 0001:00067b7c       ??$type_case_integer@$09@?$output_processor@_WV?$stream_output_adapter@_W@__crt_stdio_output@@V?$format_validation_base@_WV?$stream_output_adapter@_W@__crt_stdio_output@@@2@@__crt_stdio_output@@AAE_N_N@Z 10068b7c f i libucrt:output.obj
 0001:00067d72       ??$type_case_integer@$09@?$output_processor@_WV?$stream_output_adapter@_W@__crt_stdio_output@@V?$positional_parameter_base@_WV?$stream_output_adapter@_W@__crt_stdio_output@@@2@@__crt_stdio_output@@AAE_N_N@Z 10068d72 f i libucrt:output.obj
 0001:00067f7a       ??$type_case_integer@$09@?$output_processor@_WV?$stream_output_adapter@_W@__crt_stdio_output@@V?$standard_base@_WV?$stream_output_adapter@_W@__crt_stdio_output@@@2@@__crt_stdio_output@@AAE_N_N@Z 10068f7a f i libucrt:output.obj
 0001:00068170       ??$type_case_integer@$09@?$output_processor@_WV?$string_output_adapter@_W@__crt_stdio_output@@V?$format_validation_base@_WV?$string_output_adapter@_W@__crt_stdio_output@@@2@@__crt_stdio_output@@AAE_N_N@Z 10069170 f i libucrt:output.obj
 0001:00068366       ??$type_case_integer@$09@?$output_processor@_WV?$string_output_adapter@_W@__crt_stdio_output@@V?$positional_parameter_base@_WV?$string_output_adapter@_W@__crt_stdio_output@@@2@@__crt_stdio_output@@AAE_N_N@Z 10069366 f i libucrt:output.obj
 0001:0006856e       ??$type_case_integer@$09@?$output_processor@_WV?$string_output_adapter@_W@__crt_stdio_output@@V?$standard_base@_WV?$string_output_adapter@_W@__crt_stdio_output@@@2@@__crt_stdio_output@@AAE_N_N@Z 1006956e f i libucrt:output.obj
 0001:00068764       ??$type_case_integer@$0BA@@?$output_processor@DV?$stream_output_adapter@D@__crt_stdio_output@@V?$format_validation_base@DV?$stream_output_adapter@D@__crt_stdio_output@@@2@@__crt_stdio_output@@AAE_N_N@Z 10069764 f i libucrt:output.obj
 0001:00068954       ??$type_case_integer@$0BA@@?$output_processor@DV?$stream_output_adapter@D@__crt_stdio_output@@V?$positional_parameter_base@DV?$stream_output_adapter@D@__crt_stdio_output@@@2@@__crt_stdio_output@@AAE_N_N@Z 10069954 f i libucrt:output.obj
 0001:00068b57       ??$type_case_integer@$0BA@@?$output_processor@DV?$stream_output_adapter@D@__crt_stdio_output@@V?$standard_base@DV?$stream_output_adapter@D@__crt_stdio_output@@@2@@__crt_stdio_output@@AAE_N_N@Z 10069b57 f i libucrt:output.obj
 0001:00068d47       ??$type_case_integer@$0BA@@?$output_processor@DV?$string_output_adapter@D@__crt_stdio_output@@V?$format_validation_base@DV?$string_output_adapter@D@__crt_stdio_output@@@2@@__crt_stdio_output@@AAE_N_N@Z 10069d47 f i libucrt:output.obj
 0001:00068f37       ??$type_case_integer@$0BA@@?$output_processor@DV?$string_output_adapter@D@__crt_stdio_output@@V?$positional_parameter_base@DV?$string_output_adapter@D@__crt_stdio_output@@@2@@__crt_stdio_output@@AAE_N_N@Z 10069f37 f i libucrt:output.obj
 0001:0006913a       ??$type_case_integer@$0BA@@?$output_processor@DV?$string_output_adapter@D@__crt_stdio_output@@V?$standard_base@DV?$string_output_adapter@D@__crt_stdio_output@@@2@@__crt_stdio_output@@AAE_N_N@Z 1006a13a f i libucrt:output.obj
 0001:0006932a       ??$type_case_integer@$0BA@@?$output_processor@_WV?$stream_output_adapter@_W@__crt_stdio_output@@V?$format_validation_base@_WV?$stream_output_adapter@_W@__crt_stdio_output@@@2@@__crt_stdio_output@@AAE_N_N@Z 1006a32a f i libucrt:output.obj
 0001:00069520       ??$type_case_integer@$0BA@@?$output_processor@_WV?$stream_output_adapter@_W@__crt_stdio_output@@V?$positional_parameter_base@_WV?$stream_output_adapter@_W@__crt_stdio_output@@@2@@__crt_stdio_output@@AAE_N_N@Z 1006a520 f i libucrt:output.obj
 0001:00069728       ??$type_case_integer@$0BA@@?$output_processor@_WV?$stream_output_adapter@_W@__crt_stdio_output@@V?$standard_base@_WV?$stream_output_adapter@_W@__crt_stdio_output@@@2@@__crt_stdio_output@@AAE_N_N@Z 1006a728 f i libucrt:output.obj
 0001:0006991e       ??$type_case_integer@$0BA@@?$output_processor@_WV?$string_output_adapter@_W@__crt_stdio_output@@V?$format_validation_base@_WV?$string_output_adapter@_W@__crt_stdio_output@@@2@@__crt_stdio_output@@AAE_N_N@Z 1006a91e f i libucrt:output.obj
 0001:00069b14       ??$type_case_integer@$0BA@@?$output_processor@_WV?$string_output_adapter@_W@__crt_stdio_output@@V?$positional_parameter_base@_WV?$string_output_adapter@_W@__crt_stdio_output@@@2@@__crt_stdio_output@@AAE_N_N@Z 1006ab14 f i libucrt:output.obj
 0001:00069d1c       ??$type_case_integer@$0BA@@?$output_processor@_WV?$string_output_adapter@_W@__crt_stdio_output@@V?$standard_base@_WV?$string_output_adapter@_W@__crt_stdio_output@@@2@@__crt_stdio_output@@AAE_N_N@Z 1006ad1c f i libucrt:output.obj
 0001:00069f12       ??$type_case_integer_parse_into_buffer@I$07@?$output_processor@DV?$stream_output_adapter@D@__crt_stdio_output@@V?$format_validation_base@DV?$stream_output_adapter@D@__crt_stdio_output@@@2@@__crt_stdio_output@@AAEXI_N@Z 1006af12 f i libucrt:output.obj
 0001:00069f8d       ??$type_case_integer_parse_into_buffer@I$07@?$output_processor@DV?$stream_output_adapter@D@__crt_stdio_output@@V?$positional_parameter_base@DV?$stream_output_adapter@D@__crt_stdio_output@@@2@@__crt_stdio_output@@AAEXI_N@Z 1006af8d f i libucrt:output.obj
 0001:0006a008       ??$type_case_integer_parse_into_buffer@I$07@?$output_processor@DV?$stream_output_adapter@D@__crt_stdio_output@@V?$standard_base@DV?$stream_output_adapter@D@__crt_stdio_output@@@2@@__crt_stdio_output@@AAEXI_N@Z 1006b008 f i libucrt:output.obj
 0001:0006a083       ??$type_case_integer_parse_into_buffer@I$07@?$output_processor@DV?$string_output_adapter@D@__crt_stdio_output@@V?$format_validation_base@DV?$string_output_adapter@D@__crt_stdio_output@@@2@@__crt_stdio_output@@AAEXI_N@Z 1006b083 f i libucrt:output.obj
 0001:0006a0fe       ??$type_case_integer_parse_into_buffer@I$07@?$output_processor@DV?$string_output_adapter@D@__crt_stdio_output@@V?$positional_parameter_base@DV?$string_output_adapter@D@__crt_stdio_output@@@2@@__crt_stdio_output@@AAEXI_N@Z 1006b0fe f i libucrt:output.obj
 0001:0006a179       ??$type_case_integer_parse_into_buffer@I$07@?$output_processor@DV?$string_output_adapter@D@__crt_stdio_output@@V?$standard_base@DV?$string_output_adapter@D@__crt_stdio_output@@@2@@__crt_stdio_output@@AAEXI_N@Z 1006b179 f i libucrt:output.obj
 0001:0006a1f4       ??$type_case_integer_parse_into_buffer@I$07@?$output_processor@_WV?$stream_output_adapter@_W@__crt_stdio_output@@V?$format_validation_base@_WV?$stream_output_adapter@_W@__crt_stdio_output@@@2@@__crt_stdio_output@@AAEXI_N@Z 1006b1f4 f i libucrt:output.obj
 0001:0006a283       ??$type_case_integer_parse_into_buffer@I$07@?$output_processor@_WV?$stream_output_adapter@_W@__crt_stdio_output@@V?$positional_parameter_base@_WV?$stream_output_adapter@_W@__crt_stdio_output@@@2@@__crt_stdio_output@@AAEXI_N@Z 1006b283 f i libucrt:output.obj
 0001:0006a312       ??$type_case_integer_parse_into_buffer@I$07@?$output_processor@_WV?$stream_output_adapter@_W@__crt_stdio_output@@V?$standard_base@_WV?$stream_output_adapter@_W@__crt_stdio_output@@@2@@__crt_stdio_output@@AAEXI_N@Z 1006b312 f i libucrt:output.obj
 0001:0006a3a1       ??$type_case_integer_parse_into_buffer@I$07@?$output_processor@_WV?$string_output_adapter@_W@__crt_stdio_output@@V?$format_validation_base@_WV?$string_output_adapter@_W@__crt_stdio_output@@@2@@__crt_stdio_output@@AAEXI_N@Z 1006b3a1 f i libucrt:output.obj
 0001:0006a430       ??$type_case_integer_parse_into_buffer@I$07@?$output_processor@_WV?$string_output_adapter@_W@__crt_stdio_output@@V?$positional_parameter_base@_WV?$string_output_adapter@_W@__crt_stdio_output@@@2@@__crt_stdio_output@@AAEXI_N@Z 1006b430 f i libucrt:output.obj
 0001:0006a4bf       ??$type_case_integer_parse_into_buffer@I$07@?$output_processor@_WV?$string_output_adapter@_W@__crt_stdio_output@@V?$standard_base@_WV?$string_output_adapter@_W@__crt_stdio_output@@@2@@__crt_stdio_output@@AAEXI_N@Z 1006b4bf f i libucrt:output.obj
 0001:0006a54e       ??$type_case_integer_parse_into_buffer@I$09@?$output_processor@DV?$stream_output_adapter@D@__crt_stdio_output@@V?$format_validation_base@DV?$stream_output_adapter@D@__crt_stdio_output@@@2@@__crt_stdio_output@@AAEXI_N@Z 1006b54e f i libucrt:output.obj
 0001:0006a5f6       ??$type_case_integer_parse_into_buffer@I$09@?$output_processor@DV?$stream_output_adapter@D@__crt_stdio_output@@V?$positional_parameter_base@DV?$stream_output_adapter@D@__crt_stdio_output@@@2@@__crt_stdio_output@@AAEXI_N@Z 1006b5f6 f i libucrt:output.obj
 0001:0006a69e       ??$type_case_integer_parse_into_buffer@I$09@?$output_processor@DV?$stream_output_adapter@D@__crt_stdio_output@@V?$standard_base@DV?$stream_output_adapter@D@__crt_stdio_output@@@2@@__crt_stdio_output@@AAEXI_N@Z 1006b69e f i libucrt:output.obj
 0001:0006a746       ??$type_case_integer_parse_into_buffer@I$09@?$output_processor@DV?$string_output_adapter@D@__crt_stdio_output@@V?$format_validation_base@DV?$string_output_adapter@D@__crt_stdio_output@@@2@@__crt_stdio_output@@AAEXI_N@Z 1006b746 f i libucrt:output.obj
 0001:0006a7ee       ??$type_case_integer_parse_into_buffer@I$09@?$output_processor@DV?$string_output_adapter@D@__crt_stdio_output@@V?$positional_parameter_base@DV?$string_output_adapter@D@__crt_stdio_output@@@2@@__crt_stdio_output@@AAEXI_N@Z 1006b7ee f i libucrt:output.obj
 0001:0006a896       ??$type_case_integer_parse_into_buffer@I$09@?$output_processor@DV?$string_output_adapter@D@__crt_stdio_output@@V?$standard_base@DV?$string_output_adapter@D@__crt_stdio_output@@@2@@__crt_stdio_output@@AAEXI_N@Z 1006b896 f i libucrt:output.obj
 0001:0006a93e       ??$type_case_integer_parse_into_buffer@I$09@?$output_processor@_WV?$stream_output_adapter@_W@__crt_stdio_output@@V?$format_validation_base@_WV?$stream_output_adapter@_W@__crt_stdio_output@@@2@@__crt_stdio_output@@AAEXI_N@Z 1006b93e f i libucrt:output.obj
 0001:0006aa01       ??$type_case_integer_parse_into_buffer@I$09@?$output_processor@_WV?$stream_output_adapter@_W@__crt_stdio_output@@V?$positional_parameter_base@_WV?$stream_output_adapter@_W@__crt_stdio_output@@@2@@__crt_stdio_output@@AAEXI_N@Z 1006ba01 f i libucrt:output.obj
 0001:0006aac4       ??$type_case_integer_parse_into_buffer@I$09@?$output_processor@_WV?$stream_output_adapter@_W@__crt_stdio_output@@V?$standard_base@_WV?$stream_output_adapter@_W@__crt_stdio_output@@@2@@__crt_stdio_output@@AAEXI_N@Z 1006bac4 f i libucrt:output.obj
 0001:0006ab87       ??$type_case_integer_parse_into_buffer@I$09@?$output_processor@_WV?$string_output_adapter@_W@__crt_stdio_output@@V?$format_validation_base@_WV?$string_output_adapter@_W@__crt_stdio_output@@@2@@__crt_stdio_output@@AAEXI_N@Z 1006bb87 f i libucrt:output.obj
 0001:0006ac4a       ??$type_case_integer_parse_into_buffer@I$09@?$output_processor@_WV?$string_output_adapter@_W@__crt_stdio_output@@V?$positional_parameter_base@_WV?$string_output_adapter@_W@__crt_stdio_output@@@2@@__crt_stdio_output@@AAEXI_N@Z 1006bc4a f i libucrt:output.obj
 0001:0006ad0d       ??$type_case_integer_parse_into_buffer@I$09@?$output_processor@_WV?$string_output_adapter@_W@__crt_stdio_output@@V?$standard_base@_WV?$string_output_adapter@_W@__crt_stdio_output@@@2@@__crt_stdio_output@@AAEXI_N@Z 1006bd0d f i libucrt:output.obj
 0001:0006add0       ??$type_case_integer_parse_into_buffer@I$0BA@@?$output_processor@DV?$stream_output_adapter@D@__crt_stdio_output@@V?$format_validation_base@DV?$stream_output_adapter@D@__crt_stdio_output@@@2@@__crt_stdio_output@@AAEXI_N@Z 1006bdd0 f i libucrt:output.obj
 0001:0006ae6c       ??$type_case_integer_parse_into_buffer@I$0BA@@?$output_processor@DV?$stream_output_adapter@D@__crt_stdio_output@@V?$positional_parameter_base@DV?$stream_output_adapter@D@__crt_stdio_output@@@2@@__crt_stdio_output@@AAEXI_N@Z 1006be6c f i libucrt:output.obj
 0001:0006af08       ??$type_case_integer_parse_into_buffer@I$0BA@@?$output_processor@DV?$stream_output_adapter@D@__crt_stdio_output@@V?$standard_base@DV?$stream_output_adapter@D@__crt_stdio_output@@@2@@__crt_stdio_output@@AAEXI_N@Z 1006bf08 f i libucrt:output.obj
 0001:0006afa4       ??$type_case_integer_parse_into_buffer@I$0BA@@?$output_processor@DV?$string_output_adapter@D@__crt_stdio_output@@V?$format_validation_base@DV?$string_output_adapter@D@__crt_stdio_output@@@2@@__crt_stdio_output@@AAEXI_N@Z 1006bfa4 f i libucrt:output.obj
 0001:0006b040       ??$type_case_integer_parse_into_buffer@I$0BA@@?$output_processor@DV?$string_output_adapter@D@__crt_stdio_output@@V?$positional_parameter_base@DV?$string_output_adapter@D@__crt_stdio_output@@@2@@__crt_stdio_output@@AAEXI_N@Z 1006c040 f i libucrt:output.obj
 0001:0006b0dc       ??$type_case_integer_parse_into_buffer@I$0BA@@?$output_processor@DV?$string_output_adapter@D@__crt_stdio_output@@V?$standard_base@DV?$string_output_adapter@D@__crt_stdio_output@@@2@@__crt_stdio_output@@AAEXI_N@Z 1006c0dc f i libucrt:output.obj
 0001:0006b178       ??$type_case_integer_parse_into_buffer@I$0BA@@?$output_processor@_WV?$stream_output_adapter@_W@__crt_stdio_output@@V?$format_validation_base@_WV?$stream_output_adapter@_W@__crt_stdio_output@@@2@@__crt_stdio_output@@AAEXI_N@Z 1006c178 f i libucrt:output.obj
 0001:0006b224       ??$type_case_integer_parse_into_buffer@I$0BA@@?$output_processor@_WV?$stream_output_adapter@_W@__crt_stdio_output@@V?$positional_parameter_base@_WV?$stream_output_adapter@_W@__crt_stdio_output@@@2@@__crt_stdio_output@@AAEXI_N@Z 1006c224 f i libucrt:output.obj
 0001:0006b2d0       ??$type_case_integer_parse_into_buffer@I$0BA@@?$output_processor@_WV?$stream_output_adapter@_W@__crt_stdio_output@@V?$standard_base@_WV?$stream_output_adapter@_W@__crt_stdio_output@@@2@@__crt_stdio_output@@AAEXI_N@Z 1006c2d0 f i libucrt:output.obj
 0001:0006b37c       ??$type_case_integer_parse_into_buffer@I$0BA@@?$output_processor@_WV?$string_output_adapter@_W@__crt_stdio_output@@V?$format_validation_base@_WV?$string_output_adapter@_W@__crt_stdio_output@@@2@@__crt_stdio_output@@AAEXI_N@Z 1006c37c f i libucrt:output.obj
 0001:0006b428       ??$type_case_integer_parse_into_buffer@I$0BA@@?$output_processor@_WV?$string_output_adapter@_W@__crt_stdio_output@@V?$positional_parameter_base@_WV?$string_output_adapter@_W@__crt_stdio_output@@@2@@__crt_stdio_output@@AAEXI_N@Z 1006c428 f i libucrt:output.obj
 0001:0006b4d4       ??$type_case_integer_parse_into_buffer@I$0BA@@?$output_processor@_WV?$string_output_adapter@_W@__crt_stdio_output@@V?$standard_base@_WV?$string_output_adapter@_W@__crt_stdio_output@@@2@@__crt_stdio_output@@AAEXI_N@Z 1006c4d4 f i libucrt:output.obj
 0001:0006b580       ??$type_case_integer_parse_into_buffer@_K$07@?$output_processor@DV?$stream_output_adapter@D@__crt_stdio_output@@V?$format_validation_base@DV?$stream_output_adapter@D@__crt_stdio_output@@@2@@__crt_stdio_output@@AAEX_K_N@Z 1006c580 f i libucrt:output.obj
 0001:0006b616       ??$type_case_integer_parse_into_buffer@_K$07@?$output_processor@DV?$stream_output_adapter@D@__crt_stdio_output@@V?$positional_parameter_base@DV?$stream_output_adapter@D@__crt_stdio_output@@@2@@__crt_stdio_output@@AAEX_K_N@Z 1006c616 f i libucrt:output.obj
 0001:0006b6ac       ??$type_case_integer_parse_into_buffer@_K$07@?$output_processor@DV?$stream_output_adapter@D@__crt_stdio_output@@V?$standard_base@DV?$stream_output_adapter@D@__crt_stdio_output@@@2@@__crt_stdio_output@@AAEX_K_N@Z 1006c6ac f i libucrt:output.obj
 0001:0006b742       ??$type_case_integer_parse_into_buffer@_K$07@?$output_processor@DV?$string_output_adapter@D@__crt_stdio_output@@V?$format_validation_base@DV?$string_output_adapter@D@__crt_stdio_output@@@2@@__crt_stdio_output@@AAEX_K_N@Z 1006c742 f i libucrt:output.obj
 0001:0006b7d8       ??$type_case_integer_parse_into_buffer@_K$07@?$output_processor@DV?$string_output_adapter@D@__crt_stdio_output@@V?$positional_parameter_base@DV?$string_output_adapter@D@__crt_stdio_output@@@2@@__crt_stdio_output@@AAEX_K_N@Z 1006c7d8 f i libucrt:output.obj
 0001:0006b86e       ??$type_case_integer_parse_into_buffer@_K$07@?$output_processor@DV?$string_output_adapter@D@__crt_stdio_output@@V?$standard_base@DV?$string_output_adapter@D@__crt_stdio_output@@@2@@__crt_stdio_output@@AAEX_K_N@Z 1006c86e f i libucrt:output.obj
 0001:0006b904       ??$type_case_integer_parse_into_buffer@_K$07@?$output_processor@_WV?$stream_output_adapter@_W@__crt_stdio_output@@V?$format_validation_base@_WV?$stream_output_adapter@_W@__crt_stdio_output@@@2@@__crt_stdio_output@@AAEX_K_N@Z 1006c904 f i libucrt:output.obj
 0001:0006b9ac       ??$type_case_integer_parse_into_buffer@_K$07@?$output_processor@_WV?$stream_output_adapter@_W@__crt_stdio_output@@V?$positional_parameter_base@_WV?$stream_output_adapter@_W@__crt_stdio_output@@@2@@__crt_stdio_output@@AAEX_K_N@Z 1006c9ac f i libucrt:output.obj
 0001:0006ba54       ??$type_case_integer_parse_into_buffer@_K$07@?$output_processor@_WV?$stream_output_adapter@_W@__crt_stdio_output@@V?$standard_base@_WV?$stream_output_adapter@_W@__crt_stdio_output@@@2@@__crt_stdio_output@@AAEX_K_N@Z 1006ca54 f i libucrt:output.obj
 0001:0006bafc       ??$type_case_integer_parse_into_buffer@_K$07@?$output_processor@_WV?$string_output_adapter@_W@__crt_stdio_output@@V?$format_validation_base@_WV?$string_output_adapter@_W@__crt_stdio_output@@@2@@__crt_stdio_output@@AAEX_K_N@Z 1006cafc f i libucrt:output.obj
 0001:0006bba4       ??$type_case_integer_parse_into_buffer@_K$07@?$output_processor@_WV?$string_output_adapter@_W@__crt_stdio_output@@V?$positional_parameter_base@_WV?$string_output_adapter@_W@__crt_stdio_output@@@2@@__crt_stdio_output@@AAEX_K_N@Z 1006cba4 f i libucrt:output.obj
 0001:0006bc4c       ??$type_case_integer_parse_into_buffer@_K$07@?$output_processor@_WV?$string_output_adapter@_W@__crt_stdio_output@@V?$standard_base@_WV?$string_output_adapter@_W@__crt_stdio_output@@@2@@__crt_stdio_output@@AAEX_K_N@Z 1006cc4c f i libucrt:output.obj
 0001:0006bcf4       ??$type_case_integer_parse_into_buffer@_K$09@?$output_processor@DV?$stream_output_adapter@D@__crt_stdio_output@@V?$format_validation_base@DV?$stream_output_adapter@D@__crt_stdio_output@@@2@@__crt_stdio_output@@AAEX_K_N@Z 1006ccf4 f i libucrt:output.obj
 0001:0006bdc4       ??$type_case_integer_parse_into_buffer@_K$09@?$output_processor@DV?$stream_output_adapter@D@__crt_stdio_output@@V?$positional_parameter_base@DV?$stream_output_adapter@D@__crt_stdio_output@@@2@@__crt_stdio_output@@AAEX_K_N@Z 1006cdc4 f i libucrt:output.obj
 0001:0006be94       ??$type_case_integer_parse_into_buffer@_K$09@?$output_processor@DV?$stream_output_adapter@D@__crt_stdio_output@@V?$standard_base@DV?$stream_output_adapter@D@__crt_stdio_output@@@2@@__crt_stdio_output@@AAEX_K_N@Z 1006ce94 f i libucrt:output.obj
 0001:0006bf64       ??$type_case_integer_parse_into_buffer@_K$09@?$output_processor@DV?$string_output_adapter@D@__crt_stdio_output@@V?$format_validation_base@DV?$string_output_adapter@D@__crt_stdio_output@@@2@@__crt_stdio_output@@AAEX_K_N@Z 1006cf64 f i libucrt:output.obj
 0001:0006c034       ??$type_case_integer_parse_into_buffer@_K$09@?$output_processor@DV?$string_output_adapter@D@__crt_stdio_output@@V?$positional_parameter_base@DV?$string_output_adapter@D@__crt_stdio_output@@@2@@__crt_stdio_output@@AAEX_K_N@Z 1006d034 f i libucrt:output.obj
 0001:0006c104       ??$type_case_integer_parse_into_buffer@_K$09@?$output_processor@DV?$string_output_adapter@D@__crt_stdio_output@@V?$standard_base@DV?$string_output_adapter@D@__crt_stdio_output@@@2@@__crt_stdio_output@@AAEX_K_N@Z 1006d104 f i libucrt:output.obj
 0001:0006c1d4       ??$type_case_integer_parse_into_buffer@_K$09@?$output_processor@_WV?$stream_output_adapter@_W@__crt_stdio_output@@V?$format_validation_base@_WV?$stream_output_adapter@_W@__crt_stdio_output@@@2@@__crt_stdio_output@@AAEX_K_N@Z 1006d1d4 f i libucrt:output.obj
 0001:0006c2c0       ??$type_case_integer_parse_into_buffer@_K$09@?$output_processor@_WV?$stream_output_adapter@_W@__crt_stdio_output@@V?$positional_parameter_base@_WV?$stream_output_adapter@_W@__crt_stdio_output@@@2@@__crt_stdio_output@@AAEX_K_N@Z 1006d2c0 f i libucrt:output.obj
 0001:0006c3ac       ??$type_case_integer_parse_into_buffer@_K$09@?$output_processor@_WV?$stream_output_adapter@_W@__crt_stdio_output@@V?$standard_base@_WV?$stream_output_adapter@_W@__crt_stdio_output@@@2@@__crt_stdio_output@@AAEX_K_N@Z 1006d3ac f i libucrt:output.obj
 0001:0006c498       ??$type_case_integer_parse_into_buffer@_K$09@?$output_processor@_WV?$string_output_adapter@_W@__crt_stdio_output@@V?$format_validation_base@_WV?$string_output_adapter@_W@__crt_stdio_output@@@2@@__crt_stdio_output@@AAEX_K_N@Z 1006d498 f i libucrt:output.obj
 0001:0006c584       ??$type_case_integer_parse_into_buffer@_K$09@?$output_processor@_WV?$string_output_adapter@_W@__crt_stdio_output@@V?$positional_parameter_base@_WV?$string_output_adapter@_W@__crt_stdio_output@@@2@@__crt_stdio_output@@AAEX_K_N@Z 1006d584 f i libucrt:output.obj
 0001:0006c670       ??$type_case_integer_parse_into_buffer@_K$09@?$output_processor@_WV?$string_output_adapter@_W@__crt_stdio_output@@V?$standard_base@_WV?$string_output_adapter@_W@__crt_stdio_output@@@2@@__crt_stdio_output@@AAEX_K_N@Z 1006d670 f i libucrt:output.obj
 0001:0006c75c       ??$type_case_integer_parse_into_buffer@_K$0BA@@?$output_processor@DV?$stream_output_adapter@D@__crt_stdio_output@@V?$format_validation_base@DV?$stream_output_adapter@D@__crt_stdio_output@@@2@@__crt_stdio_output@@AAEX_K_N@Z 1006d75c f i libucrt:output.obj
 0001:0006c808       ??$type_case_integer_parse_into_buffer@_K$0BA@@?$output_processor@DV?$stream_output_adapter@D@__crt_stdio_output@@V?$positional_parameter_base@DV?$stream_output_adapter@D@__crt_stdio_output@@@2@@__crt_stdio_output@@AAEX_K_N@Z 1006d808 f i libucrt:output.obj
 0001:0006c8b4       ??$type_case_integer_parse_into_buffer@_K$0BA@@?$output_processor@DV?$stream_output_adapter@D@__crt_stdio_output@@V?$standard_base@DV?$stream_output_adapter@D@__crt_stdio_output@@@2@@__crt_stdio_output@@AAEX_K_N@Z 1006d8b4 f i libucrt:output.obj
 0001:0006c960       ??$type_case_integer_parse_into_buffer@_K$0BA@@?$output_processor@DV?$string_output_adapter@D@__crt_stdio_output@@V?$format_validation_base@DV?$string_output_adapter@D@__crt_stdio_output@@@2@@__crt_stdio_output@@AAEX_K_N@Z 1006d960 f i libucrt:output.obj
 0001:0006ca0c       ??$type_case_integer_parse_into_buffer@_K$0BA@@?$output_processor@DV?$string_output_adapter@D@__crt_stdio_output@@V?$positional_parameter_base@DV?$string_output_adapter@D@__crt_stdio_output@@@2@@__crt_stdio_output@@AAEX_K_N@Z 1006da0c f i libucrt:output.obj
 0001:0006cab8       ??$type_case_integer_parse_into_buffer@_K$0BA@@?$output_processor@DV?$string_output_adapter@D@__crt_stdio_output@@V?$standard_base@DV?$string_output_adapter@D@__crt_stdio_output@@@2@@__crt_stdio_output@@AAEX_K_N@Z 1006dab8 f i libucrt:output.obj
 0001:0006cb64       ??$type_case_integer_parse_into_buffer@_K$0BA@@?$output_processor@_WV?$stream_output_adapter@_W@__crt_stdio_output@@V?$format_validation_base@_WV?$stream_output_adapter@_W@__crt_stdio_output@@@2@@__crt_stdio_output@@AAEX_K_N@Z 1006db64 f i libucrt:output.obj
 0001:0006cc1f       ??$type_case_integer_parse_into_buffer@_K$0BA@@?$output_processor@_WV?$stream_output_adapter@_W@__crt_stdio_output@@V?$positional_parameter_base@_WV?$stream_output_adapter@_W@__crt_stdio_output@@@2@@__crt_stdio_output@@AAEX_K_N@Z 1006dc1f f i libucrt:output.obj
 0001:0006ccda       ??$type_case_integer_parse_into_buffer@_K$0BA@@?$output_processor@_WV?$stream_output_adapter@_W@__crt_stdio_output@@V?$standard_base@_WV?$stream_output_adapter@_W@__crt_stdio_output@@@2@@__crt_stdio_output@@AAEX_K_N@Z 1006dcda f i libucrt:output.obj
 0001:0006cd95       ??$type_case_integer_parse_into_buffer@_K$0BA@@?$output_processor@_WV?$string_output_adapter@_W@__crt_stdio_output@@V?$format_validation_base@_WV?$string_output_adapter@_W@__crt_stdio_output@@@2@@__crt_stdio_output@@AAEX_K_N@Z 1006dd95 f i libucrt:output.obj
 0001:0006ce50       ??$type_case_integer_parse_into_buffer@_K$0BA@@?$output_processor@_WV?$string_output_adapter@_W@__crt_stdio_output@@V?$positional_parameter_base@_WV?$string_output_adapter@_W@__crt_stdio_output@@@2@@__crt_stdio_output@@AAEX_K_N@Z 1006de50 f i libucrt:output.obj
 0001:0006cf0b       ??$type_case_integer_parse_into_buffer@_K$0BA@@?$output_processor@_WV?$string_output_adapter@_W@__crt_stdio_output@@V?$standard_base@_WV?$string_output_adapter@_W@__crt_stdio_output@@@2@@__crt_stdio_output@@AAEX_K_N@Z 1006df0b f i libucrt:output.obj
 0001:0006cfc6       ??$write_multiple_characters@V?$stream_output_adapter@D@__crt_stdio_output@@D@__crt_stdio_output@@YAXABV?$stream_output_adapter@D@0@DHQAHAAV__crt_cached_ptd_host@@@Z 1006dfc6 f i libucrt:output.obj
 0001:0006d000       ??$write_multiple_characters@V?$stream_output_adapter@_W@__crt_stdio_output@@D@__crt_stdio_output@@YAXABV?$stream_output_adapter@_W@0@DHQAHAAV__crt_cached_ptd_host@@@Z 1006e000 f i libucrt:output.obj
 0001:0006d041       ??$write_multiple_characters@V?$string_output_adapter@D@__crt_stdio_output@@D@__crt_stdio_output@@YAXABV?$string_output_adapter@D@0@DHQAHAAV__crt_cached_ptd_host@@@Z 1006e041 f i libucrt:output.obj
 0001:0006d0bc       ??$write_multiple_characters@V?$string_output_adapter@_W@__crt_stdio_output@@D@__crt_stdio_output@@YAXABV?$string_output_adapter@_W@0@DHQAHAAV__crt_cached_ptd_host@@@Z 1006e0bc f i libucrt:output.obj
 0001:0006d370       ??0?$c_string_character_source@D@__crt_strtox@@QAE@QBDQAPBD@Z 1006e370 f i libucrt:output.obj
 0001:0006d393       ??0?$c_string_character_source@_W@__crt_strtox@@QAE@QB_WQAPB_W@Z 1006e393 f i libucrt:output.obj
 0001:0006d3b6       ??0?$cached@H@__crt_cached_ptd_host@@QAE@XZ 1006e3b6 f i libucrt:output.obj
 0001:0006d3bd       ??0?$cached@K@__crt_cached_ptd_host@@QAE@XZ 1006e3bd f i libucrt:output.obj
 0001:0006d3c4       ??0?$common_data@D@__crt_stdio_output@@IAE@AAV__crt_cached_ptd_host@@@Z 1006e3c4 f i libucrt:output.obj
 0001:0006d41c       ??0?$common_data@_W@__crt_stdio_output@@IAE@AAV__crt_cached_ptd_host@@@Z 1006e41c f i libucrt:output.obj
 0001:0006d47b       ??0?$output_adapter_data@DV?$stream_output_adapter@D@__crt_stdio_output@@@__crt_stdio_output@@IAE@ABV?$stream_output_adapter@D@1@_KQBDAAV__crt_cached_ptd_host@@QAD@Z 1006e47b f i libucrt:output.obj
 0001:0006d4fb       ??0?$output_adapter_data@DV?$string_output_adapter@D@__crt_stdio_output@@@__crt_stdio_output@@IAE@ABV?$string_output_adapter@D@1@_KQBDAAV__crt_cached_ptd_host@@QAD@Z 1006e4fb f i libucrt:output.obj
 0001:0006d57b       ??0?$output_adapter_data@_WV?$stream_output_adapter@_W@__crt_stdio_output@@@__crt_stdio_output@@IAE@ABV?$stream_output_adapter@_W@1@_KQB_WAAV__crt_cached_ptd_host@@QAD@Z 1006e57b f i libucrt:output.obj
 0001:0006d602       ??0?$output_adapter_data@_WV?$string_output_adapter@_W@__crt_stdio_output@@@__crt_stdio_output@@IAE@ABV?$string_output_adapter@_W@1@_KQB_WAAV__crt_cached_ptd_host@@QAD@Z 1006e602 f i libucrt:output.obj
 0001:0006d689       ??0?$output_processor@DV?$stream_output_adapter@D@__crt_stdio_output@@V?$format_validation_base@DV?$stream_output_adapter@D@__crt_stdio_output@@@2@@__crt_stdio_output@@QAE@ABV?$stream_output_adapter@D@1@_KQBDAAV__crt_cached_ptd_host@@QAD@Z 1006e689 f i libucrt:output.obj
 0001:0006d6c1       ??0?$output_processor@DV?$stream_output_adapter@D@__crt_stdio_output@@V?$positional_parameter_base@DV?$stream_output_adapter@D@__crt_stdio_output@@@2@@__crt_stdio_output@@QAE@ABV?$stream_output_adapter@D@1@_KQBDAAV__crt_cached_ptd_host@@QAD@Z 1006e6c1 f i libucrt:output.obj
 0001:0006d6f0       ??0?$output_processor@DV?$stream_output_adapter@D@__crt_stdio_output@@V?$standard_base@DV?$stream_output_adapter@D@__crt_stdio_output@@@2@@__crt_stdio_output@@QAE@ABV?$stream_output_adapter@D@1@_KQBDAAV__crt_cached_ptd_host@@QAD@Z 1006e6f0 f i libucrt:output.obj
 0001:0006d728       ??0?$output_processor@DV?$string_output_adapter@D@__crt_stdio_output@@V?$format_validation_base@DV?$string_output_adapter@D@__crt_stdio_output@@@2@@__crt_stdio_output@@QAE@ABV?$string_output_adapter@D@1@_KQBDAAV__crt_cached_ptd_host@@QAD@Z 1006e728 f i libucrt:output.obj
 0001:0006d760       ??0?$output_processor@DV?$string_output_adapter@D@__crt_stdio_output@@V?$positional_parameter_base@DV?$string_output_adapter@D@__crt_stdio_output@@@2@@__crt_stdio_output@@QAE@ABV?$string_output_adapter@D@1@_KQBDAAV__crt_cached_ptd_host@@QAD@Z 1006e760 f i libucrt:output.obj
 0001:0006d78f       ??0?$output_processor@DV?$string_output_adapter@D@__crt_stdio_output@@V?$standard_base@DV?$string_output_adapter@D@__crt_stdio_output@@@2@@__crt_stdio_output@@QAE@ABV?$string_output_adapter@D@1@_KQBDAAV__crt_cached_ptd_host@@QAD@Z 1006e78f f i libucrt:output.obj
 0001:0006d7c7       ??0?$output_processor@_WV?$stream_output_adapter@_W@__crt_stdio_output@@V?$format_validation_base@_WV?$stream_output_adapter@_W@__crt_stdio_output@@@2@@__crt_stdio_output@@QAE@ABV?$stream_output_adapter@_W@1@_KQB_WAAV__crt_cached_ptd_host@@QAD@Z 1006e7c7 f i libucrt:output.obj
 0001:0006d7ff       ??0?$output_processor@_WV?$stream_output_adapter@_W@__crt_stdio_output@@V?$positional_parameter_base@_WV?$stream_output_adapter@_W@__crt_stdio_output@@@2@@__crt_stdio_output@@QAE@ABV?$stream_output_adapter@_W@1@_KQB_WAAV__crt_cached_ptd_host@@QAD@Z 1006e7ff f i libucrt:output.obj
 0001:0006d82e       ??0?$output_processor@_WV?$stream_output_adapter@_W@__crt_stdio_output@@V?$standard_base@_WV?$stream_output_adapter@_W@__crt_stdio_output@@@2@@__crt_stdio_output@@QAE@ABV?$stream_output_adapter@_W@1@_KQB_WAAV__crt_cached_ptd_host@@QAD@Z 1006e82e f i libucrt:output.obj
 0001:0006d866       ??0?$output_processor@_WV?$string_output_adapter@_W@__crt_stdio_output@@V?$format_validation_base@_WV?$string_output_adapter@_W@__crt_stdio_output@@@2@@__crt_stdio_output@@QAE@ABV?$string_output_adapter@_W@1@_KQB_WAAV__crt_cached_ptd_host@@QAD@Z 1006e866 f i libucrt:output.obj
 0001:0006d89e       ??0?$output_processor@_WV?$string_output_adapter@_W@__crt_stdio_output@@V?$positional_parameter_base@_WV?$string_output_adapter@_W@__crt_stdio_output@@@2@@__crt_stdio_output@@QAE@ABV?$string_output_adapter@_W@1@_KQB_WAAV__crt_cached_ptd_host@@QAD@Z 1006e89e f i libucrt:output.obj
 0001:0006d8cd       ??0?$output_processor@_WV?$string_output_adapter@_W@__crt_stdio_output@@V?$standard_base@_WV?$string_output_adapter@_W@__crt_stdio_output@@@2@@__crt_stdio_output@@QAE@ABV?$string_output_adapter@_W@1@_KQB_WAAV__crt_cached_ptd_host@@QAD@Z 1006e8cd f i libucrt:output.obj
 0001:0006d905       ??0?$stream_output_adapter@D@__crt_stdio_output@@QAE@QAU_iobuf@@@Z 1006e905 f i libucrt:output.obj
 0001:0006d919       ??0?$stream_output_adapter@_W@__crt_stdio_output@@QAE@QAU_iobuf@@@Z 1006e919 f i libucrt:output.obj
 0001:0006d92d       ??0?$string_output_adapter@D@__crt_stdio_output@@QAE@QAU?$string_output_adapter_context@D@1@@Z 1006e92d f i libucrt:output.obj
 0001:0006d941       ??0?$string_output_adapter@_W@__crt_stdio_output@@QAE@QAU?$string_output_adapter_context@_W@1@@Z 1006e941 f i libucrt:output.obj
 0001:0006d955       ??0__acrt_stdio_temporary_buffering_guard@@QAE@QAU_iobuf@@AAV__crt_cached_ptd_host@@@Z 1006e955 f i libucrt:output.obj
 0001:0006d990       ??0__crt_cached_ptd_host@@QAE@QAU__crt_locale_pointers@@@Z 1006e990 f i libucrt:output.obj
 0001:0006da04       ??0__crt_scoped_get_last_error_reset@@QAE@XZ 1006ea04 f i libucrt:output.obj
 0001:0006da19       ??0formatting_buffer@__crt_stdio_output@@QAE@XZ 1006ea19 f i libucrt:output.obj
 0001:0006da2e       ??0guard@?$cached@H@__crt_cached_ptd_host@@QAE@AAU12@@Z 1006ea2e f i libucrt:output.obj
 0001:0006da54       ??1?$c_string_character_source@D@__crt_strtox@@QAE@XZ 1006ea54 f i libucrt:output.obj
 0001:0006da63       ??1?$c_string_character_source@_W@__crt_strtox@@QAE@XZ 1006ea63 f i libucrt:output.obj
 0001:0006da72       ??1?$common_data@D@__crt_stdio_output@@QAE@XZ 1006ea72 f i libucrt:output.obj
 0001:0006da7c       ??1?$common_data@_W@__crt_stdio_output@@QAE@XZ 1006ea7c f i libucrt:output.obj
 0001:0006da86       ??1?$format_validation_base@DV?$stream_output_adapter@D@__crt_stdio_output@@@__crt_stdio_output@@QAE@XZ 1006ea86 f i libucrt:output.obj
 0001:0006da90       ??1?$format_validation_base@DV?$string_output_adapter@D@__crt_stdio_output@@@__crt_stdio_output@@QAE@XZ 1006ea90 f i libucrt:output.obj
 0001:0006da9a       ??1?$format_validation_base@_WV?$stream_output_adapter@_W@__crt_stdio_output@@@__crt_stdio_output@@QAE@XZ 1006ea9a f i libucrt:output.obj
 0001:0006daa4       ??1?$format_validation_base@_WV?$string_output_adapter@_W@__crt_stdio_output@@@__crt_stdio_output@@QAE@XZ 1006eaa4 f i libucrt:output.obj
 0001:0006daae       ??1?$output_adapter_data@DV?$stream_output_adapter@D@__crt_stdio_output@@@__crt_stdio_output@@QAE@XZ 1006eaae f i libucrt:output.obj
 0001:0006dab8       ??1?$output_adapter_data@DV?$string_output_adapter@D@__crt_stdio_output@@@__crt_stdio_output@@QAE@XZ 1006eab8 f i libucrt:output.obj
 0001:0006dac2       ??1?$output_adapter_data@_WV?$stream_output_adapter@_W@__crt_stdio_output@@@__crt_stdio_output@@QAE@XZ 1006eac2 f i libucrt:output.obj
 0001:0006dacc       ??1?$output_adapter_data@_WV?$string_output_adapter@_W@__crt_stdio_output@@@__crt_stdio_output@@QAE@XZ 1006eacc f i libucrt:output.obj
 0001:0006dad6       ??1?$output_processor@DV?$stream_output_adapter@D@__crt_stdio_output@@V?$format_validation_base@DV?$stream_output_adapter@D@__crt_stdio_output@@@2@@__crt_stdio_output@@QAE@XZ 1006ead6 f i libucrt:output.obj
 0001:0006dae0       ??1?$output_processor@DV?$stream_output_adapter@D@__crt_stdio_output@@V?$positional_parameter_base@DV?$stream_output_adapter@D@__crt_stdio_output@@@2@@__crt_stdio_output@@QAE@XZ 1006eae0 f i libucrt:output.obj
 0001:0006daea       ??1?$output_processor@DV?$stream_output_adapter@D@__crt_stdio_output@@V?$standard_base@DV?$stream_output_adapter@D@__crt_stdio_output@@@2@@__crt_stdio_output@@QAE@XZ 1006eaea f i libucrt:output.obj
 0001:0006daf4       ??1?$output_processor@DV?$string_output_adapter@D@__crt_stdio_output@@V?$format_validation_base@DV?$string_output_adapter@D@__crt_stdio_output@@@2@@__crt_stdio_output@@QAE@XZ 1006eaf4 f i libucrt:output.obj
 0001:0006dafe       ??1?$output_processor@DV?$string_output_adapter@D@__crt_stdio_output@@V?$positional_parameter_base@DV?$string_output_adapter@D@__crt_stdio_output@@@2@@__crt_stdio_output@@QAE@XZ 1006eafe f i libucrt:output.obj
 0001:0006db08       ??1?$output_processor@DV?$string_output_adapter@D@__crt_stdio_output@@V?$standard_base@DV?$string_output_adapter@D@__crt_stdio_output@@@2@@__crt_stdio_output@@QAE@XZ 1006eb08 f i libucrt:output.obj
 0001:0006db12       ??1?$output_processor@_WV?$stream_output_adapter@_W@__crt_stdio_output@@V?$format_validation_base@_WV?$stream_output_adapter@_W@__crt_stdio_output@@@2@@__crt_stdio_output@@QAE@XZ 1006eb12 f i libucrt:output.obj
 0001:0006db1c       ??1?$output_processor@_WV?$stream_output_adapter@_W@__crt_stdio_output@@V?$positional_parameter_base@_WV?$stream_output_adapter@_W@__crt_stdio_output@@@2@@__crt_stdio_output@@QAE@XZ 1006eb1c f i libucrt:output.obj
 0001:0006db26       ??1?$output_processor@_WV?$stream_output_adapter@_W@__crt_stdio_output@@V?$standard_base@_WV?$stream_output_adapter@_W@__crt_stdio_output@@@2@@__crt_stdio_output@@QAE@XZ 1006eb26 f i libucrt:output.obj
 0001:0006db30       ??1?$output_processor@_WV?$string_output_adapter@_W@__crt_stdio_output@@V?$format_validation_base@_WV?$string_output_adapter@_W@__crt_stdio_output@@@2@@__crt_stdio_output@@QAE@XZ 1006eb30 f i libucrt:output.obj
 0001:0006db3a       ??1?$output_processor@_WV?$string_output_adapter@_W@__crt_stdio_output@@V?$positional_parameter_base@_WV?$string_output_adapter@_W@__crt_stdio_output@@@2@@__crt_stdio_output@@QAE@XZ 1006eb3a f i libucrt:output.obj
 0001:0006db44       ??1?$output_processor@_WV?$string_output_adapter@_W@__crt_stdio_output@@V?$standard_base@_WV?$string_output_adapter@_W@__crt_stdio_output@@@2@@__crt_stdio_output@@QAE@XZ 1006eb44 f i libucrt:output.obj
 0001:0006db4e       ??1?$positional_parameter_base@DV?$stream_output_adapter@D@__crt_stdio_output@@@__crt_stdio_output@@QAE@XZ 1006eb4e f i libucrt:output.obj
 0001:0006db58       ??1?$positional_parameter_base@DV?$string_output_adapter@D@__crt_stdio_output@@@__crt_stdio_output@@QAE@XZ 1006eb58 f i libucrt:output.obj
 0001:0006db62       ??1?$positional_parameter_base@_WV?$stream_output_adapter@_W@__crt_stdio_output@@@__crt_stdio_output@@QAE@XZ 1006eb62 f i libucrt:output.obj
 0001:0006db6c       ??1?$positional_parameter_base@_WV?$string_output_adapter@_W@__crt_stdio_output@@@__crt_stdio_output@@QAE@XZ 1006eb6c f i libucrt:output.obj
 0001:0006db76       ??1?$standard_base@DV?$stream_output_adapter@D@__crt_stdio_output@@@__crt_stdio_output@@QAE@XZ 1006eb76 f i libucrt:output.obj
 0001:0006db80       ??1?$standard_base@DV?$string_output_adapter@D@__crt_stdio_output@@@__crt_stdio_output@@QAE@XZ 1006eb80 f i libucrt:output.obj
 0001:0006db8a       ??1?$standard_base@_WV?$stream_output_adapter@_W@__crt_stdio_output@@@__crt_stdio_output@@QAE@XZ 1006eb8a f i libucrt:output.obj
 0001:0006db94       ??1?$standard_base@_WV?$string_output_adapter@_W@__crt_stdio_output@@@__crt_stdio_output@@QAE@XZ 1006eb94 f i libucrt:output.obj
 0001:0006db9e       ??1__acrt_stdio_temporary_buffering_guard@@QAE@XZ 1006eb9e f i libucrt:output.obj
 0001:0006dbc0       ??1__crt_cached_ptd_host@@QAE@XZ 1006ebc0 f i libucrt:output.obj
 0001:0006dc0b       ??1__crt_scoped_get_last_error_reset@@QAE@XZ 1006ec0b f i libucrt:output.obj
 0001:0006dc16       ??1formatting_buffer@__crt_stdio_output@@QAE@XZ 1006ec16 f i libucrt:output.obj
 0001:0006dc36       ??1guard@?$cached@H@__crt_cached_ptd_host@@QAE@XZ 1006ec36 f i libucrt:output.obj
 0001:0006dc51       ??4?$__crt_unique_heap_ptr@DU__crt_internal_free_policy@@@@QAEAAV0@$$QAV0@@Z 1006ec51 f i libucrt:output.obj
 0001:0006dc7e       ??A?$spectre_mitigated_lookup_table@Ustate_transition_pair@__crt_stdio_output@@$0IA@@__crt_stdio_output@@QBEABUstate_transition_pair@1@I@Z 1006ec7e f i libucrt:output.obj
 0001:0006e210       ?adjust_hexit@?$output_processor@DV?$stream_output_adapter@D@__crt_stdio_output@@V?$format_validation_base@DV?$stream_output_adapter@D@__crt_stdio_output@@@2@@__crt_stdio_output@@CADH_N@Z 1006f210 f i libucrt:output.obj
 0001:0006e229       ?adjust_hexit@?$output_processor@DV?$stream_output_adapter@D@__crt_stdio_output@@V?$positional_parameter_base@DV?$stream_output_adapter@D@__crt_stdio_output@@@2@@__crt_stdio_output@@CADH_N@Z 1006f229 f i libucrt:output.obj
 0001:0006e242       ?adjust_hexit@?$output_processor@DV?$stream_output_adapter@D@__crt_stdio_output@@V?$standard_base@DV?$stream_output_adapter@D@__crt_stdio_output@@@2@@__crt_stdio_output@@CADH_N@Z 1006f242 f i libucrt:output.obj
 0001:0006e25b       ?adjust_hexit@?$output_processor@DV?$string_output_adapter@D@__crt_stdio_output@@V?$format_validation_base@DV?$string_output_adapter@D@__crt_stdio_output@@@2@@__crt_stdio_output@@CADH_N@Z 1006f25b f i libucrt:output.obj
 0001:0006e274       ?adjust_hexit@?$output_processor@DV?$string_output_adapter@D@__crt_stdio_output@@V?$positional_parameter_base@DV?$string_output_adapter@D@__crt_stdio_output@@@2@@__crt_stdio_output@@CADH_N@Z 1006f274 f i libucrt:output.obj
 0001:0006e28d       ?adjust_hexit@?$output_processor@DV?$string_output_adapter@D@__crt_stdio_output@@V?$standard_base@DV?$string_output_adapter@D@__crt_stdio_output@@@2@@__crt_stdio_output@@CADH_N@Z 1006f28d f i libucrt:output.obj
 0001:0006e2a6       ?adjust_hexit@?$output_processor@_WV?$stream_output_adapter@_W@__crt_stdio_output@@V?$format_validation_base@_WV?$stream_output_adapter@_W@__crt_stdio_output@@@2@@__crt_stdio_output@@CADH_N@Z 1006f2a6 f i libucrt:output.obj
 0001:0006e2bf       ?adjust_hexit@?$output_processor@_WV?$stream_output_adapter@_W@__crt_stdio_output@@V?$positional_parameter_base@_WV?$stream_output_adapter@_W@__crt_stdio_output@@@2@@__crt_stdio_output@@CADH_N@Z 1006f2bf f i libucrt:output.obj
 0001:0006e2d8       ?adjust_hexit@?$output_processor@_WV?$stream_output_adapter@_W@__crt_stdio_output@@V?$standard_base@_WV?$stream_output_adapter@_W@__crt_stdio_output@@@2@@__crt_stdio_output@@CADH_N@Z 1006f2d8 f i libucrt:output.obj
 0001:0006e2f1       ?adjust_hexit@?$output_processor@_WV?$string_output_adapter@_W@__crt_stdio_output@@V?$format_validation_base@_WV?$string_output_adapter@_W@__crt_stdio_output@@@2@@__crt_stdio_output@@CADH_N@Z 1006f2f1 f i libucrt:output.obj
 0001:0006e30a       ?adjust_hexit@?$output_processor@_WV?$string_output_adapter@_W@__crt_stdio_output@@V?$positional_parameter_base@_WV?$string_output_adapter@_W@__crt_stdio_output@@@2@@__crt_stdio_output@@CADH_N@Z 1006f30a f i libucrt:output.obj
 0001:0006e323       ?adjust_hexit@?$output_processor@_WV?$string_output_adapter@_W@__crt_stdio_output@@V?$standard_base@_WV?$string_output_adapter@_W@__crt_stdio_output@@@2@@__crt_stdio_output@@CADH_N@Z 1006f323 f i libucrt:output.obj
 0001:0006e33c       ?advance_to_next_pass@?$positional_parameter_base@DV?$stream_output_adapter@D@__crt_stdio_output@@@__crt_stdio_output@@IAE_NXZ 1006f33c f i libucrt:output.obj
 0001:0006e39d       ?advance_to_next_pass@?$positional_parameter_base@DV?$string_output_adapter@D@__crt_stdio_output@@@__crt_stdio_output@@IAE_NXZ 1006f39d f i libucrt:output.obj
 0001:0006e3fe       ?advance_to_next_pass@?$positional_parameter_base@_WV?$stream_output_adapter@_W@__crt_stdio_output@@@__crt_stdio_output@@IAE_NXZ 1006f3fe f i libucrt:output.obj
 0001:0006e45f       ?advance_to_next_pass@?$positional_parameter_base@_WV?$string_output_adapter@_W@__crt_stdio_output@@@__crt_stdio_output@@IAE_NXZ 1006f45f f i libucrt:output.obj
 0001:0006e4c0       ?advance_to_next_pass@?$standard_base@DV?$stream_output_adapter@D@__crt_stdio_output@@@__crt_stdio_output@@IAE_NXZ 1006f4c0 f i libucrt:output.obj
 0001:0006e4d5       ?advance_to_next_pass@?$standard_base@DV?$string_output_adapter@D@__crt_stdio_output@@@__crt_stdio_output@@IAE_NXZ 1006f4d5 f i libucrt:output.obj
 0001:0006e4ea       ?advance_to_next_pass@?$standard_base@_WV?$stream_output_adapter@_W@__crt_stdio_output@@@__crt_stdio_output@@IAE_NXZ 1006f4ea f i libucrt:output.obj
 0001:0006e4ff       ?advance_to_next_pass@?$standard_base@_WV?$string_output_adapter@_W@__crt_stdio_output@@@__crt_stdio_output@@IAE_NXZ 1006f4ff f i libucrt:output.obj
 0001:0006e514       ?check@?$cached@H@__crt_cached_ptd_host@@QBE_NH@Z 1006f514 f i libucrt:output.obj
 0001:0006e540       ?check_synchronize_global_state_index@__crt_cached_ptd_host@@AAEIABV__crt_scoped_get_last_error_reset@@@Z 1006f540 f i libucrt:output.obj
 0001:0006e570       ?check_synchronize_per_thread_data@__crt_cached_ptd_host@@AAEPAU__acrt_ptd@@XZ 1006f570 f i libucrt:output.obj
 0001:0006e5e3       ?create_guard@?$cached@H@__crt_cached_ptd_host@@QAE?AVguard@12@XZ 1006f5e3 f i libucrt:output.obj
 0001:0006e607       ?crop_zeroes@__crt_stdio_output@@YAXPADQAU__crt_locale_pointers@@@Z 1006f607 f i libucrt:output.obj
 0001:0006e67f       ?disable@guard@?$cached@H@__crt_cached_ptd_host@@QAEXXZ 1006f67f f i libucrt:output.obj
 0001:0006e684       ?enable@guard@?$cached@H@__crt_cached_ptd_host@@QAEXXZ 1006f684 f i libucrt:output.obj
 0001:0006e689       ?find_next_state@?$output_processor@DV?$stream_output_adapter@D@__crt_stdio_output@@V?$format_validation_base@DV?$stream_output_adapter@D@__crt_stdio_output@@@2@@__crt_stdio_output@@ABE?AW4state@2@DW432@@Z 1006f689 f i libucrt:output.obj
 0001:0006e6d5       ?find_next_state@?$output_processor@DV?$stream_output_adapter@D@__crt_stdio_output@@V?$positional_parameter_base@DV?$stream_output_adapter@D@__crt_stdio_output@@@2@@__crt_stdio_output@@ABE?AW4state@2@DW432@@Z 1006f6d5 f i libucrt:output.obj
 0001:0006e721       ?find_next_state@?$output_processor@DV?$stream_output_adapter@D@__crt_stdio_output@@V?$standard_base@DV?$stream_output_adapter@D@__crt_stdio_output@@@2@@__crt_stdio_output@@ABE?AW4state@2@DW432@@Z 1006f721 f i libucrt:output.obj
 0001:0006e76a       ?find_next_state@?$output_processor@DV?$string_output_adapter@D@__crt_stdio_output@@V?$format_validation_base@DV?$string_output_adapter@D@__crt_stdio_output@@@2@@__crt_stdio_output@@ABE?AW4state@2@DW432@@Z 1006f76a f i libucrt:output.obj
 0001:0006e7b6       ?find_next_state@?$output_processor@DV?$string_output_adapter@D@__crt_stdio_output@@V?$positional_parameter_base@DV?$string_output_adapter@D@__crt_stdio_output@@@2@@__crt_stdio_output@@ABE?AW4state@2@DW432@@Z 1006f7b6 f i libucrt:output.obj
 0001:0006e802       ?find_next_state@?$output_processor@DV?$string_output_adapter@D@__crt_stdio_output@@V?$standard_base@DV?$string_output_adapter@D@__crt_stdio_output@@@2@@__crt_stdio_output@@ABE?AW4state@2@DW432@@Z 1006f802 f i libucrt:output.obj
 0001:0006e84b       ?find_next_state@?$output_processor@_WV?$stream_output_adapter@_W@__crt_stdio_output@@V?$format_validation_base@_WV?$stream_output_adapter@_W@__crt_stdio_output@@@2@@__crt_stdio_output@@ABE?AW4state@2@_WW432@@Z 1006f84b f i libucrt:output.obj
 0001:0006e896       ?find_next_state@?$output_processor@_WV?$stream_output_adapter@_W@__crt_stdio_output@@V?$positional_parameter_base@_WV?$stream_output_adapter@_W@__crt_stdio_output@@@2@@__crt_stdio_output@@ABE?AW4state@2@_WW432@@Z 1006f896 f i libucrt:output.obj
 0001:0006e8e1       ?find_next_state@?$output_processor@_WV?$stream_output_adapter@_W@__crt_stdio_output@@V?$standard_base@_WV?$stream_output_adapter@_W@__crt_stdio_output@@@2@@__crt_stdio_output@@ABE?AW4state@2@_WW432@@Z 1006f8e1 f i libucrt:output.obj
 0001:0006e929       ?find_next_state@?$output_processor@_WV?$string_output_adapter@_W@__crt_stdio_output@@V?$format_validation_base@_WV?$string_output_adapter@_W@__crt_stdio_output@@@2@@__crt_stdio_output@@ABE?AW4state@2@_WW432@@Z 1006f929 f i libucrt:output.obj
 0001:0006e974       ?find_next_state@?$output_processor@_WV?$string_output_adapter@_W@__crt_stdio_output@@V?$positional_parameter_base@_WV?$string_output_adapter@_W@__crt_stdio_output@@@2@@__crt_stdio_output@@ABE?AW4state@2@_WW432@@Z 1006f974 f i libucrt:output.obj
 0001:0006e9bf       ?find_next_state@?$output_processor@_WV?$string_output_adapter@_W@__crt_stdio_output@@V?$standard_base@_WV?$string_output_adapter@_W@__crt_stdio_output@@@2@@__crt_stdio_output@@ABE?AW4state@2@_WW432@@Z 1006f9bf f i libucrt:output.obj
 0001:0006ea07       ?force_decimal_point@__crt_stdio_output@@YAXPADQAU__crt_locale_pointers@@@Z 1006fa07 f i libucrt:output.obj
 0001:0006ea80       ?force_synchronize_global_state_index@__crt_cached_ptd_host@@AAEIABV__crt_scoped_get_last_error_reset@@@Z 1006fa80 f i libucrt:output.obj
 0001:0006eaa0       ?force_synchronize_per_thread_data@__crt_cached_ptd_host@@AAEPAU__acrt_ptd@@XZ 1006faa0 f i libucrt:output.obj
 0001:0006eb00       ?get@?$c_string_character_source@D@__crt_strtox@@QAEDXZ 1006fb00 f i libucrt:output.obj
 0001:0006eb0a       ?get@?$c_string_character_source@_W@__crt_strtox@@QAE_WXZ 1006fb0a f i libucrt:output.obj
 0001:0006eb17       ?get_current_state_index@__crt_state_management@@YAIABV__crt_scoped_get_last_error_reset@@@Z 1006fb17 f i libucrt:output.obj
 0001:0006eb20       ?get_errno@__crt_cached_ptd_host@@QAE@XZ 1006fb20 f i libucrt:output.obj
 0001:0006eb24       ?get_flags@__crt_stdio_stream@@QBEJXZ 1006fb24 f i libucrt:output.obj
 0001:0006eb30       ?get_locale@__crt_cached_ptd_host@@QAEPAU__crt_locale_pointers@@XZ 1006fb30 f i libucrt:output.obj
 0001:0006eb4a       ?get_parameter_type@?$positional_parameter_base@DV?$stream_output_adapter@D@__crt_stdio_output@@@__crt_stdio_output@@CA?AW4parameter_type@12@F@Z 1006fb4a f i libucrt:output.obj
 0001:0006eb4e       ?get_parameter_type@?$positional_parameter_base@DV?$stream_output_adapter@D@__crt_stdio_output@@@__crt_stdio_output@@CA?AW4parameter_type@12@G@Z 1006fb4e f i libucrt:output.obj
 0001:0006eb52       ?get_parameter_type@?$positional_parameter_base@DV?$stream_output_adapter@D@__crt_stdio_output@@@__crt_stdio_output@@CA?AW4parameter_type@12@H@Z 1006fb52 f i libucrt:output.obj
 0001:0006eb56       ?get_parameter_type@?$positional_parameter_base@DV?$stream_output_adapter@D@__crt_stdio_output@@@__crt_stdio_output@@CA?AW4parameter_type@12@I@Z 1006fb56 f i libucrt:output.obj
 0001:0006eb5a       ?get_parameter_type@?$positional_parameter_base@DV?$stream_output_adapter@D@__crt_stdio_output@@@__crt_stdio_output@@CA?AW4parameter_type@12@U_CRT_DOUBLE@@@Z 1006fb5a f i libucrt:output.obj
 0001:0006eb5e       ?get_parameter_type@?$positional_parameter_base@DV?$stream_output_adapter@D@__crt_stdio_output@@@__crt_stdio_output@@CA?AW4parameter_type@12@_J@Z 1006fb5e f i libucrt:output.obj
 0001:0006eb62       ?get_parameter_type@?$positional_parameter_base@DV?$stream_output_adapter@D@__crt_stdio_output@@@__crt_stdio_output@@CA?AW4parameter_type@12@_K@Z 1006fb62 f i libucrt:output.obj
 0001:0006eb66       ?get_parameter_type@?$positional_parameter_base@DV?$stream_output_adapter@D@__crt_stdio_output@@@__crt_stdio_output@@CA?AW4parameter_type@12@_W@Z 1006fb66 f i libucrt:output.obj
 0001:0006eb6a       ?get_parameter_type@?$positional_parameter_base@DV?$string_output_adapter@D@__crt_stdio_output@@@__crt_stdio_output@@CA?AW4parameter_type@12@F@Z 1006fb6a f i libucrt:output.obj
 0001:0006eb6e       ?get_parameter_type@?$positional_parameter_base@DV?$string_output_adapter@D@__crt_stdio_output@@@__crt_stdio_output@@CA?AW4parameter_type@12@G@Z 1006fb6e f i libucrt:output.obj
 0001:0006eb72       ?get_parameter_type@?$positional_parameter_base@DV?$string_output_adapter@D@__crt_stdio_output@@@__crt_stdio_output@@CA?AW4parameter_type@12@H@Z 1006fb72 f i libucrt:output.obj
 0001:0006eb76       ?get_parameter_type@?$positional_parameter_base@DV?$string_output_adapter@D@__crt_stdio_output@@@__crt_stdio_output@@CA?AW4parameter_type@12@I@Z 1006fb76 f i libucrt:output.obj
 0001:0006eb7a       ?get_parameter_type@?$positional_parameter_base@DV?$string_output_adapter@D@__crt_stdio_output@@@__crt_stdio_output@@CA?AW4parameter_type@12@U_CRT_DOUBLE@@@Z 1006fb7a f i libucrt:output.obj
 0001:0006eb7e       ?get_parameter_type@?$positional_parameter_base@DV?$string_output_adapter@D@__crt_stdio_output@@@__crt_stdio_output@@CA?AW4parameter_type@12@_J@Z 1006fb7e f i libucrt:output.obj
 0001:0006eb82       ?get_parameter_type@?$positional_parameter_base@DV?$string_output_adapter@D@__crt_stdio_output@@@__crt_stdio_output@@CA?AW4parameter_type@12@_K@Z 1006fb82 f i libucrt:output.obj
 0001:0006eb86       ?get_parameter_type@?$positional_parameter_base@DV?$string_output_adapter@D@__crt_stdio_output@@@__crt_stdio_output@@CA?AW4parameter_type@12@_W@Z 1006fb86 f i libucrt:output.obj
 0001:0006eb8a       ?get_parameter_type@?$positional_parameter_base@_WV?$stream_output_adapter@_W@__crt_stdio_output@@@__crt_stdio_output@@CA?AW4parameter_type@12@F@Z 1006fb8a f i libucrt:output.obj
 0001:0006eb8e       ?get_parameter_type@?$positional_parameter_base@_WV?$stream_output_adapter@_W@__crt_stdio_output@@@__crt_stdio_output@@CA?AW4parameter_type@12@G@Z 1006fb8e f i libucrt:output.obj
 0001:0006eb92       ?get_parameter_type@?$positional_parameter_base@_WV?$stream_output_adapter@_W@__crt_stdio_output@@@__crt_stdio_output@@CA?AW4parameter_type@12@H@Z 1006fb92 f i libucrt:output.obj
 0001:0006eb96       ?get_parameter_type@?$positional_parameter_base@_WV?$stream_output_adapter@_W@__crt_stdio_output@@@__crt_stdio_output@@CA?AW4parameter_type@12@I@Z 1006fb96 f i libucrt:output.obj
 0001:0006eb9a       ?get_parameter_type@?$positional_parameter_base@_WV?$stream_output_adapter@_W@__crt_stdio_output@@@__crt_stdio_output@@CA?AW4parameter_type@12@U_CRT_DOUBLE@@@Z 1006fb9a f i libucrt:output.obj
 0001:0006eb9e       ?get_parameter_type@?$positional_parameter_base@_WV?$stream_output_adapter@_W@__crt_stdio_output@@@__crt_stdio_output@@CA?AW4parameter_type@12@_J@Z 1006fb9e f i libucrt:output.obj
 0001:0006eba2       ?get_parameter_type@?$positional_parameter_base@_WV?$stream_output_adapter@_W@__crt_stdio_output@@@__crt_stdio_output@@CA?AW4parameter_type@12@_K@Z 1006fba2 f i libucrt:output.obj
 0001:0006eba6       ?get_parameter_type@?$positional_parameter_base@_WV?$stream_output_adapter@_W@__crt_stdio_output@@@__crt_stdio_output@@CA?AW4parameter_type@12@_W@Z 1006fba6 f i libucrt:output.obj
 0001:0006ebaa       ?get_parameter_type@?$positional_parameter_base@_WV?$string_output_adapter@_W@__crt_stdio_output@@@__crt_stdio_output@@CA?AW4parameter_type@12@F@Z 1006fbaa f i libucrt:output.obj
 0001:0006ebae       ?get_parameter_type@?$positional_parameter_base@_WV?$string_output_adapter@_W@__crt_stdio_output@@@__crt_stdio_output@@CA?AW4parameter_type@12@G@Z 1006fbae f i libucrt:output.obj
 0001:0006ebb2       ?get_parameter_type@?$positional_parameter_base@_WV?$string_output_adapter@_W@__crt_stdio_output@@@__crt_stdio_output@@CA?AW4parameter_type@12@H@Z 1006fbb2 f i libucrt:output.obj
 0001:0006ebb6       ?get_parameter_type@?$positional_parameter_base@_WV?$string_output_adapter@_W@__crt_stdio_output@@@__crt_stdio_output@@CA?AW4parameter_type@12@I@Z 1006fbb6 f i libucrt:output.obj
 0001:0006ebba       ?get_parameter_type@?$positional_parameter_base@_WV?$string_output_adapter@_W@__crt_stdio_output@@@__crt_stdio_output@@CA?AW4parameter_type@12@U_CRT_DOUBLE@@@Z 1006fbba f i libucrt:output.obj
 0001:0006ebbe       ?get_parameter_type@?$positional_parameter_base@_WV?$string_output_adapter@_W@__crt_stdio_output@@@__crt_stdio_output@@CA?AW4parameter_type@12@_J@Z 1006fbbe f i libucrt:output.obj
 0001:0006ebc2       ?get_parameter_type@?$positional_parameter_base@_WV?$string_output_adapter@_W@__crt_stdio_output@@@__crt_stdio_output@@CA?AW4parameter_type@12@_K@Z 1006fbc2 f i libucrt:output.obj
 0001:0006ebc6       ?get_parameter_type@?$positional_parameter_base@_WV?$string_output_adapter@_W@__crt_stdio_output@@@__crt_stdio_output@@CA?AW4parameter_type@12@_W@Z 1006fbc6 f i libucrt:output.obj
 0001:0006ebd0       ?get_raw_ptd@__crt_cached_ptd_host@@QAEPAU__acrt_ptd@@XZ 1006fbd0 f i libucrt:output.obj
 0001:0006ec43       ?has_flag@?$output_processor@DV?$stream_output_adapter@D@__crt_stdio_output@@V?$format_validation_base@DV?$stream_output_adapter@D@__crt_stdio_output@@@2@@__crt_stdio_output@@ABE_NI@Z 1006fc43 f i libucrt:output.obj
 0001:0006ec59       ?has_flag@?$output_processor@DV?$stream_output_adapter@D@__crt_stdio_output@@V?$positional_parameter_base@DV?$stream_output_adapter@D@__crt_stdio_output@@@2@@__crt_stdio_output@@ABE_NI@Z 1006fc59 f i libucrt:output.obj
 0001:0006ec6f       ?has_flag@?$output_processor@DV?$stream_output_adapter@D@__crt_stdio_output@@V?$standard_base@DV?$stream_output_adapter@D@__crt_stdio_output@@@2@@__crt_stdio_output@@ABE_NI@Z 1006fc6f f i libucrt:output.obj
 0001:0006ec85       ?has_flag@?$output_processor@DV?$string_output_adapter@D@__crt_stdio_output@@V?$format_validation_base@DV?$string_output_adapter@D@__crt_stdio_output@@@2@@__crt_stdio_output@@ABE_NI@Z 1006fc85 f i libucrt:output.obj
 0001:0006ec9b       ?has_flag@?$output_processor@DV?$string_output_adapter@D@__crt_stdio_output@@V?$positional_parameter_base@DV?$string_output_adapter@D@__crt_stdio_output@@@2@@__crt_stdio_output@@ABE_NI@Z 1006fc9b f i libucrt:output.obj
 0001:0006ecb1       ?has_flag@?$output_processor@DV?$string_output_adapter@D@__crt_stdio_output@@V?$standard_base@DV?$string_output_adapter@D@__crt_stdio_output@@@2@@__crt_stdio_output@@ABE_NI@Z 1006fcb1 f i libucrt:output.obj
 0001:0006ecc7       ?has_flag@?$output_processor@_WV?$stream_output_adapter@_W@__crt_stdio_output@@V?$format_validation_base@_WV?$stream_output_adapter@_W@__crt_stdio_output@@@2@@__crt_stdio_output@@ABE_NI@Z 1006fcc7 f i libucrt:output.obj
 0001:0006ecdd       ?has_flag@?$output_processor@_WV?$stream_output_adapter@_W@__crt_stdio_output@@V?$positional_parameter_base@_WV?$stream_output_adapter@_W@__crt_stdio_output@@@2@@__crt_stdio_output@@ABE_NI@Z 1006fcdd f i libucrt:output.obj
 0001:0006ecf3       ?has_flag@?$output_processor@_WV?$stream_output_adapter@_W@__crt_stdio_output@@V?$standard_base@_WV?$stream_output_adapter@_W@__crt_stdio_output@@@2@@__crt_stdio_output@@ABE_NI@Z 1006fcf3 f i libucrt:output.obj
 0001:0006ed09       ?has_flag@?$output_processor@_WV?$string_output_adapter@_W@__crt_stdio_output@@V?$format_validation_base@_WV?$string_output_adapter@_W@__crt_stdio_output@@@2@@__crt_stdio_output@@ABE_NI@Z 1006fd09 f i libucrt:output.obj
 0001:0006ed1f       ?has_flag@?$output_processor@_WV?$string_output_adapter@_W@__crt_stdio_output@@V?$positional_parameter_base@_WV?$string_output_adapter@_W@__crt_stdio_output@@@2@@__crt_stdio_output@@ABE_NI@Z 1006fd1f f i libucrt:output.obj
 0001:0006ed35       ?has_flag@?$output_processor@_WV?$string_output_adapter@_W@__crt_stdio_output@@V?$standard_base@_WV?$string_output_adapter@_W@__crt_stdio_output@@@2@@__crt_stdio_output@@ABE_NI@Z 1006fd35 f i libucrt:output.obj
 0001:0006ed4b       ?is_positional_parameter_reappearance_consistent@?$positional_parameter_base@DV?$stream_output_adapter@D@__crt_stdio_output@@@__crt_stdio_output@@AAE_NABUparameter_data@12@W4parameter_type@12@DW4length_modifier@2@@Z 1006fd4b f i libucrt:output.obj
 0001:0006eeab       ?is_positional_parameter_reappearance_consistent@?$positional_parameter_base@DV?$string_output_adapter@D@__crt_stdio_output@@@__crt_stdio_output@@AAE_NABUparameter_data@12@W4parameter_type@12@DW4length_modifier@2@@Z 1006feab f i libucrt:output.obj
 0001:0006f00b       ?is_positional_parameter_reappearance_consistent@?$positional_parameter_base@_WV?$stream_output_adapter@_W@__crt_stdio_output@@@__crt_stdio_output@@AAE_NABUparameter_data@12@W4parameter_type@12@_WW4length_modifier@2@@Z 1007000b f i libucrt:output.obj
 0001:0006f16c       ?is_positional_parameter_reappearance_consistent@?$positional_parameter_base@_WV?$string_output_adapter@_W@__crt_stdio_output@@@__crt_stdio_output@@AAE_NABUparameter_data@12@W4parameter_type@12@_WW4length_modifier@2@@Z 1007016c f i libucrt:output.obj
 0001:0006f2cd       ?is_string_backed@__crt_stdio_stream@@QBE_NXZ 100702cd f i libucrt:output.obj
 0001:0006f2dc       ?maximum_signed_value@__crt_strtox@@YAJK@Z 100702dc f i libucrt:output.obj
 0001:0006f2e2       ?minimum_signed_value@__crt_strtox@@YAJK@Z 100702e2 f i libucrt:output.obj
 0001:0006f2e8       ?narrow_null_string@?$output_processor@DV?$stream_output_adapter@D@__crt_stdio_output@@V?$format_validation_base@DV?$stream_output_adapter@D@__crt_stdio_output@@@2@@__crt_stdio_output@@CAPADXZ 100702e8 f i libucrt:output.obj
 0001:0006f2ee       ?narrow_null_string@?$output_processor@DV?$stream_output_adapter@D@__crt_stdio_output@@V?$positional_parameter_base@DV?$stream_output_adapter@D@__crt_stdio_output@@@2@@__crt_stdio_output@@CAPADXZ 100702ee f i libucrt:output.obj
 0001:0006f2f4       ?narrow_null_string@?$output_processor@DV?$stream_output_adapter@D@__crt_stdio_output@@V?$standard_base@DV?$stream_output_adapter@D@__crt_stdio_output@@@2@@__crt_stdio_output@@CAPADXZ 100702f4 f i libucrt:output.obj
 0001:0006f2fa       ?narrow_null_string@?$output_processor@DV?$string_output_adapter@D@__crt_stdio_output@@V?$format_validation_base@DV?$string_output_adapter@D@__crt_stdio_output@@@2@@__crt_stdio_output@@CAPADXZ 100702fa f i libucrt:output.obj
 0001:0006f300       ?narrow_null_string@?$output_processor@DV?$string_output_adapter@D@__crt_stdio_output@@V?$positional_parameter_base@DV?$string_output_adapter@D@__crt_stdio_output@@@2@@__crt_stdio_output@@CAPADXZ 10070300 f i libucrt:output.obj
 0001:0006f306       ?narrow_null_string@?$output_processor@DV?$string_output_adapter@D@__crt_stdio_output@@V?$standard_base@DV?$string_output_adapter@D@__crt_stdio_output@@@2@@__crt_stdio_output@@CAPADXZ 10070306 f i libucrt:output.obj
 0001:0006f30c       ?narrow_null_string@?$output_processor@_WV?$stream_output_adapter@_W@__crt_stdio_output@@V?$format_validation_base@_WV?$stream_output_adapter@_W@__crt_stdio_output@@@2@@__crt_stdio_output@@CAPADXZ 1007030c f i libucrt:output.obj
 0001:0006f312       ?narrow_null_string@?$output_processor@_WV?$stream_output_adapter@_W@__crt_stdio_output@@V?$positional_parameter_base@_WV?$stream_output_adapter@_W@__crt_stdio_output@@@2@@__crt_stdio_output@@CAPADXZ 10070312 f i libucrt:output.obj
 0001:0006f318       ?narrow_null_string@?$output_processor@_WV?$stream_output_adapter@_W@__crt_stdio_output@@V?$standard_base@_WV?$stream_output_adapter@_W@__crt_stdio_output@@@2@@__crt_stdio_output@@CAPADXZ 10070318 f i libucrt:output.obj
 0001:0006f31e       ?narrow_null_string@?$output_processor@_WV?$string_output_adapter@_W@__crt_stdio_output@@V?$format_validation_base@_WV?$string_output_adapter@_W@__crt_stdio_output@@@2@@__crt_stdio_output@@CAPADXZ 1007031e f i libucrt:output.obj
 0001:0006f324       ?narrow_null_string@?$output_processor@_WV?$string_output_adapter@_W@__crt_stdio_output@@V?$positional_parameter_base@_WV?$string_output_adapter@_W@__crt_stdio_output@@@2@@__crt_stdio_output@@CAPADXZ 10070324 f i libucrt:output.obj
 0001:0006f32a       ?narrow_null_string@?$output_processor@_WV?$string_output_adapter@_W@__crt_stdio_output@@V?$standard_base@_WV?$string_output_adapter@_W@__crt_stdio_output@@@2@@__crt_stdio_output@@CAPADXZ 1007032a f i libucrt:output.obj
 0001:0006f330       ?parse_digit@__crt_strtox@@YAID@Z 10070330 f i libucrt:output.obj
 0001:0006f378       ?parse_digit@__crt_strtox@@YAI_W@Z 10070378 f i libucrt:output.obj
 0001:0006f5b2       ?parse_int_from_format_string@?$output_processor@DV?$stream_output_adapter@D@__crt_stdio_output@@V?$format_validation_base@DV?$stream_output_adapter@D@__crt_stdio_output@@@2@@__crt_stdio_output@@AAE_NQAH@Z 100705b2 f i libucrt:output.obj
 0001:0006f648       ?parse_int_from_format_string@?$output_processor@DV?$stream_output_adapter@D@__crt_stdio_output@@V?$positional_parameter_base@DV?$stream_output_adapter@D@__crt_stdio_output@@@2@@__crt_stdio_output@@AAE_NQAH@Z 10070648 f i libucrt:output.obj
 0001:0006f6de       ?parse_int_from_format_string@?$output_processor@DV?$stream_output_adapter@D@__crt_stdio_output@@V?$standard_base@DV?$stream_output_adapter@D@__crt_stdio_output@@@2@@__crt_stdio_output@@AAE_NQAH@Z 100706de f i libucrt:output.obj
 0001:0006f774       ?parse_int_from_format_string@?$output_processor@DV?$string_output_adapter@D@__crt_stdio_output@@V?$format_validation_base@DV?$string_output_adapter@D@__crt_stdio_output@@@2@@__crt_stdio_output@@AAE_NQAH@Z 10070774 f i libucrt:output.obj
 0001:0006f80a       ?parse_int_from_format_string@?$output_processor@DV?$string_output_adapter@D@__crt_stdio_output@@V?$positional_parameter_base@DV?$string_output_adapter@D@__crt_stdio_output@@@2@@__crt_stdio_output@@AAE_NQAH@Z 1007080a f i libucrt:output.obj
 0001:0006f8a0       ?parse_int_from_format_string@?$output_processor@DV?$string_output_adapter@D@__crt_stdio_output@@V?$standard_base@DV?$string_output_adapter@D@__crt_stdio_output@@@2@@__crt_stdio_output@@AAE_NQAH@Z 100708a0 f i libucrt:output.obj
 0001:0006f936       ?parse_int_from_format_string@?$output_processor@_WV?$stream_output_adapter@_W@__crt_stdio_output@@V?$format_validation_base@_WV?$stream_output_adapter@_W@__crt_stdio_output@@@2@@__crt_stdio_output@@AAE_NQAH@Z 10070936 f i libucrt:output.obj
 0001:0006f9ce       ?parse_int_from_format_string@?$output_processor@_WV?$stream_output_adapter@_W@__crt_stdio_output@@V?$positional_parameter_base@_WV?$stream_output_adapter@_W@__crt_stdio_output@@@2@@__crt_stdio_output@@AAE_NQAH@Z 100709ce f i libucrt:output.obj
 0001:0006fa66       ?parse_int_from_format_string@?$output_processor@_WV?$stream_output_adapter@_W@__crt_stdio_output@@V?$standard_base@_WV?$stream_output_adapter@_W@__crt_stdio_output@@@2@@__crt_stdio_output@@AAE_NQAH@Z 10070a66 f i libucrt:output.obj
 0001:0006fafe       ?parse_int_from_format_string@?$output_processor@_WV?$string_output_adapter@_W@__crt_stdio_output@@V?$format_validation_base@_WV?$string_output_adapter@_W@__crt_stdio_output@@@2@@__crt_stdio_output@@AAE_NQAH@Z 10070afe f i libucrt:output.obj
 0001:0006fb96       ?parse_int_from_format_string@?$output_processor@_WV?$string_output_adapter@_W@__crt_stdio_output@@V?$positional_parameter_base@_WV?$string_output_adapter@_W@__crt_stdio_output@@@2@@__crt_stdio_output@@AAE_NQAH@Z 10070b96 f i libucrt:output.obj
 0001:0006fc2e       ?parse_int_from_format_string@?$output_processor@_WV?$string_output_adapter@_W@__crt_stdio_output@@V?$standard_base@_WV?$string_output_adapter@_W@__crt_stdio_output@@@2@@__crt_stdio_output@@AAE_NQAH@Z 10070c2e f i libucrt:output.obj
 0001:0006fcc6       ?process@?$output_processor@DV?$stream_output_adapter@D@__crt_stdio_output@@V?$format_validation_base@DV?$stream_output_adapter@D@__crt_stdio_output@@@2@@__crt_stdio_output@@QAEHXZ 10070cc6 f i libucrt:output.obj
 0001:00070036       ?process@?$output_processor@DV?$stream_output_adapter@D@__crt_stdio_output@@V?$positional_parameter_base@DV?$stream_output_adapter@D@__crt_stdio_output@@@2@@__crt_stdio_output@@QAEHXZ 10071036 f i libucrt:output.obj
 0001:000703bf       ?process@?$output_processor@DV?$stream_output_adapter@D@__crt_stdio_output@@V?$standard_base@DV?$stream_output_adapter@D@__crt_stdio_output@@@2@@__crt_stdio_output@@QAEHXZ 100713bf f i libucrt:output.obj
 0001:0007071b       ?process@?$output_processor@DV?$string_output_adapter@D@__crt_stdio_output@@V?$format_validation_base@DV?$string_output_adapter@D@__crt_stdio_output@@@2@@__crt_stdio_output@@QAEHXZ 1007171b f i libucrt:output.obj
 0001:00070ab8       ?process@?$output_processor@DV?$string_output_adapter@D@__crt_stdio_output@@V?$positional_parameter_base@DV?$string_output_adapter@D@__crt_stdio_output@@@2@@__crt_stdio_output@@QAEHXZ 10071ab8 f i libucrt:output.obj
 0001:00070e78       ?process@?$output_processor@DV?$string_output_adapter@D@__crt_stdio_output@@V?$standard_base@DV?$string_output_adapter@D@__crt_stdio_output@@@2@@__crt_stdio_output@@QAEHXZ 10071e78 f i libucrt:output.obj
 0001:00071201       ?process@?$output_processor@_WV?$stream_output_adapter@_W@__crt_stdio_output@@V?$format_validation_base@_WV?$stream_output_adapter@_W@__crt_stdio_output@@@2@@__crt_stdio_output@@QAEHXZ 10072201 f i libucrt:output.obj
 0001:000714a4       ?process@?$output_processor@_WV?$stream_output_adapter@_W@__crt_stdio_output@@V?$positional_parameter_base@_WV?$stream_output_adapter@_W@__crt_stdio_output@@@2@@__crt_stdio_output@@QAEHXZ 100724a4 f i libucrt:output.obj
 0001:0007178d       ?process@?$output_processor@_WV?$stream_output_adapter@_W@__crt_stdio_output@@V?$standard_base@_WV?$stream_output_adapter@_W@__crt_stdio_output@@@2@@__crt_stdio_output@@QAEHXZ 1007278d f i libucrt:output.obj
 0001:00071a21       ?process@?$output_processor@_WV?$string_output_adapter@_W@__crt_stdio_output@@V?$format_validation_base@_WV?$string_output_adapter@_W@__crt_stdio_output@@@2@@__crt_stdio_output@@QAEHXZ 10072a21 f i libucrt:output.obj
 0001:00071cf1       ?process@?$output_processor@_WV?$string_output_adapter@_W@__crt_stdio_output@@V?$positional_parameter_base@_WV?$string_output_adapter@_W@__crt_stdio_output@@@2@@__crt_stdio_output@@QAEHXZ 10072cf1 f i libucrt:output.obj
 0001:00071ff3       ?process@?$output_processor@_WV?$string_output_adapter@_W@__crt_stdio_output@@V?$standard_base@_WV?$string_output_adapter@_W@__crt_stdio_output@@@2@@__crt_stdio_output@@QAEHXZ 10072ff3 f i libucrt:output.obj
 0001:000722be       ?public_stream@__crt_stdio_stream@@QBEPAU_iobuf@@XZ 100732be f i libucrt:output.obj
 0001:000722c1       ?restore_state@?$c_string_character_source@D@__crt_strtox@@QAE_NQBD@Z 100732c1 f i libucrt:output.obj
 0001:000722d5       ?restore_state@?$c_string_character_source@_W@__crt_strtox@@QAE_NQB_W@Z 100732d5 f i libucrt:output.obj
 0001:000722e9       ?save_state@?$c_string_character_source@D@__crt_strtox@@QBEPBDXZ 100732e9 f i libucrt:output.obj
 0001:000722ec       ?save_state@?$c_string_character_source@_W@__crt_strtox@@QBEPB_WXZ 100732ec f i libucrt:output.obj
 0001:000722ef       ?set@?$cached@H@__crt_cached_ptd_host@@QAEHH@Z 100732ef f i libucrt:output.obj
 0001:00072305       ?set_flag@?$output_processor@DV?$stream_output_adapter@D@__crt_stdio_output@@V?$format_validation_base@DV?$stream_output_adapter@D@__crt_stdio_output@@@2@@__crt_stdio_output@@AAEXI@Z 10073305 f i libucrt:output.obj
 0001:00072317       ?set_flag@?$output_processor@DV?$stream_output_adapter@D@__crt_stdio_output@@V?$positional_parameter_base@DV?$stream_output_adapter@D@__crt_stdio_output@@@2@@__crt_stdio_output@@AAEXI@Z 10073317 f i libucrt:output.obj
 0001:00072329       ?set_flag@?$output_processor@DV?$stream_output_adapter@D@__crt_stdio_output@@V?$standard_base@DV?$stream_output_adapter@D@__crt_stdio_output@@@2@@__crt_stdio_output@@AAEXI@Z 10073329 f i libucrt:output.obj
 0001:0007233b       ?set_flag@?$output_processor@DV?$string_output_adapter@D@__crt_stdio_output@@V?$format_validation_base@DV?$string_output_adapter@D@__crt_stdio_output@@@2@@__crt_stdio_output@@AAEXI@Z 1007333b f i libucrt:output.obj
 0001:0007234d       ?set_flag@?$output_processor@DV?$string_output_adapter@D@__crt_stdio_output@@V?$positional_parameter_base@DV?$string_output_adapter@D@__crt_stdio_output@@@2@@__crt_stdio_output@@AAEXI@Z 1007334d f i libucrt:output.obj
 0001:0007235f       ?set_flag@?$output_processor@DV?$string_output_adapter@D@__crt_stdio_output@@V?$standard_base@DV?$string_output_adapter@D@__crt_stdio_output@@@2@@__crt_stdio_output@@AAEXI@Z 1007335f f i libucrt:output.obj
 0001:00072371       ?set_flag@?$output_processor@_WV?$stream_output_adapter@_W@__crt_stdio_output@@V?$format_validation_base@_WV?$stream_output_adapter@_W@__crt_stdio_output@@@2@@__crt_stdio_output@@AAEXI@Z 10073371 f i libucrt:output.obj
 0001:00072383       ?set_flag@?$output_processor@_WV?$stream_output_adapter@_W@__crt_stdio_output@@V?$positional_parameter_base@_WV?$stream_output_adapter@_W@__crt_stdio_output@@@2@@__crt_stdio_output@@AAEXI@Z 10073383 f i libucrt:output.obj
 0001:00072395       ?set_flag@?$output_processor@_WV?$stream_output_adapter@_W@__crt_stdio_output@@V?$standard_base@_WV?$stream_output_adapter@_W@__crt_stdio_output@@@2@@__crt_stdio_output@@AAEXI@Z 10073395 f i libucrt:output.obj
 0001:000723a7       ?set_flag@?$output_processor@_WV?$string_output_adapter@_W@__crt_stdio_output@@V?$format_validation_base@_WV?$string_output_adapter@_W@__crt_stdio_output@@@2@@__crt_stdio_output@@AAEXI@Z 100733a7 f i libucrt:output.obj
 0001:000723b9       ?set_flag@?$output_processor@_WV?$string_output_adapter@_W@__crt_stdio_output@@V?$positional_parameter_base@_WV?$string_output_adapter@_W@__crt_stdio_output@@@2@@__crt_stdio_output@@AAEXI@Z 100733b9 f i libucrt:output.obj
 0001:000723cb       ?set_flag@?$output_processor@_WV?$string_output_adapter@_W@__crt_stdio_output@@V?$standard_base@_WV?$string_output_adapter@_W@__crt_stdio_output@@@2@@__crt_stdio_output@@AAEXI@Z 100733cb f i libucrt:output.obj
 0001:000723dd       ?should_format@?$positional_parameter_base@DV?$stream_output_adapter@D@__crt_stdio_output@@@__crt_stdio_output@@IAE_NXZ 100733dd f i libucrt:output.obj
 0001:000723f8       ?should_format@?$positional_parameter_base@DV?$string_output_adapter@D@__crt_stdio_output@@@__crt_stdio_output@@IAE_NXZ 100733f8 f i libucrt:output.obj
 0001:00072413       ?should_format@?$positional_parameter_base@_WV?$stream_output_adapter@_W@__crt_stdio_output@@@__crt_stdio_output@@IAE_NXZ 10073413 f i libucrt:output.obj
 0001:0007242e       ?should_format@?$positional_parameter_base@_WV?$string_output_adapter@_W@__crt_stdio_output@@@__crt_stdio_output@@IAE_NXZ 1007342e f i libucrt:output.obj
 0001:00072449       ?should_format@?$standard_base@DV?$stream_output_adapter@D@__crt_stdio_output@@@__crt_stdio_output@@IAE_NXZ 10073449 f i libucrt:output.obj
 0001:0007244c       ?should_format@?$standard_base@DV?$string_output_adapter@D@__crt_stdio_output@@@__crt_stdio_output@@IAE_NXZ 1007344c f i libucrt:output.obj
 0001:0007244f       ?should_format@?$standard_base@_WV?$stream_output_adapter@_W@__crt_stdio_output@@@__crt_stdio_output@@IAE_NXZ 1007344f f i libucrt:output.obj
 0001:00072452       ?should_format@?$standard_base@_WV?$string_output_adapter@_W@__crt_stdio_output@@@__crt_stdio_output@@IAE_NXZ 10073452 f i libucrt:output.obj
 0001:00072455       ?should_skip_normal_state_processing@?$positional_parameter_base@DV?$stream_output_adapter@D@__crt_stdio_output@@@__crt_stdio_output@@IAE_NXZ 10073455 f i libucrt:output.obj
 0001:00072489       ?should_skip_normal_state_processing@?$positional_parameter_base@DV?$string_output_adapter@D@__crt_stdio_output@@@__crt_stdio_output@@IAE_NXZ 10073489 f i libucrt:output.obj
 0001:000724bd       ?should_skip_normal_state_processing@?$positional_parameter_base@_WV?$stream_output_adapter@_W@__crt_stdio_output@@@__crt_stdio_output@@IAE_NXZ 100734bd f i libucrt:output.obj
 0001:000724f1       ?should_skip_normal_state_processing@?$positional_parameter_base@_WV?$string_output_adapter@_W@__crt_stdio_output@@@__crt_stdio_output@@IAE_NXZ 100734f1 f i libucrt:output.obj
 0001:00072525       ?should_skip_normal_state_processing@?$standard_base@DV?$stream_output_adapter@D@__crt_stdio_output@@@__crt_stdio_output@@IAE_NXZ 10073525 f i libucrt:output.obj
 0001:00072528       ?should_skip_normal_state_processing@?$standard_base@DV?$string_output_adapter@D@__crt_stdio_output@@@__crt_stdio_output@@IAE_NXZ 10073528 f i libucrt:output.obj
 0001:0007252b       ?should_skip_normal_state_processing@?$standard_base@_WV?$stream_output_adapter@_W@__crt_stdio_output@@@__crt_stdio_output@@IAE_NXZ 1007352b f i libucrt:output.obj
 0001:0007252e       ?should_skip_normal_state_processing@?$standard_base@_WV?$string_output_adapter@_W@__crt_stdio_output@@@__crt_stdio_output@@IAE_NXZ 1007352e f i libucrt:output.obj
 0001:00072531       ?should_skip_type_state_output@?$positional_parameter_base@DV?$stream_output_adapter@D@__crt_stdio_output@@@__crt_stdio_output@@IBE_NXZ 10073531 f i libucrt:output.obj
 0001:0007254d       ?should_skip_type_state_output@?$positional_parameter_base@DV?$string_output_adapter@D@__crt_stdio_output@@@__crt_stdio_output@@IBE_NXZ 1007354d f i libucrt:output.obj
 0001:00072569       ?should_skip_type_state_output@?$positional_parameter_base@_WV?$stream_output_adapter@_W@__crt_stdio_output@@@__crt_stdio_output@@IBE_NXZ 10073569 f i libucrt:output.obj
 0001:00072585       ?should_skip_type_state_output@?$positional_parameter_base@_WV?$string_output_adapter@_W@__crt_stdio_output@@@__crt_stdio_output@@IBE_NXZ 10073585 f i libucrt:output.obj
 0001:000725a1       ?should_skip_type_state_output@?$standard_base@DV?$stream_output_adapter@D@__crt_stdio_output@@@__crt_stdio_output@@IBE_NXZ 100735a1 f i libucrt:output.obj
 0001:000725a4       ?should_skip_type_state_output@?$standard_base@DV?$string_output_adapter@D@__crt_stdio_output@@@__crt_stdio_output@@IBE_NXZ 100735a4 f i libucrt:output.obj
 0001:000725a7       ?should_skip_type_state_output@?$standard_base@_WV?$stream_output_adapter@_W@__crt_stdio_output@@@__crt_stdio_output@@IBE_NXZ 100735a7 f i libucrt:output.obj
 0001:000725aa       ?should_skip_type_state_output@?$standard_base@_WV?$string_output_adapter@_W@__crt_stdio_output@@@__crt_stdio_output@@IBE_NXZ 100735aa f i libucrt:output.obj
 0001:000725ad       ?state_case_dot@?$output_processor@DV?$stream_output_adapter@D@__crt_stdio_output@@V?$format_validation_base@DV?$stream_output_adapter@D@__crt_stdio_output@@@2@@__crt_stdio_output@@AAE_NXZ 100735ad f i libucrt:output.obj
 0001:000725b4       ?state_case_dot@?$output_processor@DV?$stream_output_adapter@D@__crt_stdio_output@@V?$positional_parameter_base@DV?$stream_output_adapter@D@__crt_stdio_output@@@2@@__crt_stdio_output@@AAE_NXZ 100735b4 f i libucrt:output.obj
 0001:000725bb       ?state_case_dot@?$output_processor@DV?$stream_output_adapter@D@__crt_stdio_output@@V?$standard_base@DV?$stream_output_adapter@D@__crt_stdio_output@@@2@@__crt_stdio_output@@AAE_NXZ 100735bb f i libucrt:output.obj
 0001:000725c2       ?state_case_dot@?$output_processor@DV?$string_output_adapter@D@__crt_stdio_output@@V?$format_validation_base@DV?$string_output_adapter@D@__crt_stdio_output@@@2@@__crt_stdio_output@@AAE_NXZ 100735c2 f i libucrt:output.obj
 0001:000725c9       ?state_case_dot@?$output_processor@DV?$string_output_adapter@D@__crt_stdio_output@@V?$positional_parameter_base@DV?$string_output_adapter@D@__crt_stdio_output@@@2@@__crt_stdio_output@@AAE_NXZ 100735c9 f i libucrt:output.obj
 0001:000725d0       ?state_case_dot@?$output_processor@DV?$string_output_adapter@D@__crt_stdio_output@@V?$standard_base@DV?$string_output_adapter@D@__crt_stdio_output@@@2@@__crt_stdio_output@@AAE_NXZ 100735d0 f i libucrt:output.obj
 0001:000725d7       ?state_case_dot@?$output_processor@_WV?$stream_output_adapter@_W@__crt_stdio_output@@V?$format_validation_base@_WV?$stream_output_adapter@_W@__crt_stdio_output@@@2@@__crt_stdio_output@@AAE_NXZ 100735d7 f i libucrt:output.obj
 0001:000725de       ?state_case_dot@?$output_processor@_WV?$stream_output_adapter@_W@__crt_stdio_output@@V?$positional_parameter_base@_WV?$stream_output_adapter@_W@__crt_stdio_output@@@2@@__crt_stdio_output@@AAE_NXZ 100735de f i libucrt:output.obj
 0001:000725e5       ?state_case_dot@?$output_processor@_WV?$stream_output_adapter@_W@__crt_stdio_output@@V?$standard_base@_WV?$stream_output_adapter@_W@__crt_stdio_output@@@2@@__crt_stdio_output@@AAE_NXZ 100735e5 f i libucrt:output.obj
 0001:000725ec       ?state_case_dot@?$output_processor@_WV?$string_output_adapter@_W@__crt_stdio_output@@V?$format_validation_base@_WV?$string_output_adapter@_W@__crt_stdio_output@@@2@@__crt_stdio_output@@AAE_NXZ 100735ec f i libucrt:output.obj
 0001:000725f3       ?state_case_dot@?$output_processor@_WV?$string_output_adapter@_W@__crt_stdio_output@@V?$positional_parameter_base@_WV?$string_output_adapter@_W@__crt_stdio_output@@@2@@__crt_stdio_output@@AAE_NXZ 100735f3 f i libucrt:output.obj
 0001:000725fa       ?state_case_dot@?$output_processor@_WV?$string_output_adapter@_W@__crt_stdio_output@@V?$standard_base@_WV?$string_output_adapter@_W@__crt_stdio_output@@@2@@__crt_stdio_output@@AAE_NXZ 100735fa f i libucrt:output.obj
 0001:00072601       ?state_case_flag@?$output_processor@DV?$stream_output_adapter@D@__crt_stdio_output@@V?$format_validation_base@DV?$stream_output_adapter@D@__crt_stdio_output@@@2@@__crt_stdio_output@@AAE_NXZ 10073601 f i libucrt:output.obj
 0001:0007264d       ?state_case_flag@?$output_processor@DV?$stream_output_adapter@D@__crt_stdio_output@@V?$positional_parameter_base@DV?$stream_output_adapter@D@__crt_stdio_output@@@2@@__crt_stdio_output@@AAE_NXZ 1007364d f i libucrt:output.obj
 0001:00072699       ?state_case_flag@?$output_processor@DV?$stream_output_adapter@D@__crt_stdio_output@@V?$standard_base@DV?$stream_output_adapter@D@__crt_stdio_output@@@2@@__crt_stdio_output@@AAE_NXZ 10073699 f i libucrt:output.obj
 0001:000726e5       ?state_case_flag@?$output_processor@DV?$string_output_adapter@D@__crt_stdio_output@@V?$format_validation_base@DV?$string_output_adapter@D@__crt_stdio_output@@@2@@__crt_stdio_output@@AAE_NXZ 100736e5 f i libucrt:output.obj
 0001:00072731       ?state_case_flag@?$output_processor@DV?$string_output_adapter@D@__crt_stdio_output@@V?$positional_parameter_base@DV?$string_output_adapter@D@__crt_stdio_output@@@2@@__crt_stdio_output@@AAE_NXZ 10073731 f i libucrt:output.obj
 0001:0007277d       ?state_case_flag@?$output_processor@DV?$string_output_adapter@D@__crt_stdio_output@@V?$standard_base@DV?$string_output_adapter@D@__crt_stdio_output@@@2@@__crt_stdio_output@@AAE_NXZ 1007377d f i libucrt:output.obj
 0001:000727c9       ?state_case_flag@?$output_processor@_WV?$stream_output_adapter@_W@__crt_stdio_output@@V?$format_validation_base@_WV?$stream_output_adapter@_W@__crt_stdio_output@@@2@@__crt_stdio_output@@AAE_NXZ 100737c9 f i libucrt:output.obj
 0001:00072815       ?state_case_flag@?$output_processor@_WV?$stream_output_adapter@_W@__crt_stdio_output@@V?$positional_parameter_base@_WV?$stream_output_adapter@_W@__crt_stdio_output@@@2@@__crt_stdio_output@@AAE_NXZ 10073815 f i libucrt:output.obj
 0001:00072861       ?state_case_flag@?$output_processor@_WV?$stream_output_adapter@_W@__crt_stdio_output@@V?$standard_base@_WV?$stream_output_adapter@_W@__crt_stdio_output@@@2@@__crt_stdio_output@@AAE_NXZ 10073861 f i libucrt:output.obj
 0001:000728ad       ?state_case_flag@?$output_processor@_WV?$string_output_adapter@_W@__crt_stdio_output@@V?$format_validation_base@_WV?$string_output_adapter@_W@__crt_stdio_output@@@2@@__crt_stdio_output@@AAE_NXZ 100738ad f i libucrt:output.obj
 0001:000728f9       ?state_case_flag@?$output_processor@_WV?$string_output_adapter@_W@__crt_stdio_output@@V?$positional_parameter_base@_WV?$string_output_adapter@_W@__crt_stdio_output@@@2@@__crt_stdio_output@@AAE_NXZ 100738f9 f i libucrt:output.obj
 0001:00072945       ?state_case_flag@?$output_processor@_WV?$string_output_adapter@_W@__crt_stdio_output@@V?$standard_base@_WV?$string_output_adapter@_W@__crt_stdio_output@@@2@@__crt_stdio_output@@AAE_NXZ 10073945 f i libucrt:output.obj
 0001:00072991       ?state_case_normal@?$output_processor@DV?$stream_output_adapter@D@__crt_stdio_output@@V?$format_validation_base@DV?$stream_output_adapter@D@__crt_stdio_output@@@2@@__crt_stdio_output@@AAE_NXZ 10073991 f i libucrt:output.obj
 0001:00072a7d       ?state_case_normal@?$output_processor@DV?$stream_output_adapter@D@__crt_stdio_output@@V?$positional_parameter_base@DV?$stream_output_adapter@D@__crt_stdio_output@@@2@@__crt_stdio_output@@AAE_NXZ 10073a7d f i libucrt:output.obj
 0001:00072b77       ?state_case_normal@?$output_processor@DV?$stream_output_adapter@D@__crt_stdio_output@@V?$standard_base@DV?$stream_output_adapter@D@__crt_stdio_output@@@2@@__crt_stdio_output@@AAE_NXZ 10073b77 f i libucrt:output.obj
 0001:00072c63       ?state_case_normal@?$output_processor@DV?$string_output_adapter@D@__crt_stdio_output@@V?$format_validation_base@DV?$string_output_adapter@D@__crt_stdio_output@@@2@@__crt_stdio_output@@AAE_NXZ 10073c63 f i libucrt:output.obj
 0001:00072d9e       ?state_case_normal@?$output_processor@DV?$string_output_adapter@D@__crt_stdio_output@@V?$positional_parameter_base@DV?$string_output_adapter@D@__crt_stdio_output@@@2@@__crt_stdio_output@@AAE_NXZ 10073d9e f i libucrt:output.obj
 0001:00072ee6       ?state_case_normal@?$output_processor@DV?$string_output_adapter@D@__crt_stdio_output@@V?$standard_base@DV?$string_output_adapter@D@__crt_stdio_output@@@2@@__crt_stdio_output@@AAE_NXZ 10073ee6 f i libucrt:output.obj
 0001:00073021       ?state_case_normal@?$output_processor@_WV?$stream_output_adapter@_W@__crt_stdio_output@@V?$format_validation_base@_WV?$stream_output_adapter@_W@__crt_stdio_output@@@2@@__crt_stdio_output@@AAE_NXZ 10074021 f i libucrt:output.obj
 0001:00073046       ?state_case_normal@?$output_processor@_WV?$stream_output_adapter@_W@__crt_stdio_output@@V?$positional_parameter_base@_WV?$stream_output_adapter@_W@__crt_stdio_output@@@2@@__crt_stdio_output@@AAE_NXZ 10074046 f i libucrt:output.obj
 0001:0007307e       ?state_case_normal@?$output_processor@_WV?$stream_output_adapter@_W@__crt_stdio_output@@V?$standard_base@_WV?$stream_output_adapter@_W@__crt_stdio_output@@@2@@__crt_stdio_output@@AAE_NXZ 1007407e f i libucrt:output.obj
 0001:000730a3       ?state_case_normal@?$output_processor@_WV?$string_output_adapter@_W@__crt_stdio_output@@V?$format_validation_base@_WV?$string_output_adapter@_W@__crt_stdio_output@@@2@@__crt_stdio_output@@AAE_NXZ 100740a3 f i libucrt:output.obj
 0001:000730fd       ?state_case_normal@?$output_processor@_WV?$string_output_adapter@_W@__crt_stdio_output@@V?$positional_parameter_base@_WV?$string_output_adapter@_W@__crt_stdio_output@@@2@@__crt_stdio_output@@AAE_NXZ 100740fd f i libucrt:output.obj
 0001:00073164       ?state_case_normal@?$output_processor@_WV?$string_output_adapter@_W@__crt_stdio_output@@V?$standard_base@_WV?$string_output_adapter@_W@__crt_stdio_output@@@2@@__crt_stdio_output@@AAE_NXZ 10074164 f i libucrt:output.obj
 0001:000731be       ?state_case_normal_common@?$output_processor@DV?$stream_output_adapter@D@__crt_stdio_output@@V?$format_validation_base@DV?$stream_output_adapter@D@__crt_stdio_output@@@2@@__crt_stdio_output@@AAE_NXZ 100741be f i libucrt:output.obj
 0001:0007327c       ?state_case_normal_common@?$output_processor@DV?$stream_output_adapter@D@__crt_stdio_output@@V?$positional_parameter_base@DV?$stream_output_adapter@D@__crt_stdio_output@@@2@@__crt_stdio_output@@AAE_NXZ 1007427c f i libucrt:output.obj
 0001:0007333a       ?state_case_normal_common@?$output_processor@DV?$stream_output_adapter@D@__crt_stdio_output@@V?$standard_base@DV?$stream_output_adapter@D@__crt_stdio_output@@@2@@__crt_stdio_output@@AAE_NXZ 1007433a f i libucrt:output.obj
 0001:000733f8       ?state_case_normal_common@?$output_processor@DV?$string_output_adapter@D@__crt_stdio_output@@V?$format_validation_base@DV?$string_output_adapter@D@__crt_stdio_output@@@2@@__crt_stdio_output@@AAE_NXZ 100743f8 f i libucrt:output.obj
 0001:00073510       ?state_case_normal_common@?$output_processor@DV?$string_output_adapter@D@__crt_stdio_output@@V?$positional_parameter_base@DV?$string_output_adapter@D@__crt_stdio_output@@@2@@__crt_stdio_output@@AAE_NXZ 10074510 f i libucrt:output.obj
 0001:00073628       ?state_case_normal_common@?$output_processor@DV?$string_output_adapter@D@__crt_stdio_output@@V?$standard_base@DV?$string_output_adapter@D@__crt_stdio_output@@@2@@__crt_stdio_output@@AAE_NXZ 10074628 f i libucrt:output.obj
 0001:00073740       ?state_case_normal_common@?$output_processor@_WV?$stream_output_adapter@_W@__crt_stdio_output@@V?$format_validation_base@_WV?$stream_output_adapter@_W@__crt_stdio_output@@@2@@__crt_stdio_output@@AAE_NXZ 10074740 f i libucrt:output.obj
 0001:00073765       ?state_case_normal_common@?$output_processor@_WV?$stream_output_adapter@_W@__crt_stdio_output@@V?$positional_parameter_base@_WV?$stream_output_adapter@_W@__crt_stdio_output@@@2@@__crt_stdio_output@@AAE_NXZ 10074765 f i libucrt:output.obj
 0001:0007378a       ?state_case_normal_common@?$output_processor@_WV?$stream_output_adapter@_W@__crt_stdio_output@@V?$standard_base@_WV?$stream_output_adapter@_W@__crt_stdio_output@@@2@@__crt_stdio_output@@AAE_NXZ 1007478a f i libucrt:output.obj
 0001:000737af       ?state_case_normal_common@?$output_processor@_WV?$string_output_adapter@_W@__crt_stdio_output@@V?$format_validation_base@_WV?$string_output_adapter@_W@__crt_stdio_output@@@2@@__crt_stdio_output@@AAE_NXZ 100747af f i libucrt:output.obj
 0001:00073809       ?state_case_normal_common@?$output_processor@_WV?$string_output_adapter@_W@__crt_stdio_output@@V?$positional_parameter_base@_WV?$string_output_adapter@_W@__crt_stdio_output@@@2@@__crt_stdio_output@@AAE_NXZ 10074809 f i libucrt:output.obj
 0001:00073863       ?state_case_normal_common@?$output_processor@_WV?$string_output_adapter@_W@__crt_stdio_output@@V?$standard_base@_WV?$string_output_adapter@_W@__crt_stdio_output@@@2@@__crt_stdio_output@@AAE_NXZ 10074863 f i libucrt:output.obj
 0001:000738bd       ?state_case_normal_tchar@?$output_processor@DV?$stream_output_adapter@D@__crt_stdio_output@@V?$format_validation_base@DV?$stream_output_adapter@D@__crt_stdio_output@@@2@@__crt_stdio_output@@AAE_ND@Z 100748bd f i libucrt:output.obj
 0001:00073965       ?state_case_normal_tchar@?$output_processor@DV?$stream_output_adapter@D@__crt_stdio_output@@V?$positional_parameter_base@DV?$stream_output_adapter@D@__crt_stdio_output@@@2@@__crt_stdio_output@@AAE_ND@Z 10074965 f i libucrt:output.obj
 0001:00073a0d       ?state_case_normal_tchar@?$output_processor@DV?$stream_output_adapter@D@__crt_stdio_output@@V?$standard_base@DV?$stream_output_adapter@D@__crt_stdio_output@@@2@@__crt_stdio_output@@AAE_ND@Z 10074a0d f i libucrt:output.obj
 0001:00073ab5       ?state_case_normal_tchar@?$output_processor@DV?$string_output_adapter@D@__crt_stdio_output@@V?$format_validation_base@DV?$string_output_adapter@D@__crt_stdio_output@@@2@@__crt_stdio_output@@AAE_ND@Z 10074ab5 f i libucrt:output.obj
 0001:00073b8a       ?state_case_normal_tchar@?$output_processor@DV?$string_output_adapter@D@__crt_stdio_output@@V?$positional_parameter_base@DV?$string_output_adapter@D@__crt_stdio_output@@@2@@__crt_stdio_output@@AAE_ND@Z 10074b8a f i libucrt:output.obj
 0001:00073c5f       ?state_case_normal_tchar@?$output_processor@DV?$string_output_adapter@D@__crt_stdio_output@@V?$standard_base@DV?$string_output_adapter@D@__crt_stdio_output@@@2@@__crt_stdio_output@@AAE_ND@Z 10074c5f f i libucrt:output.obj
 0001:00073d34       ?state_case_normal_tchar@?$output_processor@_WV?$stream_output_adapter@_W@__crt_stdio_output@@V?$format_validation_base@_WV?$stream_output_adapter@_W@__crt_stdio_output@@@2@@__crt_stdio_output@@AAE_N_W@Z 10074d34 f i libucrt:output.obj
 0001:00073d3f       ?state_case_normal_tchar@?$output_processor@_WV?$stream_output_adapter@_W@__crt_stdio_output@@V?$positional_parameter_base@_WV?$stream_output_adapter@_W@__crt_stdio_output@@@2@@__crt_stdio_output@@AAE_N_W@Z 10074d3f f i libucrt:output.obj
 0001:00073d4a       ?state_case_normal_tchar@?$output_processor@_WV?$stream_output_adapter@_W@__crt_stdio_output@@V?$standard_base@_WV?$stream_output_adapter@_W@__crt_stdio_output@@@2@@__crt_stdio_output@@AAE_N_W@Z 10074d4a f i libucrt:output.obj
 0001:00073d55       ?state_case_normal_tchar@?$output_processor@_WV?$string_output_adapter@_W@__crt_stdio_output@@V?$format_validation_base@_WV?$string_output_adapter@_W@__crt_stdio_output@@@2@@__crt_stdio_output@@AAE_N_W@Z 10074d55 f i libucrt:output.obj
 0001:00073d60       ?state_case_normal_tchar@?$output_processor@_WV?$string_output_adapter@_W@__crt_stdio_output@@V?$positional_parameter_base@_WV?$string_output_adapter@_W@__crt_stdio_output@@@2@@__crt_stdio_output@@AAE_N_W@Z 10074d60 f i libucrt:output.obj
 0001:00073d6b       ?state_case_normal_tchar@?$output_processor@_WV?$string_output_adapter@_W@__crt_stdio_output@@V?$standard_base@_WV?$string_output_adapter@_W@__crt_stdio_output@@@2@@__crt_stdio_output@@AAE_N_W@Z 10074d6b f i libucrt:output.obj
 0001:00073d76       ?state_case_percent@?$output_processor@DV?$stream_output_adapter@D@__crt_stdio_output@@V?$format_validation_base@DV?$stream_output_adapter@D@__crt_stdio_output@@@2@@__crt_stdio_output@@AAE_NXZ 10074d76 f i libucrt:output.obj
 0001:00073d94       ?state_case_percent@?$output_processor@DV?$stream_output_adapter@D@__crt_stdio_output@@V?$positional_parameter_base@DV?$stream_output_adapter@D@__crt_stdio_output@@@2@@__crt_stdio_output@@AAE_NXZ 10074d94 f i libucrt:output.obj
 0001:00073db2       ?state_case_percent@?$output_processor@DV?$stream_output_adapter@D@__crt_stdio_output@@V?$standard_base@DV?$stream_output_adapter@D@__crt_stdio_output@@@2@@__crt_stdio_output@@AAE_NXZ 10074db2 f i libucrt:output.obj
 0001:00073dd0       ?state_case_percent@?$output_processor@DV?$string_output_adapter@D@__crt_stdio_output@@V?$format_validation_base@DV?$string_output_adapter@D@__crt_stdio_output@@@2@@__crt_stdio_output@@AAE_NXZ 10074dd0 f i libucrt:output.obj
 0001:00073dee       ?state_case_percent@?$output_processor@DV?$string_output_adapter@D@__crt_stdio_output@@V?$positional_parameter_base@DV?$string_output_adapter@D@__crt_stdio_output@@@2@@__crt_stdio_output@@AAE_NXZ 10074dee f i libucrt:output.obj
 0001:00073e0c       ?state_case_percent@?$output_processor@DV?$string_output_adapter@D@__crt_stdio_output@@V?$standard_base@DV?$string_output_adapter@D@__crt_stdio_output@@@2@@__crt_stdio_output@@AAE_NXZ 10074e0c f i libucrt:output.obj
 0001:00073e2a       ?state_case_percent@?$output_processor@_WV?$stream_output_adapter@_W@__crt_stdio_output@@V?$format_validation_base@_WV?$stream_output_adapter@_W@__crt_stdio_output@@@2@@__crt_stdio_output@@AAE_NXZ 10074e2a f i libucrt:output.obj
 0001:00073e48       ?state_case_percent@?$output_processor@_WV?$stream_output_adapter@_W@__crt_stdio_output@@V?$positional_parameter_base@_WV?$stream_output_adapter@_W@__crt_stdio_output@@@2@@__crt_stdio_output@@AAE_NXZ 10074e48 f i libucrt:output.obj
 0001:00073e66       ?state_case_percent@?$output_processor@_WV?$stream_output_adapter@_W@__crt_stdio_output@@V?$standard_base@_WV?$stream_output_adapter@_W@__crt_stdio_output@@@2@@__crt_stdio_output@@AAE_NXZ 10074e66 f i libucrt:output.obj
 0001:00073e84       ?state_case_percent@?$output_processor@_WV?$string_output_adapter@_W@__crt_stdio_output@@V?$format_validation_base@_WV?$string_output_adapter@_W@__crt_stdio_output@@@2@@__crt_stdio_output@@AAE_NXZ 10074e84 f i libucrt:output.obj
 0001:00073ea2       ?state_case_percent@?$output_processor@_WV?$string_output_adapter@_W@__crt_stdio_output@@V?$positional_parameter_base@_WV?$string_output_adapter@_W@__crt_stdio_output@@@2@@__crt_stdio_output@@AAE_NXZ 10074ea2 f i libucrt:output.obj
 0001:00073ec0       ?state_case_percent@?$output_processor@_WV?$string_output_adapter@_W@__crt_stdio_output@@V?$standard_base@_WV?$string_output_adapter@_W@__crt_stdio_output@@@2@@__crt_stdio_output@@AAE_NXZ 10074ec0 f i libucrt:output.obj
 0001:00073ede       ?state_case_precision@?$output_processor@DV?$stream_output_adapter@D@__crt_stdio_output@@V?$format_validation_base@DV?$stream_output_adapter@D@__crt_stdio_output@@@2@@__crt_stdio_output@@AAE_NXZ 10074ede f i libucrt:output.obj
 0001:00073f15       ?state_case_precision@?$output_processor@DV?$stream_output_adapter@D@__crt_stdio_output@@V?$positional_parameter_base@DV?$stream_output_adapter@D@__crt_stdio_output@@@2@@__crt_stdio_output@@AAE_NXZ 10074f15 f i libucrt:output.obj
 0001:00073f5d       ?state_case_precision@?$output_processor@DV?$stream_output_adapter@D@__crt_stdio_output@@V?$standard_base@DV?$stream_output_adapter@D@__crt_stdio_output@@@2@@__crt_stdio_output@@AAE_NXZ 10074f5d f i libucrt:output.obj
 0001:00073f94       ?state_case_precision@?$output_processor@DV?$string_output_adapter@D@__crt_stdio_output@@V?$format_validation_base@DV?$string_output_adapter@D@__crt_stdio_output@@@2@@__crt_stdio_output@@AAE_NXZ 10074f94 f i libucrt:output.obj
 0001:00073fcb       ?state_case_precision@?$output_processor@DV?$string_output_adapter@D@__crt_stdio_output@@V?$positional_parameter_base@DV?$string_output_adapter@D@__crt_stdio_output@@@2@@__crt_stdio_output@@AAE_NXZ 10074fcb f i libucrt:output.obj
 0001:00074013       ?state_case_precision@?$output_processor@DV?$string_output_adapter@D@__crt_stdio_output@@V?$standard_base@DV?$string_output_adapter@D@__crt_stdio_output@@@2@@__crt_stdio_output@@AAE_NXZ 10075013 f i libucrt:output.obj
 0001:0007404a       ?state_case_precision@?$output_processor@_WV?$stream_output_adapter@_W@__crt_stdio_output@@V?$format_validation_base@_WV?$stream_output_adapter@_W@__crt_stdio_output@@@2@@__crt_stdio_output@@AAE_NXZ 1007504a f i libucrt:output.obj
 0001:00074082       ?state_case_precision@?$output_processor@_WV?$stream_output_adapter@_W@__crt_stdio_output@@V?$positional_parameter_base@_WV?$stream_output_adapter@_W@__crt_stdio_output@@@2@@__crt_stdio_output@@AAE_NXZ 10075082 f i libucrt:output.obj
 0001:000740cb       ?state_case_precision@?$output_processor@_WV?$stream_output_adapter@_W@__crt_stdio_output@@V?$standard_base@_WV?$stream_output_adapter@_W@__crt_stdio_output@@@2@@__crt_stdio_output@@AAE_NXZ 100750cb f i libucrt:output.obj
 0001:00074103       ?state_case_precision@?$output_processor@_WV?$string_output_adapter@_W@__crt_stdio_output@@V?$format_validation_base@_WV?$string_output_adapter@_W@__crt_stdio_output@@@2@@__crt_stdio_output@@AAE_NXZ 10075103 f i libucrt:output.obj
 0001:0007413b       ?state_case_precision@?$output_processor@_WV?$string_output_adapter@_W@__crt_stdio_output@@V?$positional_parameter_base@_WV?$string_output_adapter@_W@__crt_stdio_output@@@2@@__crt_stdio_output@@AAE_NXZ 1007513b f i libucrt:output.obj
 0001:00074184       ?state_case_precision@?$output_processor@_WV?$string_output_adapter@_W@__crt_stdio_output@@V?$standard_base@_WV?$string_output_adapter@_W@__crt_stdio_output@@@2@@__crt_stdio_output@@AAE_NXZ 10075184 f i libucrt:output.obj
 0001:000741bc       ?state_case_size@?$output_processor@DV?$stream_output_adapter@D@__crt_stdio_output@@V?$format_validation_base@DV?$stream_output_adapter@D@__crt_stdio_output@@@2@@__crt_stdio_output@@AAE_NXZ 100751bc f i libucrt:output.obj
 0001:0007436b       ?state_case_size@?$output_processor@DV?$stream_output_adapter@D@__crt_stdio_output@@V?$positional_parameter_base@DV?$stream_output_adapter@D@__crt_stdio_output@@@2@@__crt_stdio_output@@AAE_NXZ 1007536b f i libucrt:output.obj
 0001:0007451a       ?state_case_size@?$output_processor@DV?$stream_output_adapter@D@__crt_stdio_output@@V?$standard_base@DV?$stream_output_adapter@D@__crt_stdio_output@@@2@@__crt_stdio_output@@AAE_NXZ 1007551a f i libucrt:output.obj
 0001:000746c9       ?state_case_size@?$output_processor@DV?$string_output_adapter@D@__crt_stdio_output@@V?$format_validation_base@DV?$string_output_adapter@D@__crt_stdio_output@@@2@@__crt_stdio_output@@AAE_NXZ 100756c9 f i libucrt:output.obj
 0001:00074878       ?state_case_size@?$output_processor@DV?$string_output_adapter@D@__crt_stdio_output@@V?$positional_parameter_base@DV?$string_output_adapter@D@__crt_stdio_output@@@2@@__crt_stdio_output@@AAE_NXZ 10075878 f i libucrt:output.obj
 0001:00074a27       ?state_case_size@?$output_processor@DV?$string_output_adapter@D@__crt_stdio_output@@V?$standard_base@DV?$string_output_adapter@D@__crt_stdio_output@@@2@@__crt_stdio_output@@AAE_NXZ 10075a27 f i libucrt:output.obj
 0001:00074bd6       ?state_case_size@?$output_processor@_WV?$stream_output_adapter@_W@__crt_stdio_output@@V?$format_validation_base@_WV?$stream_output_adapter@_W@__crt_stdio_output@@@2@@__crt_stdio_output@@AAE_NXZ 10075bd6 f i libucrt:output.obj
 0001:00074dc2       ?state_case_size@?$output_processor@_WV?$stream_output_adapter@_W@__crt_stdio_output@@V?$positional_parameter_base@_WV?$stream_output_adapter@_W@__crt_stdio_output@@@2@@__crt_stdio_output@@AAE_NXZ 10075dc2 f i libucrt:output.obj
 0001:00074fae       ?state_case_size@?$output_processor@_WV?$stream_output_adapter@_W@__crt_stdio_output@@V?$standard_base@_WV?$stream_output_adapter@_W@__crt_stdio_output@@@2@@__crt_stdio_output@@AAE_NXZ 10075fae f i libucrt:output.obj
 0001:0007519a       ?state_case_size@?$output_processor@_WV?$string_output_adapter@_W@__crt_stdio_output@@V?$format_validation_base@_WV?$string_output_adapter@_W@__crt_stdio_output@@@2@@__crt_stdio_output@@AAE_NXZ 1007619a f i libucrt:output.obj
 0001:00075386       ?state_case_size@?$output_processor@_WV?$string_output_adapter@_W@__crt_stdio_output@@V?$positional_parameter_base@_WV?$string_output_adapter@_W@__crt_stdio_output@@@2@@__crt_stdio_output@@AAE_NXZ 10076386 f i libucrt:output.obj
 0001:00075572       ?state_case_size@?$output_processor@_WV?$string_output_adapter@_W@__crt_stdio_output@@V?$standard_base@_WV?$string_output_adapter@_W@__crt_stdio_output@@@2@@__crt_stdio_output@@AAE_NXZ 10076572 f i libucrt:output.obj
 0001:0007575e       ?state_case_type@?$output_processor@DV?$stream_output_adapter@D@__crt_stdio_output@@V?$format_validation_base@DV?$stream_output_adapter@D@__crt_stdio_output@@@2@@__crt_stdio_output@@AAE_NXZ 1007675e f i libucrt:output.obj
 0001:00075b70       ?state_case_type@?$output_processor@DV?$stream_output_adapter@D@__crt_stdio_output@@V?$positional_parameter_base@DV?$stream_output_adapter@D@__crt_stdio_output@@@2@@__crt_stdio_output@@AAE_NXZ 10076b70 f i libucrt:output.obj
 0001:00075f95       ?state_case_type@?$output_processor@DV?$stream_output_adapter@D@__crt_stdio_output@@V?$standard_base@DV?$stream_output_adapter@D@__crt_stdio_output@@@2@@__crt_stdio_output@@AAE_NXZ 10076f95 f i libucrt:output.obj
 0001:000763a7       ?state_case_type@?$output_processor@DV?$string_output_adapter@D@__crt_stdio_output@@V?$format_validation_base@DV?$string_output_adapter@D@__crt_stdio_output@@@2@@__crt_stdio_output@@AAE_NXZ 100773a7 f i libucrt:output.obj
 0001:000767dd       ?state_case_type@?$output_processor@DV?$string_output_adapter@D@__crt_stdio_output@@V?$positional_parameter_base@DV?$string_output_adapter@D@__crt_stdio_output@@@2@@__crt_stdio_output@@AAE_NXZ 100777dd f i libucrt:output.obj
 0001:00076c26       ?state_case_type@?$output_processor@DV?$string_output_adapter@D@__crt_stdio_output@@V?$standard_base@DV?$string_output_adapter@D@__crt_stdio_output@@@2@@__crt_stdio_output@@AAE_NXZ 10077c26 f i libucrt:output.obj
 0001:0007705c       ?state_case_type@?$output_processor@_WV?$stream_output_adapter@_W@__crt_stdio_output@@V?$format_validation_base@_WV?$stream_output_adapter@_W@__crt_stdio_output@@@2@@__crt_stdio_output@@AAE_NXZ 1007805c f i libucrt:output.obj
 0001:00077491       ?state_case_type@?$output_processor@_WV?$stream_output_adapter@_W@__crt_stdio_output@@V?$positional_parameter_base@_WV?$stream_output_adapter@_W@__crt_stdio_output@@@2@@__crt_stdio_output@@AAE_NXZ 10078491 f i libucrt:output.obj
 0001:000778d9       ?state_case_type@?$output_processor@_WV?$stream_output_adapter@_W@__crt_stdio_output@@V?$standard_base@_WV?$stream_output_adapter@_W@__crt_stdio_output@@@2@@__crt_stdio_output@@AAE_NXZ 100788d9 f i libucrt:output.obj
 0001:00077d0e       ?state_case_type@?$output_processor@_WV?$string_output_adapter@_W@__crt_stdio_output@@V?$format_validation_base@_WV?$string_output_adapter@_W@__crt_stdio_output@@@2@@__crt_stdio_output@@AAE_NXZ 10078d0e f i libucrt:output.obj
 0001:000781ff       ?state_case_type@?$output_processor@_WV?$string_output_adapter@_W@__crt_stdio_output@@V?$positional_parameter_base@_WV?$string_output_adapter@_W@__crt_stdio_output@@@2@@__crt_stdio_output@@AAE_NXZ 100791ff f i libucrt:output.obj
 0001:00078702       ?state_case_type@?$output_processor@_WV?$string_output_adapter@_W@__crt_stdio_output@@V?$standard_base@_WV?$string_output_adapter@_W@__crt_stdio_output@@@2@@__crt_stdio_output@@AAE_NXZ 10079702 f i libucrt:output.obj
 0001:00078bf3       ?state_case_width@?$output_processor@DV?$stream_output_adapter@D@__crt_stdio_output@@V?$format_validation_base@DV?$stream_output_adapter@D@__crt_stdio_output@@@2@@__crt_stdio_output@@AAE_NXZ 10079bf3 f i libucrt:output.obj
 0001:00078c30       ?state_case_width@?$output_processor@DV?$stream_output_adapter@D@__crt_stdio_output@@V?$positional_parameter_base@DV?$stream_output_adapter@D@__crt_stdio_output@@@2@@__crt_stdio_output@@AAE_NXZ 10079c30 f i libucrt:output.obj
 0001:00078c80       ?state_case_width@?$output_processor@DV?$stream_output_adapter@D@__crt_stdio_output@@V?$standard_base@DV?$stream_output_adapter@D@__crt_stdio_output@@@2@@__crt_stdio_output@@AAE_NXZ 10079c80 f i libucrt:output.obj
 0001:00078cbd       ?state_case_width@?$output_processor@DV?$string_output_adapter@D@__crt_stdio_output@@V?$format_validation_base@DV?$string_output_adapter@D@__crt_stdio_output@@@2@@__crt_stdio_output@@AAE_NXZ 10079cbd f i libucrt:output.obj
 0001:00078cfa       ?state_case_width@?$output_processor@DV?$string_output_adapter@D@__crt_stdio_output@@V?$positional_parameter_base@DV?$string_output_adapter@D@__crt_stdio_output@@@2@@__crt_stdio_output@@AAE_NXZ 10079cfa f i libucrt:output.obj
 0001:00078d4a       ?state_case_width@?$output_processor@DV?$string_output_adapter@D@__crt_stdio_output@@V?$standard_base@DV?$string_output_adapter@D@__crt_stdio_output@@@2@@__crt_stdio_output@@AAE_NXZ 10079d4a f i libucrt:output.obj
 0001:00078d87       ?state_case_width@?$output_processor@_WV?$stream_output_adapter@_W@__crt_stdio_output@@V?$format_validation_base@_WV?$stream_output_adapter@_W@__crt_stdio_output@@@2@@__crt_stdio_output@@AAE_NXZ 10079d87 f i libucrt:output.obj
 0001:00078dc5       ?state_case_width@?$output_processor@_WV?$stream_output_adapter@_W@__crt_stdio_output@@V?$positional_parameter_base@_WV?$stream_output_adapter@_W@__crt_stdio_output@@@2@@__crt_stdio_output@@AAE_NXZ 10079dc5 f i libucrt:output.obj
 0001:00078e16       ?state_case_width@?$output_processor@_WV?$stream_output_adapter@_W@__crt_stdio_output@@V?$standard_base@_WV?$stream_output_adapter@_W@__crt_stdio_output@@@2@@__crt_stdio_output@@AAE_NXZ 10079e16 f i libucrt:output.obj
 0001:00078e54       ?state_case_width@?$output_processor@_WV?$string_output_adapter@_W@__crt_stdio_output@@V?$format_validation_base@_WV?$string_output_adapter@_W@__crt_stdio_output@@@2@@__crt_stdio_output@@AAE_NXZ 10079e54 f i libucrt:output.obj
 0001:00078e92       ?state_case_width@?$output_processor@_WV?$string_output_adapter@_W@__crt_stdio_output@@V?$positional_parameter_base@_WV?$string_output_adapter@_W@__crt_stdio_output@@@2@@__crt_stdio_output@@AAE_NXZ 10079e92 f i libucrt:output.obj
 0001:00078ee3       ?state_case_width@?$output_processor@_WV?$string_output_adapter@_W@__crt_stdio_output@@V?$standard_base@_WV?$string_output_adapter@_W@__crt_stdio_output@@@2@@__crt_stdio_output@@AAE_NXZ 10079ee3 f i libucrt:output.obj
 0001:00078f21       ?state_count@?$format_validation_base@DV?$stream_output_adapter@D@__crt_stdio_output@@@__crt_stdio_output@@KAIXZ 10079f21 f i libucrt:output.obj
 0001:00078f25       ?state_count@?$format_validation_base@DV?$string_output_adapter@D@__crt_stdio_output@@@__crt_stdio_output@@KAIXZ 10079f25 f i libucrt:output.obj
 0001:00078f29       ?state_count@?$format_validation_base@_WV?$stream_output_adapter@_W@__crt_stdio_output@@@__crt_stdio_output@@KAIXZ 10079f29 f i libucrt:output.obj
 0001:00078f2d       ?state_count@?$format_validation_base@_WV?$string_output_adapter@_W@__crt_stdio_output@@@__crt_stdio_output@@KAIXZ 10079f2d f i libucrt:output.obj
 0001:00078f31       ?state_count@?$standard_base@DV?$stream_output_adapter@D@__crt_stdio_output@@@__crt_stdio_output@@KAIXZ 10079f31 f i libucrt:output.obj
 0001:00078f35       ?state_count@?$standard_base@DV?$string_output_adapter@D@__crt_stdio_output@@@__crt_stdio_output@@KAIXZ 10079f35 f i libucrt:output.obj
 0001:00078f39       ?state_count@?$standard_base@_WV?$stream_output_adapter@_W@__crt_stdio_output@@@__crt_stdio_output@@KAIXZ 10079f39 f i libucrt:output.obj
 0001:00078f3d       ?state_count@?$standard_base@_WV?$string_output_adapter@_W@__crt_stdio_output@@@__crt_stdio_output@@KAIXZ 10079f3d f i libucrt:output.obj
 0001:00078f41       ?state_transition_table@?$format_validation_base@DV?$stream_output_adapter@D@__crt_stdio_output@@@__crt_stdio_output@@KAABV?$spectre_mitigated_lookup_table@Ustate_transition_pair@__crt_stdio_output@@$0IA@@2@XZ 10079f41 f i libucrt:output.obj
 0001:00078f47       ?state_transition_table@?$format_validation_base@DV?$string_output_adapter@D@__crt_stdio_output@@@__crt_stdio_output@@KAABV?$spectre_mitigated_lookup_table@Ustate_transition_pair@__crt_stdio_output@@$0IA@@2@XZ 10079f47 f i libucrt:output.obj
 0001:00078f4d       ?state_transition_table@?$format_validation_base@_WV?$stream_output_adapter@_W@__crt_stdio_output@@@__crt_stdio_output@@KAABV?$spectre_mitigated_lookup_table@Ustate_transition_pair@__crt_stdio_output@@$0IA@@2@XZ 10079f4d f i libucrt:output.obj
 0001:00078f53       ?state_transition_table@?$format_validation_base@_WV?$string_output_adapter@_W@__crt_stdio_output@@@__crt_stdio_output@@KAABV?$spectre_mitigated_lookup_table@Ustate_transition_pair@__crt_stdio_output@@$0IA@@2@XZ 10079f53 f i libucrt:output.obj
 0001:00078f59       ?state_transition_table@?$standard_base@DV?$stream_output_adapter@D@__crt_stdio_output@@@__crt_stdio_output@@KAABV?$spectre_mitigated_lookup_table@Ustate_transition_pair@__crt_stdio_output@@$0IA@@2@XZ 10079f59 f i libucrt:output.obj
 0001:00078f5f       ?state_transition_table@?$standard_base@DV?$string_output_adapter@D@__crt_stdio_output@@@__crt_stdio_output@@KAABV?$spectre_mitigated_lookup_table@Ustate_transition_pair@__crt_stdio_output@@$0IA@@2@XZ 10079f5f f i libucrt:output.obj
 0001:00078f65       ?state_transition_table@?$standard_base@_WV?$stream_output_adapter@_W@__crt_stdio_output@@@__crt_stdio_output@@KAABV?$spectre_mitigated_lookup_table@Ustate_transition_pair@__crt_stdio_output@@$0IA@@2@XZ 10079f65 f i libucrt:output.obj
 0001:00078f6b       ?state_transition_table@?$standard_base@_WV?$string_output_adapter@_W@__crt_stdio_output@@@__crt_stdio_output@@KAABV?$spectre_mitigated_lookup_table@Ustate_transition_pair@__crt_stdio_output@@$0IA@@2@XZ 10079f6b f i libucrt:output.obj
 0001:00078f71       ?tchar_string@?$common_data@D@__crt_stdio_output@@IAEAAPADD@Z 10079f71 f i libucrt:output.obj
 0001:00078f77       ?tchar_string@?$common_data@D@__crt_stdio_output@@IAEAAPADXZ 10079f77 f i libucrt:output.obj
 0001:00078f7b       ?tchar_string@?$common_data@_W@__crt_stdio_output@@IAEAAPA_WXZ 10079f7b f i libucrt:output.obj
 0001:00078f7f       ?tchar_string@?$common_data@_W@__crt_stdio_output@@IAEAAPA_W_W@Z 10079f7f f i libucrt:output.obj
 0001:00078f85       ?to_integer_size@__crt_stdio_output@@YAIW4length_modifier@1@@Z 10079f85 f i libucrt:output.obj
 0001:00078fee       ?type_case_X@?$output_processor@DV?$stream_output_adapter@D@__crt_stdio_output@@V?$format_validation_base@DV?$stream_output_adapter@D@__crt_stdio_output@@@2@@__crt_stdio_output@@AAE_NXZ 10079fee f i libucrt:output.obj
 0001:00078ff8       ?type_case_X@?$output_processor@DV?$stream_output_adapter@D@__crt_stdio_output@@V?$positional_parameter_base@DV?$stream_output_adapter@D@__crt_stdio_output@@@2@@__crt_stdio_output@@AAE_NXZ 10079ff8 f i libucrt:output.obj
 0001:00079002       ?type_case_X@?$output_processor@DV?$stream_output_adapter@D@__crt_stdio_output@@V?$standard_base@DV?$stream_output_adapter@D@__crt_stdio_output@@@2@@__crt_stdio_output@@AAE_NXZ 1007a002 f i libucrt:output.obj
 0001:0007900c       ?type_case_X@?$output_processor@DV?$string_output_adapter@D@__crt_stdio_output@@V?$format_validation_base@DV?$string_output_adapter@D@__crt_stdio_output@@@2@@__crt_stdio_output@@AAE_NXZ 1007a00c f i libucrt:output.obj
 0001:00079016       ?type_case_X@?$output_processor@DV?$string_output_adapter@D@__crt_stdio_output@@V?$positional_parameter_base@DV?$string_output_adapter@D@__crt_stdio_output@@@2@@__crt_stdio_output@@AAE_NXZ 1007a016 f i libucrt:output.obj
 0001:00079020       ?type_case_X@?$output_processor@DV?$string_output_adapter@D@__crt_stdio_output@@V?$standard_base@DV?$string_output_adapter@D@__crt_stdio_output@@@2@@__crt_stdio_output@@AAE_NXZ 1007a020 f i libucrt:output.obj
 0001:0007902a       ?type_case_X@?$output_processor@_WV?$stream_output_adapter@_W@__crt_stdio_output@@V?$format_validation_base@_WV?$stream_output_adapter@_W@__crt_stdio_output@@@2@@__crt_stdio_output@@AAE_NXZ 1007a02a f i libucrt:output.obj
 0001:00079034       ?type_case_X@?$output_processor@_WV?$stream_output_adapter@_W@__crt_stdio_output@@V?$positional_parameter_base@_WV?$stream_output_adapter@_W@__crt_stdio_output@@@2@@__crt_stdio_output@@AAE_NXZ 1007a034 f i libucrt:output.obj
 0001:0007903e       ?type_case_X@?$output_processor@_WV?$stream_output_adapter@_W@__crt_stdio_output@@V?$standard_base@_WV?$stream_output_adapter@_W@__crt_stdio_output@@@2@@__crt_stdio_output@@AAE_NXZ 1007a03e f i libucrt:output.obj
 0001:00079048       ?type_case_X@?$output_processor@_WV?$string_output_adapter@_W@__crt_stdio_output@@V?$format_validation_base@_WV?$string_output_adapter@_W@__crt_stdio_output@@@2@@__crt_stdio_output@@AAE_NXZ 1007a048 f i libucrt:output.obj
 0001:00079052       ?type_case_X@?$output_processor@_WV?$string_output_adapter@_W@__crt_stdio_output@@V?$positional_parameter_base@_WV?$string_output_adapter@_W@__crt_stdio_output@@@2@@__crt_stdio_output@@AAE_NXZ 1007a052 f i libucrt:output.obj
 0001:0007905c       ?type_case_X@?$output_processor@_WV?$string_output_adapter@_W@__crt_stdio_output@@V?$standard_base@_WV?$string_output_adapter@_W@__crt_stdio_output@@@2@@__crt_stdio_output@@AAE_NXZ 1007a05c f i libucrt:output.obj
 0001:00079066       ?type_case_Z@?$output_processor@DV?$stream_output_adapter@D@__crt_stdio_output@@V?$format_validation_base@DV?$stream_output_adapter@D@__crt_stdio_output@@@2@@__crt_stdio_output@@AAE_NXZ 1007a066 f i libucrt:output.obj
 0001:000790e1       ?type_case_Z@?$output_processor@DV?$stream_output_adapter@D@__crt_stdio_output@@V?$positional_parameter_base@DV?$stream_output_adapter@D@__crt_stdio_output@@@2@@__crt_stdio_output@@AAE_NXZ 1007a0e1 f i libucrt:output.obj
 0001:00079179       ?type_case_Z@?$output_processor@DV?$stream_output_adapter@D@__crt_stdio_output@@V?$standard_base@DV?$stream_output_adapter@D@__crt_stdio_output@@@2@@__crt_stdio_output@@AAE_NXZ 1007a179 f i libucrt:output.obj
 0001:000791f4       ?type_case_Z@?$output_processor@DV?$string_output_adapter@D@__crt_stdio_output@@V?$format_validation_base@DV?$string_output_adapter@D@__crt_stdio_output@@@2@@__crt_stdio_output@@AAE_NXZ 1007a1f4 f i libucrt:output.obj
 0001:0007926f       ?type_case_Z@?$output_processor@DV?$string_output_adapter@D@__crt_stdio_output@@V?$positional_parameter_base@DV?$string_output_adapter@D@__crt_stdio_output@@@2@@__crt_stdio_output@@AAE_NXZ 1007a26f f i libucrt:output.obj
 0001:00079307       ?type_case_Z@?$output_processor@DV?$string_output_adapter@D@__crt_stdio_output@@V?$standard_base@DV?$string_output_adapter@D@__crt_stdio_output@@@2@@__crt_stdio_output@@AAE_NXZ 1007a307 f i libucrt:output.obj
 0001:00079382       ?type_case_Z@?$output_processor@_WV?$stream_output_adapter@_W@__crt_stdio_output@@V?$format_validation_base@_WV?$stream_output_adapter@_W@__crt_stdio_output@@@2@@__crt_stdio_output@@AAE_NXZ 1007a382 f i libucrt:output.obj
 0001:000793fd       ?type_case_Z@?$output_processor@_WV?$stream_output_adapter@_W@__crt_stdio_output@@V?$positional_parameter_base@_WV?$stream_output_adapter@_W@__crt_stdio_output@@@2@@__crt_stdio_output@@AAE_NXZ 1007a3fd f i libucrt:output.obj
 0001:00079495       ?type_case_Z@?$output_processor@_WV?$stream_output_adapter@_W@__crt_stdio_output@@V?$standard_base@_WV?$stream_output_adapter@_W@__crt_stdio_output@@@2@@__crt_stdio_output@@AAE_NXZ 1007a495 f i libucrt:output.obj
 0001:00079510       ?type_case_Z@?$output_processor@_WV?$string_output_adapter@_W@__crt_stdio_output@@V?$format_validation_base@_WV?$string_output_adapter@_W@__crt_stdio_output@@@2@@__crt_stdio_output@@AAE_NXZ 1007a510 f i libucrt:output.obj
 0001:0007958b       ?type_case_Z@?$output_processor@_WV?$string_output_adapter@_W@__crt_stdio_output@@V?$positional_parameter_base@_WV?$string_output_adapter@_W@__crt_stdio_output@@@2@@__crt_stdio_output@@AAE_NXZ 1007a58b f i libucrt:output.obj
 0001:00079623       ?type_case_Z@?$output_processor@_WV?$string_output_adapter@_W@__crt_stdio_output@@V?$standard_base@_WV?$string_output_adapter@_W@__crt_stdio_output@@@2@@__crt_stdio_output@@AAE_NXZ 1007a623 f i libucrt:output.obj
 0001:0007969e       ?type_case_a@?$output_processor@DV?$stream_output_adapter@D@__crt_stdio_output@@V?$format_validation_base@DV?$stream_output_adapter@D@__crt_stdio_output@@@2@@__crt_stdio_output@@AAE_NXZ 1007a69e f i libucrt:output.obj
 0001:00079893       ?type_case_a@?$output_processor@DV?$stream_output_adapter@D@__crt_stdio_output@@V?$positional_parameter_base@DV?$stream_output_adapter@D@__crt_stdio_output@@@2@@__crt_stdio_output@@AAE_NXZ 1007a893 f i libucrt:output.obj
 0001:00079aac       ?type_case_a@?$output_processor@DV?$stream_output_adapter@D@__crt_stdio_output@@V?$standard_base@DV?$stream_output_adapter@D@__crt_stdio_output@@@2@@__crt_stdio_output@@AAE_NXZ 1007aaac f i libucrt:output.obj
 0001:00079ca1       ?type_case_a@?$output_processor@DV?$string_output_adapter@D@__crt_stdio_output@@V?$format_validation_base@DV?$string_output_adapter@D@__crt_stdio_output@@@2@@__crt_stdio_output@@AAE_NXZ 1007aca1 f i libucrt:output.obj
 0001:00079e96       ?type_case_a@?$output_processor@DV?$string_output_adapter@D@__crt_stdio_output@@V?$positional_parameter_base@DV?$string_output_adapter@D@__crt_stdio_output@@@2@@__crt_stdio_output@@AAE_NXZ 1007ae96 f i libucrt:output.obj
 0001:0007a0af       ?type_case_a@?$output_processor@DV?$string_output_adapter@D@__crt_stdio_output@@V?$standard_base@DV?$string_output_adapter@D@__crt_stdio_output@@@2@@__crt_stdio_output@@AAE_NXZ 1007b0af f i libucrt:output.obj
 0001:0007a2a4       ?type_case_a@?$output_processor@_WV?$stream_output_adapter@_W@__crt_stdio_output@@V?$format_validation_base@_WV?$stream_output_adapter@_W@__crt_stdio_output@@@2@@__crt_stdio_output@@AAE_NXZ 1007b2a4 f i libucrt:output.obj
 0001:0007a4b4       ?type_case_a@?$output_processor@_WV?$stream_output_adapter@_W@__crt_stdio_output@@V?$positional_parameter_base@_WV?$stream_output_adapter@_W@__crt_stdio_output@@@2@@__crt_stdio_output@@AAE_NXZ 1007b4b4 f i libucrt:output.obj
 0001:0007a6e9       ?type_case_a@?$output_processor@_WV?$stream_output_adapter@_W@__crt_stdio_output@@V?$standard_base@_WV?$stream_output_adapter@_W@__crt_stdio_output@@@2@@__crt_stdio_output@@AAE_NXZ 1007b6e9 f i libucrt:output.obj
 0001:0007a8f9       ?type_case_a@?$output_processor@_WV?$string_output_adapter@_W@__crt_stdio_output@@V?$format_validation_base@_WV?$string_output_adapter@_W@__crt_stdio_output@@@2@@__crt_stdio_output@@AAE_NXZ 1007b8f9 f i libucrt:output.obj
 0001:0007ab09       ?type_case_a@?$output_processor@_WV?$string_output_adapter@_W@__crt_stdio_output@@V?$positional_parameter_base@_WV?$string_output_adapter@_W@__crt_stdio_output@@@2@@__crt_stdio_output@@AAE_NXZ 1007bb09 f i libucrt:output.obj
 0001:0007ad3e       ?type_case_a@?$output_processor@_WV?$string_output_adapter@_W@__crt_stdio_output@@V?$standard_base@_WV?$string_output_adapter@_W@__crt_stdio_output@@@2@@__crt_stdio_output@@AAE_NXZ 1007bd3e f i libucrt:output.obj
 0001:0007af4e       ?type_case_c@?$output_processor@DV?$stream_output_adapter@D@__crt_stdio_output@@V?$format_validation_base@DV?$stream_output_adapter@D@__crt_stdio_output@@@2@@__crt_stdio_output@@AAE_NXZ 1007bf4e f i libucrt:output.obj
 0001:0007af58       ?type_case_c@?$output_processor@DV?$stream_output_adapter@D@__crt_stdio_output@@V?$positional_parameter_base@DV?$stream_output_adapter@D@__crt_stdio_output@@@2@@__crt_stdio_output@@AAE_NXZ 1007bf58 f i libucrt:output.obj
 0001:0007af62       ?type_case_c@?$output_processor@DV?$stream_output_adapter@D@__crt_stdio_output@@V?$standard_base@DV?$stream_output_adapter@D@__crt_stdio_output@@@2@@__crt_stdio_output@@AAE_NXZ 1007bf62 f i libucrt:output.obj
 0001:0007af6c       ?type_case_c@?$output_processor@DV?$string_output_adapter@D@__crt_stdio_output@@V?$format_validation_base@DV?$string_output_adapter@D@__crt_stdio_output@@@2@@__crt_stdio_output@@AAE_NXZ 1007bf6c f i libucrt:output.obj
 0001:0007af76       ?type_case_c@?$output_processor@DV?$string_output_adapter@D@__crt_stdio_output@@V?$positional_parameter_base@DV?$string_output_adapter@D@__crt_stdio_output@@@2@@__crt_stdio_output@@AAE_NXZ 1007bf76 f i libucrt:output.obj
 0001:0007af80       ?type_case_c@?$output_processor@DV?$string_output_adapter@D@__crt_stdio_output@@V?$standard_base@DV?$string_output_adapter@D@__crt_stdio_output@@@2@@__crt_stdio_output@@AAE_NXZ 1007bf80 f i libucrt:output.obj
 0001:0007af8a       ?type_case_c@?$output_processor@_WV?$stream_output_adapter@_W@__crt_stdio_output@@V?$format_validation_base@_WV?$stream_output_adapter@_W@__crt_stdio_output@@@2@@__crt_stdio_output@@AAE_NXZ 1007bf8a f i libucrt:output.obj
 0001:0007af94       ?type_case_c@?$output_processor@_WV?$stream_output_adapter@_W@__crt_stdio_output@@V?$positional_parameter_base@_WV?$stream_output_adapter@_W@__crt_stdio_output@@@2@@__crt_stdio_output@@AAE_NXZ 1007bf94 f i libucrt:output.obj
 0001:0007af9e       ?type_case_c@?$output_processor@_WV?$stream_output_adapter@_W@__crt_stdio_output@@V?$standard_base@_WV?$stream_output_adapter@_W@__crt_stdio_output@@@2@@__crt_stdio_output@@AAE_NXZ 1007bf9e f i libucrt:output.obj
 0001:0007afa8       ?type_case_c@?$output_processor@_WV?$string_output_adapter@_W@__crt_stdio_output@@V?$format_validation_base@_WV?$string_output_adapter@_W@__crt_stdio_output@@@2@@__crt_stdio_output@@AAE_NXZ 1007bfa8 f i libucrt:output.obj
 0001:0007afb2       ?type_case_c@?$output_processor@_WV?$string_output_adapter@_W@__crt_stdio_output@@V?$positional_parameter_base@_WV?$string_output_adapter@_W@__crt_stdio_output@@@2@@__crt_stdio_output@@AAE_NXZ 1007bfb2 f i libucrt:output.obj
 0001:0007afbc       ?type_case_c@?$output_processor@_WV?$string_output_adapter@_W@__crt_stdio_output@@V?$standard_base@_WV?$string_output_adapter@_W@__crt_stdio_output@@@2@@__crt_stdio_output@@AAE_NXZ 1007bfbc f i libucrt:output.obj
 0001:0007afc6       ?type_case_c_tchar@?$output_processor@DV?$stream_output_adapter@D@__crt_stdio_output@@V?$format_validation_base@DV?$stream_output_adapter@D@__crt_stdio_output@@@2@@__crt_stdio_output@@AAE_ND@Z 1007bfc6 f i libucrt:output.obj
 0001:0007b080       ?type_case_c_tchar@?$output_processor@DV?$stream_output_adapter@D@__crt_stdio_output@@V?$positional_parameter_base@DV?$stream_output_adapter@D@__crt_stdio_output@@@2@@__crt_stdio_output@@AAE_ND@Z 1007c080 f i libucrt:output.obj
 0001:0007b16e       ?type_case_c_tchar@?$output_processor@DV?$stream_output_adapter@D@__crt_stdio_output@@V?$standard_base@DV?$stream_output_adapter@D@__crt_stdio_output@@@2@@__crt_stdio_output@@AAE_ND@Z 1007c16e f i libucrt:output.obj
 0001:0007b228       ?type_case_c_tchar@?$output_processor@DV?$string_output_adapter@D@__crt_stdio_output@@V?$format_validation_base@DV?$string_output_adapter@D@__crt_stdio_output@@@2@@__crt_stdio_output@@AAE_ND@Z 1007c228 f i libucrt:output.obj
 0001:0007b2e2       ?type_case_c_tchar@?$output_processor@DV?$string_output_adapter@D@__crt_stdio_output@@V?$positional_parameter_base@DV?$string_output_adapter@D@__crt_stdio_output@@@2@@__crt_stdio_output@@AAE_ND@Z 1007c2e2 f i libucrt:output.obj
 0001:0007b3d0       ?type_case_c_tchar@?$output_processor@DV?$string_output_adapter@D@__crt_stdio_output@@V?$standard_base@DV?$string_output_adapter@D@__crt_stdio_output@@@2@@__crt_stdio_output@@AAE_ND@Z 1007c3d0 f i libucrt:output.obj
 0001:0007b48a       ?type_case_c_tchar@?$output_processor@_WV?$stream_output_adapter@_W@__crt_stdio_output@@V?$format_validation_base@_WV?$stream_output_adapter@_W@__crt_stdio_output@@@2@@__crt_stdio_output@@AAE_N_W@Z 1007c48a f i libucrt:output.obj
 0001:0007b55c       ?type_case_c_tchar@?$output_processor@_WV?$stream_output_adapter@_W@__crt_stdio_output@@V?$positional_parameter_base@_WV?$stream_output_adapter@_W@__crt_stdio_output@@@2@@__crt_stdio_output@@AAE_N_W@Z 1007c55c f i libucrt:output.obj
 0001:0007b659       ?type_case_c_tchar@?$output_processor@_WV?$stream_output_adapter@_W@__crt_stdio_output@@V?$standard_base@_WV?$stream_output_adapter@_W@__crt_stdio_output@@@2@@__crt_stdio_output@@AAE_N_W@Z 1007c659 f i libucrt:output.obj
 0001:0007b72b       ?type_case_c_tchar@?$output_processor@_WV?$string_output_adapter@_W@__crt_stdio_output@@V?$format_validation_base@_WV?$string_output_adapter@_W@__crt_stdio_output@@@2@@__crt_stdio_output@@AAE_N_W@Z 1007c72b f i libucrt:output.obj
 0001:0007b7fd       ?type_case_c_tchar@?$output_processor@_WV?$string_output_adapter@_W@__crt_stdio_output@@V?$positional_parameter_base@_WV?$string_output_adapter@_W@__crt_stdio_output@@@2@@__crt_stdio_output@@AAE_N_W@Z 1007c7fd f i libucrt:output.obj
 0001:0007b8fa       ?type_case_c_tchar@?$output_processor@_WV?$string_output_adapter@_W@__crt_stdio_output@@V?$standard_base@_WV?$string_output_adapter@_W@__crt_stdio_output@@@2@@__crt_stdio_output@@AAE_N_W@Z 1007c8fa f i libucrt:output.obj
 0001:0007b9cc       ?type_case_d@?$output_processor@DV?$stream_output_adapter@D@__crt_stdio_output@@V?$format_validation_base@DV?$stream_output_adapter@D@__crt_stdio_output@@@2@@__crt_stdio_output@@AAE_NXZ 1007c9cc f i libucrt:output.obj
 0001:0007b9db       ?type_case_d@?$output_processor@DV?$stream_output_adapter@D@__crt_stdio_output@@V?$positional_parameter_base@DV?$stream_output_adapter@D@__crt_stdio_output@@@2@@__crt_stdio_output@@AAE_NXZ 1007c9db f i libucrt:output.obj
 0001:0007b9ea       ?type_case_d@?$output_processor@DV?$stream_output_adapter@D@__crt_stdio_output@@V?$standard_base@DV?$stream_output_adapter@D@__crt_stdio_output@@@2@@__crt_stdio_output@@AAE_NXZ 1007c9ea f i libucrt:output.obj
 0001:0007b9f9       ?type_case_d@?$output_processor@DV?$string_output_adapter@D@__crt_stdio_output@@V?$format_validation_base@DV?$string_output_adapter@D@__crt_stdio_output@@@2@@__crt_stdio_output@@AAE_NXZ 1007c9f9 f i libucrt:output.obj
 0001:0007ba08       ?type_case_d@?$output_processor@DV?$string_output_adapter@D@__crt_stdio_output@@V?$positional_parameter_base@DV?$string_output_adapter@D@__crt_stdio_output@@@2@@__crt_stdio_output@@AAE_NXZ 1007ca08 f i libucrt:output.obj
 0001:0007ba17       ?type_case_d@?$output_processor@DV?$string_output_adapter@D@__crt_stdio_output@@V?$standard_base@DV?$string_output_adapter@D@__crt_stdio_output@@@2@@__crt_stdio_output@@AAE_NXZ 1007ca17 f i libucrt:output.obj
 0001:0007ba26       ?type_case_d@?$output_processor@_WV?$stream_output_adapter@_W@__crt_stdio_output@@V?$format_validation_base@_WV?$stream_output_adapter@_W@__crt_stdio_output@@@2@@__crt_stdio_output@@AAE_NXZ 1007ca26 f i libucrt:output.obj
 0001:0007ba35       ?type_case_d@?$output_processor@_WV?$stream_output_adapter@_W@__crt_stdio_output@@V?$positional_parameter_base@_WV?$stream_output_adapter@_W@__crt_stdio_output@@@2@@__crt_stdio_output@@AAE_NXZ 1007ca35 f i libucrt:output.obj
 0001:0007ba44       ?type_case_d@?$output_processor@_WV?$stream_output_adapter@_W@__crt_stdio_output@@V?$standard_base@_WV?$stream_output_adapter@_W@__crt_stdio_output@@@2@@__crt_stdio_output@@AAE_NXZ 1007ca44 f i libucrt:output.obj
 0001:0007ba53       ?type_case_d@?$output_processor@_WV?$string_output_adapter@_W@__crt_stdio_output@@V?$format_validation_base@_WV?$string_output_adapter@_W@__crt_stdio_output@@@2@@__crt_stdio_output@@AAE_NXZ 1007ca53 f i libucrt:output.obj
 0001:0007ba62       ?type_case_d@?$output_processor@_WV?$string_output_adapter@_W@__crt_stdio_output@@V?$positional_parameter_base@_WV?$string_output_adapter@_W@__crt_stdio_output@@@2@@__crt_stdio_output@@AAE_NXZ 1007ca62 f i libucrt:output.obj
 0001:0007ba71       ?type_case_d@?$output_processor@_WV?$string_output_adapter@_W@__crt_stdio_output@@V?$standard_base@_WV?$string_output_adapter@_W@__crt_stdio_output@@@2@@__crt_stdio_output@@AAE_NXZ 1007ca71 f i libucrt:output.obj
 0001:0007ba80       ?type_case_n@?$output_processor@DV?$stream_output_adapter@D@__crt_stdio_output@@V?$format_validation_base@DV?$stream_output_adapter@D@__crt_stdio_output@@@2@@__crt_stdio_output@@AAE_NXZ 1007ca80 f i libucrt:output.obj
 0001:0007bb26       ?type_case_n@?$output_processor@DV?$stream_output_adapter@D@__crt_stdio_output@@V?$positional_parameter_base@DV?$stream_output_adapter@D@__crt_stdio_output@@@2@@__crt_stdio_output@@AAE_NXZ 1007cb26 f i libucrt:output.obj
 0001:0007bbfe       ?type_case_n@?$output_processor@DV?$stream_output_adapter@D@__crt_stdio_output@@V?$standard_base@DV?$stream_output_adapter@D@__crt_stdio_output@@@2@@__crt_stdio_output@@AAE_NXZ 1007cbfe f i libucrt:output.obj
 0001:0007bca4       ?type_case_n@?$output_processor@DV?$string_output_adapter@D@__crt_stdio_output@@V?$format_validation_base@DV?$string_output_adapter@D@__crt_stdio_output@@@2@@__crt_stdio_output@@AAE_NXZ 1007cca4 f i libucrt:output.obj
 0001:0007bd4a       ?type_case_n@?$output_processor@DV?$string_output_adapter@D@__crt_stdio_output@@V?$positional_parameter_base@DV?$string_output_adapter@D@__crt_stdio_output@@@2@@__crt_stdio_output@@AAE_NXZ 1007cd4a f i libucrt:output.obj
 0001:0007be22       ?type_case_n@?$output_processor@DV?$string_output_adapter@D@__crt_stdio_output@@V?$standard_base@DV?$string_output_adapter@D@__crt_stdio_output@@@2@@__crt_stdio_output@@AAE_NXZ 1007ce22 f i libucrt:output.obj
 0001:0007bec8       ?type_case_n@?$output_processor@_WV?$stream_output_adapter@_W@__crt_stdio_output@@V?$format_validation_base@_WV?$stream_output_adapter@_W@__crt_stdio_output@@@2@@__crt_stdio_output@@AAE_NXZ 1007cec8 f i libucrt:output.obj
 0001:0007bf6e       ?type_case_n@?$output_processor@_WV?$stream_output_adapter@_W@__crt_stdio_output@@V?$positional_parameter_base@_WV?$stream_output_adapter@_W@__crt_stdio_output@@@2@@__crt_stdio_output@@AAE_NXZ 1007cf6e f i libucrt:output.obj
 0001:0007c046       ?type_case_n@?$output_processor@_WV?$stream_output_adapter@_W@__crt_stdio_output@@V?$standard_base@_WV?$stream_output_adapter@_W@__crt_stdio_output@@@2@@__crt_stdio_output@@AAE_NXZ 1007d046 f i libucrt:output.obj
 0001:0007c0ec       ?type_case_n@?$output_processor@_WV?$string_output_adapter@_W@__crt_stdio_output@@V?$format_validation_base@_WV?$string_output_adapter@_W@__crt_stdio_output@@@2@@__crt_stdio_output@@AAE_NXZ 1007d0ec f i libucrt:output.obj
 0001:0007c192       ?type_case_n@?$output_processor@_WV?$string_output_adapter@_W@__crt_stdio_output@@V?$positional_parameter_base@_WV?$string_output_adapter@_W@__crt_stdio_output@@@2@@__crt_stdio_output@@AAE_NXZ 1007d192 f i libucrt:output.obj
 0001:0007c26a       ?type_case_n@?$output_processor@_WV?$string_output_adapter@_W@__crt_stdio_output@@V?$standard_base@_WV?$string_output_adapter@_W@__crt_stdio_output@@@2@@__crt_stdio_output@@AAE_NXZ 1007d26a f i libucrt:output.obj
 0001:0007c310       ?type_case_o@?$output_processor@DV?$stream_output_adapter@D@__crt_stdio_output@@V?$format_validation_base@DV?$stream_output_adapter@D@__crt_stdio_output@@@2@@__crt_stdio_output@@AAE_NXZ 1007d310 f i libucrt:output.obj
 0001:0007c334       ?type_case_o@?$output_processor@DV?$stream_output_adapter@D@__crt_stdio_output@@V?$positional_parameter_base@DV?$stream_output_adapter@D@__crt_stdio_output@@@2@@__crt_stdio_output@@AAE_NXZ 1007d334 f i libucrt:output.obj
 0001:0007c358       ?type_case_o@?$output_processor@DV?$stream_output_adapter@D@__crt_stdio_output@@V?$standard_base@DV?$stream_output_adapter@D@__crt_stdio_output@@@2@@__crt_stdio_output@@AAE_NXZ 1007d358 f i libucrt:output.obj
 0001:0007c37c       ?type_case_o@?$output_processor@DV?$string_output_adapter@D@__crt_stdio_output@@V?$format_validation_base@DV?$string_output_adapter@D@__crt_stdio_output@@@2@@__crt_stdio_output@@AAE_NXZ 1007d37c f i libucrt:output.obj
 0001:0007c3a0       ?type_case_o@?$output_processor@DV?$string_output_adapter@D@__crt_stdio_output@@V?$positional_parameter_base@DV?$string_output_adapter@D@__crt_stdio_output@@@2@@__crt_stdio_output@@AAE_NXZ 1007d3a0 f i libucrt:output.obj
 0001:0007c3c4       ?type_case_o@?$output_processor@DV?$string_output_adapter@D@__crt_stdio_output@@V?$standard_base@DV?$string_output_adapter@D@__crt_stdio_output@@@2@@__crt_stdio_output@@AAE_NXZ 1007d3c4 f i libucrt:output.obj
 0001:0007c3e8       ?type_case_o@?$output_processor@_WV?$stream_output_adapter@_W@__crt_stdio_output@@V?$format_validation_base@_WV?$stream_output_adapter@_W@__crt_stdio_output@@@2@@__crt_stdio_output@@AAE_NXZ 1007d3e8 f i libucrt:output.obj
 0001:0007c40c       ?type_case_o@?$output_processor@_WV?$stream_output_adapter@_W@__crt_stdio_output@@V?$positional_parameter_base@_WV?$stream_output_adapter@_W@__crt_stdio_output@@@2@@__crt_stdio_output@@AAE_NXZ 1007d40c f i libucrt:output.obj
 0001:0007c430       ?type_case_o@?$output_processor@_WV?$stream_output_adapter@_W@__crt_stdio_output@@V?$standard_base@_WV?$stream_output_adapter@_W@__crt_stdio_output@@@2@@__crt_stdio_output@@AAE_NXZ 1007d430 f i libucrt:output.obj
 0001:0007c454       ?type_case_o@?$output_processor@_WV?$string_output_adapter@_W@__crt_stdio_output@@V?$format_validation_base@_WV?$string_output_adapter@_W@__crt_stdio_output@@@2@@__crt_stdio_output@@AAE_NXZ 1007d454 f i libucrt:output.obj
 0001:0007c478       ?type_case_o@?$output_processor@_WV?$string_output_adapter@_W@__crt_stdio_output@@V?$positional_parameter_base@_WV?$string_output_adapter@_W@__crt_stdio_output@@@2@@__crt_stdio_output@@AAE_NXZ 1007d478 f i libucrt:output.obj
 0001:0007c49c       ?type_case_o@?$output_processor@_WV?$string_output_adapter@_W@__crt_stdio_output@@V?$standard_base@_WV?$string_output_adapter@_W@__crt_stdio_output@@@2@@__crt_stdio_output@@AAE_NXZ 1007d49c f i libucrt:output.obj
 0001:0007c4c0       ?type_case_p@?$output_processor@DV?$stream_output_adapter@D@__crt_stdio_output@@V?$format_validation_base@DV?$stream_output_adapter@D@__crt_stdio_output@@@2@@__crt_stdio_output@@AAE_NXZ 1007d4c0 f i libucrt:output.obj
 0001:0007c4db       ?type_case_p@?$output_processor@DV?$stream_output_adapter@D@__crt_stdio_output@@V?$positional_parameter_base@DV?$stream_output_adapter@D@__crt_stdio_output@@@2@@__crt_stdio_output@@AAE_NXZ 1007d4db f i libucrt:output.obj
 0001:0007c4f6       ?type_case_p@?$output_processor@DV?$stream_output_adapter@D@__crt_stdio_output@@V?$standard_base@DV?$stream_output_adapter@D@__crt_stdio_output@@@2@@__crt_stdio_output@@AAE_NXZ 1007d4f6 f i libucrt:output.obj
 0001:0007c511       ?type_case_p@?$output_processor@DV?$string_output_adapter@D@__crt_stdio_output@@V?$format_validation_base@DV?$string_output_adapter@D@__crt_stdio_output@@@2@@__crt_stdio_output@@AAE_NXZ 1007d511 f i libucrt:output.obj
 0001:0007c52c       ?type_case_p@?$output_processor@DV?$string_output_adapter@D@__crt_stdio_output@@V?$positional_parameter_base@DV?$string_output_adapter@D@__crt_stdio_output@@@2@@__crt_stdio_output@@AAE_NXZ 1007d52c f i libucrt:output.obj
 0001:0007c547       ?type_case_p@?$output_processor@DV?$string_output_adapter@D@__crt_stdio_output@@V?$standard_base@DV?$string_output_adapter@D@__crt_stdio_output@@@2@@__crt_stdio_output@@AAE_NXZ 1007d547 f i libucrt:output.obj
 0001:0007c562       ?type_case_p@?$output_processor@_WV?$stream_output_adapter@_W@__crt_stdio_output@@V?$format_validation_base@_WV?$stream_output_adapter@_W@__crt_stdio_output@@@2@@__crt_stdio_output@@AAE_NXZ 1007d562 f i libucrt:output.obj
 0001:0007c57d       ?type_case_p@?$output_processor@_WV?$stream_output_adapter@_W@__crt_stdio_output@@V?$positional_parameter_base@_WV?$stream_output_adapter@_W@__crt_stdio_output@@@2@@__crt_stdio_output@@AAE_NXZ 1007d57d f i libucrt:output.obj
 0001:0007c598       ?type_case_p@?$output_processor@_WV?$stream_output_adapter@_W@__crt_stdio_output@@V?$standard_base@_WV?$stream_output_adapter@_W@__crt_stdio_output@@@2@@__crt_stdio_output@@AAE_NXZ 1007d598 f i libucrt:output.obj
 0001:0007c5b3       ?type_case_p@?$output_processor@_WV?$string_output_adapter@_W@__crt_stdio_output@@V?$format_validation_base@_WV?$string_output_adapter@_W@__crt_stdio_output@@@2@@__crt_stdio_output@@AAE_NXZ 1007d5b3 f i libucrt:output.obj
 0001:0007c5ce       ?type_case_p@?$output_processor@_WV?$string_output_adapter@_W@__crt_stdio_output@@V?$positional_parameter_base@_WV?$string_output_adapter@_W@__crt_stdio_output@@@2@@__crt_stdio_output@@AAE_NXZ 1007d5ce f i libucrt:output.obj
 0001:0007c5e9       ?type_case_p@?$output_processor@_WV?$string_output_adapter@_W@__crt_stdio_output@@V?$standard_base@_WV?$string_output_adapter@_W@__crt_stdio_output@@@2@@__crt_stdio_output@@AAE_NXZ 1007d5e9 f i libucrt:output.obj
 0001:0007c604       ?type_case_s@?$output_processor@DV?$stream_output_adapter@D@__crt_stdio_output@@V?$format_validation_base@DV?$stream_output_adapter@D@__crt_stdio_output@@@2@@__crt_stdio_output@@AAE_NXZ 1007d604 f i libucrt:output.obj
 0001:0007c692       ?type_case_s@?$output_processor@DV?$stream_output_adapter@D@__crt_stdio_output@@V?$positional_parameter_base@DV?$stream_output_adapter@D@__crt_stdio_output@@@2@@__crt_stdio_output@@AAE_NXZ 1007d692 f i libucrt:output.obj
 0001:0007c72f       ?type_case_s@?$output_processor@DV?$stream_output_adapter@D@__crt_stdio_output@@V?$standard_base@DV?$stream_output_adapter@D@__crt_stdio_output@@@2@@__crt_stdio_output@@AAE_NXZ 1007d72f f i libucrt:output.obj
 0001:0007c7bd       ?type_case_s@?$output_processor@DV?$string_output_adapter@D@__crt_stdio_output@@V?$format_validation_base@DV?$string_output_adapter@D@__crt_stdio_output@@@2@@__crt_stdio_output@@AAE_NXZ 1007d7bd f i libucrt:output.obj
 0001:0007c84b       ?type_case_s@?$output_processor@DV?$string_output_adapter@D@__crt_stdio_output@@V?$positional_parameter_base@DV?$string_output_adapter@D@__crt_stdio_output@@@2@@__crt_stdio_output@@AAE_NXZ 1007d84b f i libucrt:output.obj
 0001:0007c8e8       ?type_case_s@?$output_processor@DV?$string_output_adapter@D@__crt_stdio_output@@V?$standard_base@DV?$string_output_adapter@D@__crt_stdio_output@@@2@@__crt_stdio_output@@AAE_NXZ 1007d8e8 f i libucrt:output.obj
 0001:0007c976       ?type_case_s@?$output_processor@_WV?$stream_output_adapter@_W@__crt_stdio_output@@V?$format_validation_base@_WV?$stream_output_adapter@_W@__crt_stdio_output@@@2@@__crt_stdio_output@@AAE_NXZ 1007d976 f i libucrt:output.obj
 0001:0007ca07       ?type_case_s@?$output_processor@_WV?$stream_output_adapter@_W@__crt_stdio_output@@V?$positional_parameter_base@_WV?$stream_output_adapter@_W@__crt_stdio_output@@@2@@__crt_stdio_output@@AAE_NXZ 1007da07 f i libucrt:output.obj
 0001:0007caa7       ?type_case_s@?$output_processor@_WV?$stream_output_adapter@_W@__crt_stdio_output@@V?$standard_base@_WV?$stream_output_adapter@_W@__crt_stdio_output@@@2@@__crt_stdio_output@@AAE_NXZ 1007daa7 f i libucrt:output.obj
 0001:0007cb38       ?type_case_s@?$output_processor@_WV?$string_output_adapter@_W@__crt_stdio_output@@V?$format_validation_base@_WV?$string_output_adapter@_W@__crt_stdio_output@@@2@@__crt_stdio_output@@AAE_NXZ 1007db38 f i libucrt:output.obj
 0001:0007cbc9       ?type_case_s@?$output_processor@_WV?$string_output_adapter@_W@__crt_stdio_output@@V?$positional_parameter_base@_WV?$string_output_adapter@_W@__crt_stdio_output@@@2@@__crt_stdio_output@@AAE_NXZ 1007dbc9 f i libucrt:output.obj
 0001:0007cc69       ?type_case_s@?$output_processor@_WV?$string_output_adapter@_W@__crt_stdio_output@@V?$standard_base@_WV?$string_output_adapter@_W@__crt_stdio_output@@@2@@__crt_stdio_output@@AAE_NXZ 1007dc69 f i libucrt:output.obj
 0001:0007ccfa       ?type_case_s_compute_narrow_string_length@?$output_processor@DV?$stream_output_adapter@D@__crt_stdio_output@@V?$format_validation_base@DV?$stream_output_adapter@D@__crt_stdio_output@@@2@@__crt_stdio_output@@AAEHHD@Z 1007dcfa f i libucrt:output.obj
 0001:0007cd15       ?type_case_s_compute_narrow_string_length@?$output_processor@DV?$stream_output_adapter@D@__crt_stdio_output@@V?$positional_parameter_base@DV?$stream_output_adapter@D@__crt_stdio_output@@@2@@__crt_stdio_output@@AAEHHD@Z 1007dd15 f i libucrt:output.obj
 0001:0007cd30       ?type_case_s_compute_narrow_string_length@?$output_processor@DV?$stream_output_adapter@D@__crt_stdio_output@@V?$standard_base@DV?$stream_output_adapter@D@__crt_stdio_output@@@2@@__crt_stdio_output@@AAEHHD@Z 1007dd30 f i libucrt:output.obj
 0001:0007cd4b       ?type_case_s_compute_narrow_string_length@?$output_processor@DV?$string_output_adapter@D@__crt_stdio_output@@V?$format_validation_base@DV?$string_output_adapter@D@__crt_stdio_output@@@2@@__crt_stdio_output@@AAEHHD@Z 1007dd4b f i libucrt:output.obj
 0001:0007cd66       ?type_case_s_compute_narrow_string_length@?$output_processor@DV?$string_output_adapter@D@__crt_stdio_output@@V?$positional_parameter_base@DV?$string_output_adapter@D@__crt_stdio_output@@@2@@__crt_stdio_output@@AAEHHD@Z 1007dd66 f i libucrt:output.obj
 0001:0007cd81       ?type_case_s_compute_narrow_string_length@?$output_processor@DV?$string_output_adapter@D@__crt_stdio_output@@V?$standard_base@DV?$string_output_adapter@D@__crt_stdio_output@@@2@@__crt_stdio_output@@AAEHHD@Z 1007dd81 f i libucrt:output.obj
 0001:0007cd9c       ?type_case_s_compute_narrow_string_length@?$output_processor@_WV?$stream_output_adapter@_W@__crt_stdio_output@@V?$format_validation_base@_WV?$stream_output_adapter@_W@__crt_stdio_output@@@2@@__crt_stdio_output@@AAEHH_W@Z 1007dd9c f i libucrt:output.obj
 0001:0007ce06       ?type_case_s_compute_narrow_string_length@?$output_processor@_WV?$stream_output_adapter@_W@__crt_stdio_output@@V?$positional_parameter_base@_WV?$stream_output_adapter@_W@__crt_stdio_output@@@2@@__crt_stdio_output@@AAEHH_W@Z 1007de06 f i libucrt:output.obj
 0001:0007ce70       ?type_case_s_compute_narrow_string_length@?$output_processor@_WV?$stream_output_adapter@_W@__crt_stdio_output@@V?$standard_base@_WV?$stream_output_adapter@_W@__crt_stdio_output@@@2@@__crt_stdio_output@@AAEHH_W@Z 1007de70 f i libucrt:output.obj
 0001:0007ceda       ?type_case_s_compute_narrow_string_length@?$output_processor@_WV?$string_output_adapter@_W@__crt_stdio_output@@V?$format_validation_base@_WV?$string_output_adapter@_W@__crt_stdio_output@@@2@@__crt_stdio_output@@AAEHH_W@Z 1007deda f i libucrt:output.obj
 0001:0007cf44       ?type_case_s_compute_narrow_string_length@?$output_processor@_WV?$string_output_adapter@_W@__crt_stdio_output@@V?$positional_parameter_base@_WV?$string_output_adapter@_W@__crt_stdio_output@@@2@@__crt_stdio_output@@AAEHH_W@Z 1007df44 f i libucrt:output.obj
 0001:0007cfae       ?type_case_s_compute_narrow_string_length@?$output_processor@_WV?$string_output_adapter@_W@__crt_stdio_output@@V?$standard_base@_WV?$string_output_adapter@_W@__crt_stdio_output@@@2@@__crt_stdio_output@@AAEHH_W@Z 1007dfae f i libucrt:output.obj
 0001:0007d018       ?type_case_u@?$output_processor@DV?$stream_output_adapter@D@__crt_stdio_output@@V?$format_validation_base@DV?$stream_output_adapter@D@__crt_stdio_output@@@2@@__crt_stdio_output@@AAE_NXZ 1007e018 f i libucrt:output.obj
 0001:0007d022       ?type_case_u@?$output_processor@DV?$stream_output_adapter@D@__crt_stdio_output@@V?$positional_parameter_base@DV?$stream_output_adapter@D@__crt_stdio_output@@@2@@__crt_stdio_output@@AAE_NXZ 1007e022 f i libucrt:output.obj
 0001:0007d02c       ?type_case_u@?$output_processor@DV?$stream_output_adapter@D@__crt_stdio_output@@V?$standard_base@DV?$stream_output_adapter@D@__crt_stdio_output@@@2@@__crt_stdio_output@@AAE_NXZ 1007e02c f i libucrt:output.obj
 0001:0007d036       ?type_case_u@?$output_processor@DV?$string_output_adapter@D@__crt_stdio_output@@V?$format_validation_base@DV?$string_output_adapter@D@__crt_stdio_output@@@2@@__crt_stdio_output@@AAE_NXZ 1007e036 f i libucrt:output.obj
 0001:0007d040       ?type_case_u@?$output_processor@DV?$string_output_adapter@D@__crt_stdio_output@@V?$positional_parameter_base@DV?$string_output_adapter@D@__crt_stdio_output@@@2@@__crt_stdio_output@@AAE_NXZ 1007e040 f i libucrt:output.obj
 0001:0007d04a       ?type_case_u@?$output_processor@DV?$string_output_adapter@D@__crt_stdio_output@@V?$standard_base@DV?$string_output_adapter@D@__crt_stdio_output@@@2@@__crt_stdio_output@@AAE_NXZ 1007e04a f i libucrt:output.obj
 0001:0007d054       ?type_case_u@?$output_processor@_WV?$stream_output_adapter@_W@__crt_stdio_output@@V?$format_validation_base@_WV?$stream_output_adapter@_W@__crt_stdio_output@@@2@@__crt_stdio_output@@AAE_NXZ 1007e054 f i libucrt:output.obj
 0001:0007d05e       ?type_case_u@?$output_processor@_WV?$stream_output_adapter@_W@__crt_stdio_output@@V?$positional_parameter_base@_WV?$stream_output_adapter@_W@__crt_stdio_output@@@2@@__crt_stdio_output@@AAE_NXZ 1007e05e f i libucrt:output.obj
 0001:0007d068       ?type_case_u@?$output_processor@_WV?$stream_output_adapter@_W@__crt_stdio_output@@V?$standard_base@_WV?$stream_output_adapter@_W@__crt_stdio_output@@@2@@__crt_stdio_output@@AAE_NXZ 1007e068 f i libucrt:output.obj
 0001:0007d072       ?type_case_u@?$output_processor@_WV?$string_output_adapter@_W@__crt_stdio_output@@V?$format_validation_base@_WV?$string_output_adapter@_W@__crt_stdio_output@@@2@@__crt_stdio_output@@AAE_NXZ 1007e072 f i libucrt:output.obj
 0001:0007d07c       ?type_case_u@?$output_processor@_WV?$string_output_adapter@_W@__crt_stdio_output@@V?$positional_parameter_base@_WV?$string_output_adapter@_W@__crt_stdio_output@@@2@@__crt_stdio_output@@AAE_NXZ 1007e07c f i libucrt:output.obj
 0001:0007d086       ?type_case_u@?$output_processor@_WV?$string_output_adapter@_W@__crt_stdio_output@@V?$standard_base@_WV?$string_output_adapter@_W@__crt_stdio_output@@@2@@__crt_stdio_output@@AAE_NXZ 1007e086 f i libucrt:output.obj
 0001:0007d090       ?type_case_x@?$output_processor@DV?$stream_output_adapter@D@__crt_stdio_output@@V?$format_validation_base@DV?$stream_output_adapter@D@__crt_stdio_output@@@2@@__crt_stdio_output@@AAE_NXZ 1007e090 f i libucrt:output.obj
 0001:0007d09a       ?type_case_x@?$output_processor@DV?$stream_output_adapter@D@__crt_stdio_output@@V?$positional_parameter_base@DV?$stream_output_adapter@D@__crt_stdio_output@@@2@@__crt_stdio_output@@AAE_NXZ 1007e09a f i libucrt:output.obj
 0001:0007d0a4       ?type_case_x@?$output_processor@DV?$stream_output_adapter@D@__crt_stdio_output@@V?$standard_base@DV?$stream_output_adapter@D@__crt_stdio_output@@@2@@__crt_stdio_output@@AAE_NXZ 1007e0a4 f i libucrt:output.obj
 0001:0007d0ae       ?type_case_x@?$output_processor@DV?$string_output_adapter@D@__crt_stdio_output@@V?$format_validation_base@DV?$string_output_adapter@D@__crt_stdio_output@@@2@@__crt_stdio_output@@AAE_NXZ 1007e0ae f i libucrt:output.obj
 0001:0007d0b8       ?type_case_x@?$output_processor@DV?$string_output_adapter@D@__crt_stdio_output@@V?$positional_parameter_base@DV?$string_output_adapter@D@__crt_stdio_output@@@2@@__crt_stdio_output@@AAE_NXZ 1007e0b8 f i libucrt:output.obj
 0001:0007d0c2       ?type_case_x@?$output_processor@DV?$string_output_adapter@D@__crt_stdio_output@@V?$standard_base@DV?$string_output_adapter@D@__crt_stdio_output@@@2@@__crt_stdio_output@@AAE_NXZ 1007e0c2 f i libucrt:output.obj
 0001:0007d0cc       ?type_case_x@?$output_processor@_WV?$stream_output_adapter@_W@__crt_stdio_output@@V?$format_validation_base@_WV?$stream_output_adapter@_W@__crt_stdio_output@@@2@@__crt_stdio_output@@AAE_NXZ 1007e0cc f i libucrt:output.obj
 0001:0007d0d6       ?type_case_x@?$output_processor@_WV?$stream_output_adapter@_W@__crt_stdio_output@@V?$positional_parameter_base@_WV?$stream_output_adapter@_W@__crt_stdio_output@@@2@@__crt_stdio_output@@AAE_NXZ 1007e0d6 f i libucrt:output.obj
 0001:0007d0e0       ?type_case_x@?$output_processor@_WV?$stream_output_adapter@_W@__crt_stdio_output@@V?$standard_base@_WV?$stream_output_adapter@_W@__crt_stdio_output@@@2@@__crt_stdio_output@@AAE_NXZ 1007e0e0 f i libucrt:output.obj
 0001:0007d0ea       ?type_case_x@?$output_processor@_WV?$string_output_adapter@_W@__crt_stdio_output@@V?$format_validation_base@_WV?$string_output_adapter@_W@__crt_stdio_output@@@2@@__crt_stdio_output@@AAE_NXZ 1007e0ea f i libucrt:output.obj
 0001:0007d0f4       ?type_case_x@?$output_processor@_WV?$string_output_adapter@_W@__crt_stdio_output@@V?$positional_parameter_base@_WV?$string_output_adapter@_W@__crt_stdio_output@@@2@@__crt_stdio_output@@AAE_NXZ 1007e0f4 f i libucrt:output.obj
 0001:0007d0fe       ?type_case_x@?$output_processor@_WV?$string_output_adapter@_W@__crt_stdio_output@@V?$standard_base@_WV?$string_output_adapter@_W@__crt_stdio_output@@@2@@__crt_stdio_output@@AAE_NXZ 1007e0fe f i libucrt:output.obj
 0001:0007d108       ?unget@?$c_string_character_source@D@__crt_strtox@@QAEXD@Z 1007e108 f i libucrt:output.obj
 0001:0007d13b       ?unget@?$c_string_character_source@_W@__crt_strtox@@QAEX_W@Z 1007e13b f i libucrt:output.obj
 0001:0007d174       ?unsafe_value@?$cached@H@__crt_cached_ptd_host@@QAEHXZ 1007e174 f i libucrt:output.obj
 0001:0007d177       ?unsafe_value@?$cached@K@__crt_cached_ptd_host@@QAEKXZ 1007e177 f i libucrt:output.obj
 0001:0007d17a       ?unset_flag@?$output_processor@DV?$stream_output_adapter@D@__crt_stdio_output@@V?$format_validation_base@DV?$stream_output_adapter@D@__crt_stdio_output@@@2@@__crt_stdio_output@@AAEXI@Z 1007e17a f i libucrt:output.obj
 0001:0007d18f       ?unset_flag@?$output_processor@DV?$stream_output_adapter@D@__crt_stdio_output@@V?$positional_parameter_base@DV?$stream_output_adapter@D@__crt_stdio_output@@@2@@__crt_stdio_output@@AAEXI@Z 1007e18f f i libucrt:output.obj
 0001:0007d1a4       ?unset_flag@?$output_processor@DV?$stream_output_adapter@D@__crt_stdio_output@@V?$standard_base@DV?$stream_output_adapter@D@__crt_stdio_output@@@2@@__crt_stdio_output@@AAEXI@Z 1007e1a4 f i libucrt:output.obj
 0001:0007d1b9       ?unset_flag@?$output_processor@DV?$string_output_adapter@D@__crt_stdio_output@@V?$format_validation_base@DV?$string_output_adapter@D@__crt_stdio_output@@@2@@__crt_stdio_output@@AAEXI@Z 1007e1b9 f i libucrt:output.obj
 0001:0007d1ce       ?unset_flag@?$output_processor@DV?$string_output_adapter@D@__crt_stdio_output@@V?$positional_parameter_base@DV?$string_output_adapter@D@__crt_stdio_output@@@2@@__crt_stdio_output@@AAEXI@Z 1007e1ce f i libucrt:output.obj
 0001:0007d1e3       ?unset_flag@?$output_processor@DV?$string_output_adapter@D@__crt_stdio_output@@V?$standard_base@DV?$string_output_adapter@D@__crt_stdio_output@@@2@@__crt_stdio_output@@AAEXI@Z 1007e1e3 f i libucrt:output.obj
 0001:0007d1f8       ?unset_flag@?$output_processor@_WV?$stream_output_adapter@_W@__crt_stdio_output@@V?$format_validation_base@_WV?$stream_output_adapter@_W@__crt_stdio_output@@@2@@__crt_stdio_output@@AAEXI@Z 1007e1f8 f i libucrt:output.obj
 0001:0007d20d       ?unset_flag@?$output_processor@_WV?$stream_output_adapter@_W@__crt_stdio_output@@V?$positional_parameter_base@_WV?$stream_output_adapter@_W@__crt_stdio_output@@@2@@__crt_stdio_output@@AAEXI@Z 1007e20d f i libucrt:output.obj
 0001:0007d222       ?unset_flag@?$output_processor@_WV?$stream_output_adapter@_W@__crt_stdio_output@@V?$standard_base@_WV?$stream_output_adapter@_W@__crt_stdio_output@@@2@@__crt_stdio_output@@AAEXI@Z 1007e222 f i libucrt:output.obj
 0001:0007d237       ?unset_flag@?$output_processor@_WV?$string_output_adapter@_W@__crt_stdio_output@@V?$format_validation_base@_WV?$string_output_adapter@_W@__crt_stdio_output@@@2@@__crt_stdio_output@@AAEXI@Z 1007e237 f i libucrt:output.obj
 0001:0007d24c       ?unset_flag@?$output_processor@_WV?$string_output_adapter@_W@__crt_stdio_output@@V?$positional_parameter_base@_WV?$string_output_adapter@_W@__crt_stdio_output@@@2@@__crt_stdio_output@@AAEXI@Z 1007e24c f i libucrt:output.obj
 0001:0007d261       ?unset_flag@?$output_processor@_WV?$string_output_adapter@_W@__crt_stdio_output@@V?$standard_base@_WV?$string_output_adapter@_W@__crt_stdio_output@@@2@@__crt_stdio_output@@AAEXI@Z 1007e261 f i libucrt:output.obj
 0001:0007d276       ?update_field_width@?$positional_parameter_base@DV?$stream_output_adapter@D@__crt_stdio_output@@@__crt_stdio_output@@IAE_NXZ 1007e276 f i libucrt:output.obj
 0001:0007d380       ?update_field_width@?$positional_parameter_base@DV?$string_output_adapter@D@__crt_stdio_output@@@__crt_stdio_output@@IAE_NXZ 1007e380 f i libucrt:output.obj
 0001:0007d48a       ?update_field_width@?$positional_parameter_base@_WV?$stream_output_adapter@_W@__crt_stdio_output@@@__crt_stdio_output@@IAE_NXZ 1007e48a f i libucrt:output.obj
 0001:0007d595       ?update_field_width@?$positional_parameter_base@_WV?$string_output_adapter@_W@__crt_stdio_output@@@__crt_stdio_output@@IAE_NXZ 1007e595 f i libucrt:output.obj
 0001:0007d6a0       ?update_field_width@?$standard_base@DV?$stream_output_adapter@D@__crt_stdio_output@@@__crt_stdio_output@@IAE_NXZ 1007e6a0 f i libucrt:output.obj
 0001:0007d6b5       ?update_field_width@?$standard_base@DV?$string_output_adapter@D@__crt_stdio_output@@@__crt_stdio_output@@IAE_NXZ 1007e6b5 f i libucrt:output.obj
 0001:0007d6ca       ?update_field_width@?$standard_base@_WV?$stream_output_adapter@_W@__crt_stdio_output@@@__crt_stdio_output@@IAE_NXZ 1007e6ca f i libucrt:output.obj
 0001:0007d6df       ?update_field_width@?$standard_base@_WV?$string_output_adapter@_W@__crt_stdio_output@@@__crt_stdio_output@@IAE_NXZ 1007e6df f i libucrt:output.obj
 0001:0007d700       ?update_locale@__crt_cached_ptd_host@@AAEXXZ 1007e700 f i libucrt:output.obj
 0001:0007d710       ?update_locale_slow@__crt_cached_ptd_host@@AAEXXZ 1007e710 f i libucrt:output.obj
 0001:0007d781       ?update_precision@?$positional_parameter_base@DV?$stream_output_adapter@D@__crt_stdio_output@@@__crt_stdio_output@@IAE_NXZ 1007e781 f i libucrt:output.obj
 0001:0007d88b       ?update_precision@?$positional_parameter_base@DV?$string_output_adapter@D@__crt_stdio_output@@@__crt_stdio_output@@IAE_NXZ 1007e88b f i libucrt:output.obj
 0001:0007d995       ?update_precision@?$positional_parameter_base@_WV?$stream_output_adapter@_W@__crt_stdio_output@@@__crt_stdio_output@@IAE_NXZ 1007e995 f i libucrt:output.obj
 0001:0007daa0       ?update_precision@?$positional_parameter_base@_WV?$string_output_adapter@_W@__crt_stdio_output@@@__crt_stdio_output@@IAE_NXZ 1007eaa0 f i libucrt:output.obj
 0001:0007dbab       ?update_precision@?$standard_base@DV?$stream_output_adapter@D@__crt_stdio_output@@@__crt_stdio_output@@IAE_NXZ 1007ebab f i libucrt:output.obj
 0001:0007dbc0       ?update_precision@?$standard_base@DV?$string_output_adapter@D@__crt_stdio_output@@@__crt_stdio_output@@IAE_NXZ 1007ebc0 f i libucrt:output.obj
 0001:0007dbd5       ?update_precision@?$standard_base@_WV?$stream_output_adapter@_W@__crt_stdio_output@@@__crt_stdio_output@@IAE_NXZ 1007ebd5 f i libucrt:output.obj
 0001:0007dbea       ?update_precision@?$standard_base@_WV?$string_output_adapter@_W@__crt_stdio_output@@@__crt_stdio_output@@IAE_NXZ 1007ebea f i libucrt:output.obj
 0001:0007dbff       ?valid@?$cached@H@__crt_cached_ptd_host@@QBE_NXZ 1007ebff f i libucrt:output.obj
 0001:0007dc03       ?valid@?$cached@K@__crt_cached_ptd_host@@QBE_NXZ 1007ec03 f i libucrt:output.obj
 0001:0007dc07       ?valid@__crt_stdio_stream@@QBE_NXZ 1007ec07 f i libucrt:output.obj
 0001:0007dc0e       ?validate@?$c_string_character_source@D@__crt_strtox@@QBE_NXZ 1007ec0e f i libucrt:output.obj
 0001:0007dc2f       ?validate@?$c_string_character_source@_W@__crt_strtox@@QBE_NXZ 1007ec2f f i libucrt:output.obj
 0001:0007dc50       ?validate@?$stream_output_adapter@D@__crt_stdio_output@@QBE_NAAV__crt_cached_ptd_host@@@Z 1007ec50 f i libucrt:output.obj
 0001:0007dc96       ?validate@?$stream_output_adapter@_W@__crt_stdio_output@@QBE_NAAV__crt_cached_ptd_host@@@Z 1007ec96 f i libucrt:output.obj
 0001:0007dcd3       ?validate@?$string_output_adapter@D@__crt_stdio_output@@QBE_NAAV__crt_cached_ptd_host@@@Z 1007ecd3 f i libucrt:output.obj
 0001:0007dd10       ?validate@?$string_output_adapter@_W@__crt_stdio_output@@QBE_NAAV__crt_cached_ptd_host@@@Z 1007ed10 f i libucrt:output.obj
 0001:0007dd4d       ?validate_and_store_parameter_data@?$positional_parameter_base@DV?$stream_output_adapter@D@__crt_stdio_output@@@__crt_stdio_output@@AAE_NAAUparameter_data@12@W4parameter_type@12@DW4length_modifier@2@@Z 1007ed4d f i libucrt:output.obj
 0001:0007ddc7       ?validate_and_store_parameter_data@?$positional_parameter_base@DV?$string_output_adapter@D@__crt_stdio_output@@@__crt_stdio_output@@AAE_NAAUparameter_data@12@W4parameter_type@12@DW4length_modifier@2@@Z 1007edc7 f i libucrt:output.obj
 0001:0007de41       ?validate_and_store_parameter_data@?$positional_parameter_base@_WV?$stream_output_adapter@_W@__crt_stdio_output@@@__crt_stdio_output@@AAE_NAAUparameter_data@12@W4parameter_type@12@_WW4length_modifier@2@@Z 1007ee41 f i libucrt:output.obj
 0001:0007debe       ?validate_and_store_parameter_data@?$positional_parameter_base@_WV?$string_output_adapter@_W@__crt_stdio_output@@@__crt_stdio_output@@AAE_NAAUparameter_data@12@W4parameter_type@12@_WW4length_modifier@2@@Z 1007eebe f i libucrt:output.obj
 0001:0007df3b       ?validate_and_update_state_at_beginning_of_format_character@?$positional_parameter_base@DV?$stream_output_adapter@D@__crt_stdio_output@@@__crt_stdio_output@@IAE_NXZ 1007ef3b f i libucrt:output.obj
 0001:0007e097       ?validate_and_update_state_at_beginning_of_format_character@?$positional_parameter_base@DV?$string_output_adapter@D@__crt_stdio_output@@@__crt_stdio_output@@IAE_NXZ 1007f097 f i libucrt:output.obj
 0001:0007e1f3       ?validate_and_update_state_at_beginning_of_format_character@?$positional_parameter_base@_WV?$stream_output_adapter@_W@__crt_stdio_output@@@__crt_stdio_output@@IAE_NXZ 1007f1f3 f i libucrt:output.obj
 0001:0007e360       ?validate_and_update_state_at_beginning_of_format_character@?$positional_parameter_base@_WV?$string_output_adapter@_W@__crt_stdio_output@@@__crt_stdio_output@@IAE_NXZ 1007f360 f i libucrt:output.obj
 0001:0007e4cd       ?validate_and_update_state_at_beginning_of_format_character@?$standard_base@DV?$stream_output_adapter@D@__crt_stdio_output@@@__crt_stdio_output@@IAE_NXZ 1007f4cd f i libucrt:output.obj
 0001:0007e4d0       ?validate_and_update_state_at_beginning_of_format_character@?$standard_base@DV?$string_output_adapter@D@__crt_stdio_output@@@__crt_stdio_output@@IAE_NXZ 1007f4d0 f i libucrt:output.obj
 0001:0007e4d3       ?validate_and_update_state_at_beginning_of_format_character@?$standard_base@_WV?$stream_output_adapter@_W@__crt_stdio_output@@@__crt_stdio_output@@IAE_NXZ 1007f4d3 f i libucrt:output.obj
 0001:0007e4d6       ?validate_and_update_state_at_beginning_of_format_character@?$standard_base@_WV?$string_output_adapter@_W@__crt_stdio_output@@@__crt_stdio_output@@IAE_NXZ 1007f4d6 f i libucrt:output.obj
 0001:0007e4d9       ?validate_and_update_state_at_end_of_format_string@?$format_validation_base@DV?$stream_output_adapter@D@__crt_stdio_output@@@__crt_stdio_output@@IAE_NXZ 1007f4d9 f i libucrt:output.obj
 0001:0007e516       ?validate_and_update_state_at_end_of_format_string@?$format_validation_base@DV?$string_output_adapter@D@__crt_stdio_output@@@__crt_stdio_output@@IAE_NXZ 1007f516 f i libucrt:output.obj
 0001:0007e553       ?validate_and_update_state_at_end_of_format_string@?$format_validation_base@_WV?$stream_output_adapter@_W@__crt_stdio_output@@@__crt_stdio_output@@IAE_NXZ 1007f553 f i libucrt:output.obj
 0001:0007e590       ?validate_and_update_state_at_end_of_format_string@?$format_validation_base@_WV?$string_output_adapter@_W@__crt_stdio_output@@@__crt_stdio_output@@IAE_NXZ 1007f590 f i libucrt:output.obj
 0001:0007e5cd       ?validate_and_update_state_at_end_of_format_string@?$positional_parameter_base@DV?$stream_output_adapter@D@__crt_stdio_output@@@__crt_stdio_output@@IAE_NXZ 1007f5cd f i libucrt:output.obj
 0001:0007e6b5       ?validate_and_update_state_at_end_of_format_string@?$positional_parameter_base@DV?$string_output_adapter@D@__crt_stdio_output@@@__crt_stdio_output@@IAE_NXZ 1007f6b5 f i libucrt:output.obj
 0001:0007e79d       ?validate_and_update_state_at_end_of_format_string@?$positional_parameter_base@_WV?$stream_output_adapter@_W@__crt_stdio_output@@@__crt_stdio_output@@IAE_NXZ 1007f79d f i libucrt:output.obj
 0001:0007e885       ?validate_and_update_state_at_end_of_format_string@?$positional_parameter_base@_WV?$string_output_adapter@_W@__crt_stdio_output@@@__crt_stdio_output@@IAE_NXZ 1007f885 f i libucrt:output.obj
 0001:0007e96d       ?validate_and_update_state_at_end_of_format_string@?$standard_base@DV?$stream_output_adapter@D@__crt_stdio_output@@@__crt_stdio_output@@IBE_NXZ 1007f96d f i libucrt:output.obj
 0001:0007e970       ?validate_and_update_state_at_end_of_format_string@?$standard_base@DV?$string_output_adapter@D@__crt_stdio_output@@@__crt_stdio_output@@IBE_NXZ 1007f970 f i libucrt:output.obj
 0001:0007e973       ?validate_and_update_state_at_end_of_format_string@?$standard_base@_WV?$stream_output_adapter@_W@__crt_stdio_output@@@__crt_stdio_output@@IBE_NXZ 1007f973 f i libucrt:output.obj
 0001:0007e976       ?validate_and_update_state_at_end_of_format_string@?$standard_base@_WV?$string_output_adapter@_W@__crt_stdio_output@@@__crt_stdio_output@@IBE_NXZ 1007f976 f i libucrt:output.obj
 0001:0007e979       ?validate_state_for_type_case_a@?$positional_parameter_base@DV?$stream_output_adapter@D@__crt_stdio_output@@@__crt_stdio_output@@IAE_NXZ 1007f979 f i libucrt:output.obj
 0001:0007e9ef       ?validate_state_for_type_case_a@?$positional_parameter_base@DV?$string_output_adapter@D@__crt_stdio_output@@@__crt_stdio_output@@IAE_NXZ 1007f9ef f i libucrt:output.obj
 0001:0007ea65       ?validate_state_for_type_case_a@?$positional_parameter_base@_WV?$stream_output_adapter@_W@__crt_stdio_output@@@__crt_stdio_output@@IAE_NXZ 1007fa65 f i libucrt:output.obj
 0001:0007eadb       ?validate_state_for_type_case_a@?$positional_parameter_base@_WV?$string_output_adapter@_W@__crt_stdio_output@@@__crt_stdio_output@@IAE_NXZ 1007fadb f i libucrt:output.obj
 0001:0007eb51       ?validate_state_for_type_case_a@?$standard_base@DV?$stream_output_adapter@D@__crt_stdio_output@@@__crt_stdio_output@@IBE_NXZ 1007fb51 f i libucrt:output.obj
 0001:0007eb54       ?validate_state_for_type_case_a@?$standard_base@DV?$string_output_adapter@D@__crt_stdio_output@@@__crt_stdio_output@@IBE_NXZ 1007fb54 f i libucrt:output.obj
 0001:0007eb57       ?validate_state_for_type_case_a@?$standard_base@_WV?$stream_output_adapter@_W@__crt_stdio_output@@@__crt_stdio_output@@IBE_NXZ 1007fb57 f i libucrt:output.obj
 0001:0007eb5a       ?validate_state_for_type_case_a@?$standard_base@_WV?$string_output_adapter@_W@__crt_stdio_output@@@__crt_stdio_output@@IBE_NXZ 1007fb5a f i libucrt:output.obj
 0001:0007eb5d       ?validate_stream_is_ansi_if_required@?$__acrt_stdio_char_traits@D@@SA_NQAU_iobuf@@@Z 1007fb5d f i libucrt:output.obj
 0001:0007ec05       ?validate_stream_is_ansi_if_required@?$__acrt_stdio_char_traits@_W@@SA_NQAU_iobuf@@@Z 1007fc05 f i libucrt:output.obj
 0001:0007ec08       ?wide_character_to_digit@__crt_strtox@@YAH_W@Z 1007fc08 f i libucrt:output.obj
 0001:0007ee11       ?wide_null_string@?$output_processor@DV?$stream_output_adapter@D@__crt_stdio_output@@V?$format_validation_base@DV?$stream_output_adapter@D@__crt_stdio_output@@@2@@__crt_stdio_output@@CAPA_WXZ 1007fe11 f i libucrt:output.obj
 0001:0007ee17       ?wide_null_string@?$output_processor@DV?$stream_output_adapter@D@__crt_stdio_output@@V?$positional_parameter_base@DV?$stream_output_adapter@D@__crt_stdio_output@@@2@@__crt_stdio_output@@CAPA_WXZ 1007fe17 f i libucrt:output.obj
 0001:0007ee1d       ?wide_null_string@?$output_processor@DV?$stream_output_adapter@D@__crt_stdio_output@@V?$standard_base@DV?$stream_output_adapter@D@__crt_stdio_output@@@2@@__crt_stdio_output@@CAPA_WXZ 1007fe1d f i libucrt:output.obj
 0001:0007ee23       ?wide_null_string@?$output_processor@DV?$string_output_adapter@D@__crt_stdio_output@@V?$format_validation_base@DV?$string_output_adapter@D@__crt_stdio_output@@@2@@__crt_stdio_output@@CAPA_WXZ 1007fe23 f i libucrt:output.obj
 0001:0007ee29       ?wide_null_string@?$output_processor@DV?$string_output_adapter@D@__crt_stdio_output@@V?$positional_parameter_base@DV?$string_output_adapter@D@__crt_stdio_output@@@2@@__crt_stdio_output@@CAPA_WXZ 1007fe29 f i libucrt:output.obj
 0001:0007ee2f       ?wide_null_string@?$output_processor@DV?$string_output_adapter@D@__crt_stdio_output@@V?$standard_base@DV?$string_output_adapter@D@__crt_stdio_output@@@2@@__crt_stdio_output@@CAPA_WXZ 1007fe2f f i libucrt:output.obj
 0001:0007ee35       ?wide_null_string@?$output_processor@_WV?$stream_output_adapter@_W@__crt_stdio_output@@V?$format_validation_base@_WV?$stream_output_adapter@_W@__crt_stdio_output@@@2@@__crt_stdio_output@@CAPA_WXZ 1007fe35 f i libucrt:output.obj
 0001:0007ee3b       ?wide_null_string@?$output_processor@_WV?$stream_output_adapter@_W@__crt_stdio_output@@V?$positional_parameter_base@_WV?$stream_output_adapter@_W@__crt_stdio_output@@@2@@__crt_stdio_output@@CAPA_WXZ 1007fe3b f i libucrt:output.obj
 0001:0007ee41       ?wide_null_string@?$output_processor@_WV?$stream_output_adapter@_W@__crt_stdio_output@@V?$standard_base@_WV?$stream_output_adapter@_W@__crt_stdio_output@@@2@@__crt_stdio_output@@CAPA_WXZ 1007fe41 f i libucrt:output.obj
 0001:0007ee47       ?wide_null_string@?$output_processor@_WV?$string_output_adapter@_W@__crt_stdio_output@@V?$format_validation_base@_WV?$string_output_adapter@_W@__crt_stdio_output@@@2@@__crt_stdio_output@@CAPA_WXZ 1007fe47 f i libucrt:output.obj
 0001:0007ee4d       ?wide_null_string@?$output_processor@_WV?$string_output_adapter@_W@__crt_stdio_output@@V?$positional_parameter_base@_WV?$string_output_adapter@_W@__crt_stdio_output@@@2@@__crt_stdio_output@@CAPA_WXZ 1007fe4d f i libucrt:output.obj
 0001:0007ee53       ?wide_null_string@?$output_processor@_WV?$string_output_adapter@_W@__crt_stdio_output@@V?$standard_base@_WV?$string_output_adapter@_W@__crt_stdio_output@@@2@@__crt_stdio_output@@CAPA_WXZ 1007fe53 f i libucrt:output.obj
 0001:0007ee59       ?write_character@?$output_adapter_common@DV?$stream_output_adapter@D@__crt_stdio_output@@@__crt_stdio_output@@QBEXDQAHAAV__crt_cached_ptd_host@@@Z 1007fe59 f i libucrt:output.obj
 0001:0007ee83       ?write_character@?$output_adapter_common@_WV?$stream_output_adapter@_W@__crt_stdio_output@@@__crt_stdio_output@@QBEX_WQAHAAV__crt_cached_ptd_host@@@Z 1007fe83 f i libucrt:output.obj
 0001:0007eead       ?write_character@?$string_output_adapter@D@__crt_stdio_output@@QBE_NDQAHAAV__crt_cached_ptd_host@@@Z 1007fead f i libucrt:output.obj
 0001:0007eeff       ?write_character@?$string_output_adapter@_W@__crt_stdio_output@@QBE_N_WQAHAAV__crt_cached_ptd_host@@@Z 1007feff f i libucrt:output.obj
 0001:0007ef55       ?write_character_without_count_update@?$stream_output_adapter@D@__crt_stdio_output@@QBE_NDAAV__crt_cached_ptd_host@@@Z 1007ff55 f i libucrt:output.obj
 0001:0007ef9d       ?write_character_without_count_update@?$stream_output_adapter@_W@__crt_stdio_output@@QBE_N_WAAV__crt_cached_ptd_host@@@Z 1007ff9d f i libucrt:output.obj
 0001:0007efe9       ?write_stored_string_tchar@?$output_processor@DV?$stream_output_adapter@D@__crt_stdio_output@@V?$format_validation_base@DV?$stream_output_adapter@D@__crt_stdio_output@@@2@@__crt_stdio_output@@AAE_ND@Z 1007ffe9 f i libucrt:output.obj
 0001:0007f0be       ?write_stored_string_tchar@?$output_processor@DV?$stream_output_adapter@D@__crt_stdio_output@@V?$positional_parameter_base@DV?$stream_output_adapter@D@__crt_stdio_output@@@2@@__crt_stdio_output@@AAE_ND@Z 100800be f i libucrt:output.obj
 0001:0007f193       ?write_stored_string_tchar@?$output_processor@DV?$stream_output_adapter@D@__crt_stdio_output@@V?$standard_base@DV?$stream_output_adapter@D@__crt_stdio_output@@@2@@__crt_stdio_output@@AAE_ND@Z 10080193 f i libucrt:output.obj
 0001:0007f268       ?write_stored_string_tchar@?$output_processor@DV?$string_output_adapter@D@__crt_stdio_output@@V?$format_validation_base@DV?$string_output_adapter@D@__crt_stdio_output@@@2@@__crt_stdio_output@@AAE_ND@Z 10080268 f i libucrt:output.obj
 0001:0007f33d       ?write_stored_string_tchar@?$output_processor@DV?$string_output_adapter@D@__crt_stdio_output@@V?$positional_parameter_base@DV?$string_output_adapter@D@__crt_stdio_output@@@2@@__crt_stdio_output@@AAE_ND@Z 1008033d f i libucrt:output.obj
 0001:0007f412       ?write_stored_string_tchar@?$output_processor@DV?$string_output_adapter@D@__crt_stdio_output@@V?$standard_base@DV?$string_output_adapter@D@__crt_stdio_output@@@2@@__crt_stdio_output@@AAE_ND@Z 10080412 f i libucrt:output.obj
 0001:0007f4e7       ?write_stored_string_tchar@?$output_processor@_WV?$stream_output_adapter@_W@__crt_stdio_output@@V?$format_validation_base@_WV?$stream_output_adapter@_W@__crt_stdio_output@@@2@@__crt_stdio_output@@AAE_N_W@Z 100804e7 f i libucrt:output.obj
 0001:0007f5bf       ?write_stored_string_tchar@?$output_processor@_WV?$stream_output_adapter@_W@__crt_stdio_output@@V?$positional_parameter_base@_WV?$stream_output_adapter@_W@__crt_stdio_output@@@2@@__crt_stdio_output@@AAE_N_W@Z 100805bf f i libucrt:output.obj
 0001:0007f697       ?write_stored_string_tchar@?$output_processor@_WV?$stream_output_adapter@_W@__crt_stdio_output@@V?$standard_base@_WV?$stream_output_adapter@_W@__crt_stdio_output@@@2@@__crt_stdio_output@@AAE_N_W@Z 10080697 f i libucrt:output.obj
 0001:0007f76f       ?write_stored_string_tchar@?$output_processor@_WV?$string_output_adapter@_W@__crt_stdio_output@@V?$format_validation_base@_WV?$string_output_adapter@_W@__crt_stdio_output@@@2@@__crt_stdio_output@@AAE_N_W@Z 1008076f f i libucrt:output.obj
 0001:0007f883       ?write_stored_string_tchar@?$output_processor@_WV?$string_output_adapter@_W@__crt_stdio_output@@V?$positional_parameter_base@_WV?$string_output_adapter@_W@__crt_stdio_output@@@2@@__crt_stdio_output@@AAE_N_W@Z 10080883 f i libucrt:output.obj
 0001:0007f997       ?write_stored_string_tchar@?$output_processor@_WV?$string_output_adapter@_W@__crt_stdio_output@@V?$standard_base@_WV?$string_output_adapter@_W@__crt_stdio_output@@@2@@__crt_stdio_output@@AAE_N_W@Z 10080997 f i libucrt:output.obj
 0001:0007faab       ?write_string@?$stream_output_adapter@D@__crt_stdio_output@@QBEXQBDHQAHAAV__crt_cached_ptd_host@@@Z 10080aab f i libucrt:output.obj
 0001:0007fae2       ?write_string@?$stream_output_adapter@_W@__crt_stdio_output@@QBEXQB_WHQAHAAV__crt_cached_ptd_host@@@Z 10080ae2 f i libucrt:output.obj
 0001:0007fb19       ?write_string@?$string_output_adapter@D@__crt_stdio_output@@QBEXQBDHQAHAAV__crt_cached_ptd_host@@@Z 10080b19 f i libucrt:output.obj
 0001:0007fb99       ?write_string@?$string_output_adapter@_W@__crt_stdio_output@@QBEXQB_WHQAHAAV__crt_cached_ptd_host@@@Z 10080b99 f i libucrt:output.obj
 0001:0007fc26       ?write_string_impl@?$output_adapter_common@DV?$stream_output_adapter@D@__crt_stdio_output@@@__crt_stdio_output@@IBEXQBDHQAHAAV__crt_cached_ptd_host@@@Z 10080c26 f i libucrt:output.obj
 0001:0007fcc4       ?write_string_impl@?$output_adapter_common@_WV?$stream_output_adapter@_W@__crt_stdio_output@@@__crt_stdio_output@@IBEXQB_WHQAHAAV__crt_cached_ptd_host@@@Z 10080cc4 f i libucrt:output.obj
 0001:0007fd66       ___acrt_disable_global_locale_sync 10080d66 f i libucrt:output.obj
 0001:0007fd7d       ___acrt_enable_global_locale_sync 10080d7d f i libucrt:output.obj
 0001:0007fd97       ___acrt_isleadbyte_l_noupdate 10080d97 f i libucrt:output.obj
 0001:0007fdbc       ___acrt_locale_changed     10080dbc f i libucrt:output.obj
 0001:0007fdc9       ___acrt_locale_get_ctype_array_value 10080dc9 f i libucrt:output.obj
 0001:0007fdf3       ___ascii_iswalpha          10080df3 f i libucrt:output.obj
 0001:0007fe1e       ___ascii_toupper           10080e1e f i libucrt:output.obj
 0001:0007fe3a       ___ascii_towupper          10080e3a f i libucrt:output.obj
 0001:0007fe56       ___stdio_common_vfprintf   10080e56 f   libucrt:output.obj
 0001:0007ff23       ___stdio_common_vfprintf_p 10080f23 f   libucrt:output.obj
 0001:0007fff0       ___stdio_common_vfprintf_s 10080ff0 f   libucrt:output.obj
 0001:000800bd       ___stdio_common_vfwprintf  100810bd f   libucrt:output.obj
 0001:0008018a       ___stdio_common_vfwprintf_p 1008118a f   libucrt:output.obj
 0001:00080257       ___stdio_common_vfwprintf_s 10081257 f   libucrt:output.obj
 0001:00080324       ___stdio_common_vsnprintf_s 10081324 f   libucrt:output.obj
 0001:00080379       ___stdio_common_vsnwprintf_s 10081379 f   libucrt:output.obj
 0001:000803ce       ___stdio_common_vsprintf   100813ce f   libucrt:output.obj
 0001:0008041f       ___stdio_common_vsprintf_p 1008141f f   libucrt:output.obj
 0001:00080470       ___stdio_common_vsprintf_s 10081470 f   libucrt:output.obj
 0001:000804c1       ___stdio_common_vswprintf  100814c1 f   libucrt:output.obj
 0001:00080512       ___stdio_common_vswprintf_p 10081512 f   libucrt:output.obj
 0001:00080563       ___stdio_common_vswprintf_s 10081563 f   libucrt:output.obj
 0001:000805b4       __ctype_fast_check_internal 100815b4 f i libucrt:output.obj
 0001:000805d4       __isdigit_fast_internal    100815d4 f i libucrt:output.obj
 0001:000805f4       __tolower_fast_internal    100815f4 f i libucrt:output.obj
 0001:00080613       _calloc                    10081613 f   libucrt:calloc.obj
 0001:00080620       _realloc                   10081620 f   libucrt:realloc.obj
 0001:0008062d       ??$?B$$A6GXPAXK0@Z@__crt_fast_encoded_nullptr_t@@QBEP6GXPAXK0@ZXZ 1008162d f i libucrt:exit.obj
 0001:000806fd       ??$__crt_fast_decode_pointer@P6GXPAXK0@Z@@YAP6GXPAXK0@ZQ6GX0K0@Z@Z 100816fd f i libucrt:exit.obj
 0001:0008071e       ??$__crt_fast_encode_pointer@P6GXPAXK0@Z@@YAP6GXPAXK0@ZQ6GX0K0@Z@Z 1008171e f i libucrt:exit.obj
 0001:00080744       ??$__crt_get_proc_address@P6GXI@Z@@YAP6GXI@ZQAUHINSTANCE__@@QBD@Z 10081744 f i libucrt:exit.obj
 0001:000807aa       ??0?$__crt_unique_handle_t@U__crt_hmodule_traits@@@@QAE@QAUHINSTANCE__@@@Z 100817aa f i libucrt:exit.obj
 0001:000807be       ??1?$__crt_unique_handle_t@U__crt_hmodule_traits@@@@QAE@XZ 100817be f i libucrt:exit.obj
 0001:00080912       ?__acrt_select_exit_lock@@YA?AW4__acrt_lock_id@@XZ 10081912 f i libucrt:exit.obj
 0001:00080916       ?__crt_fast_encode_pointer@@YA?AU__crt_fast_encoded_nullptr_t@@$$T@Z 10081916 f i libucrt:exit.obj
 0001:00080923       ?__crt_rotate_pointer_value@@YAIIH@Z 10081923 f i libucrt:exit.obj
 0001:0008094c       ?close@?$__crt_unique_handle_t@U__crt_hmodule_traits@@@@QAEXXZ 1008194c f i libucrt:exit.obj
 0001:00080968       ?close@__crt_hmodule_traits@@SA_NPAUHINSTANCE__@@@Z 10081968 f i libucrt:exit.obj
 0001:00080a7b       ?get@?$__crt_unique_handle_t@U__crt_hmodule_traits@@@@QBEPAUHINSTANCE__@@XZ 10081a7b f i libucrt:exit.obj
 0001:00080a7e       ?get_address_of@?$__crt_unique_handle_t@U__crt_hmodule_traits@@@@QAEPAPAUHINSTANCE__@@XZ 10081a7e f i libucrt:exit.obj
 0001:00080a81       ?get_invalid_value@__crt_hmodule_traits@@SAPAUHINSTANCE__@@XZ 10081a81 f i libucrt:exit.obj
 0001:00080b97       __Exit                     10081b97 f   libucrt:exit.obj
 0001:00080bb2       ___acrt_initialize_thread_local_exit_callback 10081bb2 f   libucrt:exit.obj
 0001:00080bc4       __c_exit                   10081bc4 f   libucrt:exit.obj
 0001:00080bd6       __cexit                    10081bd6 f   libucrt:exit.obj
 0001:00080be8       __exit                     10081be8 f   libucrt:exit.obj
 0001:00080c03       __is_c_termination_complete 10081c03 f   libucrt:exit.obj
 0001:00080c0a       __register_thread_local_exe_atexit_callback 10081c0a f   libucrt:exit.obj
 0001:00080c39       _exit                      10081c39 f   libucrt:exit.obj
 0001:00080c54       _quick_exit                10081c54 f   libucrt:exit.obj
 0001:00080c70       _strncat                   10081c70 f   libucrt:strncat.obj
 0001:00080e00       _strncpy                   10081e00 f   libucrt:strncpy.obj
 0001:000810da       ?is_in_use@__crt_stdio_stream@@QBE_NXZ 100820da f i libucrt:fclose.obj
 0001:000810e9       __fclose_nolock            100820e9 f   libucrt:fclose.obj
 0001:00081125       _fclose                    10082125 f   libucrt:fclose.obj
 0001:000813d8       ??$open_file@ABQBDABQBDABHPAU_iobuf@@@?$__crt_char_traits@D@@SAPAU_iobuf@@ABQBD0ABH$$QAPAU1@@Z 100823d8 f i libucrt:fopen.obj
 0001:00081403       ??$open_file@ABQB_WABQB_WABHPAU_iobuf@@@?$__crt_char_traits@_W@@SAPAU_iobuf@@ABQB_W0ABH$$QAPAU1@@Z 10082403 f i libucrt:fopen.obj
